(dp1
S'layout'
p2
(ilayout
Layout
p3
(dp4
S'capsules'
p5
(lp6
sS'numGhosts'
p7
I1
sS'food'
p8
(igame
Grid
p9
(dp10
S'CELLS_PER_INT'
p11
I30
sS'width'
p12
I7
sS'data'
p13
(lp14
(lp15
I00
aI00
aI00
aI00
aI00
aI00
aI00
aa(lp16
I00
aI01
aI00
aI00
aI00
aI00
aI00
aa(lp17
I00
aI00
aI00
aI00
aI00
aI00
aI00
aa(lp18
I00
aI00
aI00
aI01
aI00
aI00
aI00
aa(lp19
I00
aI00
aI00
aI00
aI00
aI00
aI00
aa(lp20
I00
aI00
aI00
aI00
aI00
aI00
aI00
aa(lp21
I00
aI00
aI00
aI00
aI00
aI00
aI00
aasS'height'
p22
I7
sbsS'agentPositions'
p23
(lp24
(I01
(I2
I5
tp25
tp26
a(I00
(I3
I1
ttp27
asg22
I7
sg12
I7
sS'walls'
p28
(igame
Grid
p29
(dp30
g11
I30
sg12
I7
sg13
(lp31
(lp32
I01
aI01
aI01
aI01
aI01
aI01
aI01
aa(lp33
I01
aI00
aI00
aI00
aI00
aI00
aI01
aa(lp34
I01
aI00
aI01
aI01
aI01
aI00
aI01
aa(lp35
I01
aI00
aI01
aI00
aI01
aI00
aI01
aa(lp36
I01
aI00
aI01
aI00
aI01
aI00
aI01
aa(lp37
I01
aI00
aI00
aI00
aI00
aI00
aI01
aa(lp38
I01
aI01
aI01
aI01
aI01
aI01
aI01
aasg22
I7
sbsS'totalFood'
p39
I2
sS'layoutText'
p40
(lp41
S'%%%%%%%'
p42
aS'% P   %'
p43
aS'% %%% %'
p44
aS'% %.  %'
p45
aS'% %%% %'
p46
aS'%. G  %'
p47
aS'%%%%%%%'
p48
asbsS'actions'
p49
(lp50
(I0
S'Stop'
p51
tp52
a(I0
g51
tp53
a(I0
S'West'
p54
tp55
a(I0
S'South'
p56
tp57
a(I0
S'North'
p58
tp59
a(I0
S'East'
p60
tp61
a(I0
g60
tp62
a(I0
g60
tp63
a(I0
g60
tp64
a(I0
g51
tp65
a(I0
g51
tp66
a(I0
g51
tp67
a(I0
g51
tp68
a(I0
g51
tp69
a(I0
g51
tp70
a(I0
g51
tp71
a(I0
g51
tp72
a(I0
g51
tp73
a(I0
g51
tp74
a(I0
g51
tp75
a(I0
g51
tp76
a(I0
g51
tp77
a(I0
g51
tp78
a(I0
g54
tp79
a(I0
g51
tp80
a(I0
g51
tp81
a(I0
g51
tp82
a(I0
g51
tp83
a(I0
g54
tp84
a(I0
g60
tp85
a(I0
g60
tp86
a(I0
g54
tp87
a(I0
g54
tp88
a(I0
g60
tp89
a(I0
g60
tp90
a(I0
g54
tp91
a(I0
g54
tp92
a(I0
g60
tp93
a(I0
g60
tp94
a(I0
g54
tp95
a(I0
g54
tp96
a(I0
g60
tp97
a(I0
g60
tp98
a(I0
g54
tp99
a(I0
g54
tp100
a(I0
g51
tp101
a(I0
g60
tp102
a(I0
g54
tp103
a(I0
g60
tp104
a(I0
g54
tp105
a(I0
g54
tp106
a(I0
g60
tp107
a(I0
g54
tp108
a(I0
g51
tp109
a(I0
g51
tp110
a(I0
g51
tp111
a(I0
g54
tp112
a(I0
g56
tp113
a(I0
g58
tp114
a(I0
g60
tp115
a(I0
g60
tp116
a(I0
g54
tp117
a(I0
g60
tp118
a(I0
g54
tp119
a(I0
g60
tp120
a(I0
g54
tp121
a(I0
g54
tp122
a(I0
g56
tp123
a(I0
g58
tp124
a(I0
g51
tp125
a(I0
g51
tp126
a(I0
g60
tp127
a(I0
g60
tp128
a(I0
g54
tp129
a(I0
g54
tp130
a(I0
g56
tp131
a(I0
g58
tp132
a(I0
g60
tp133
a(I0
g54
tp134
a(I0
g60
tp135
a(I0
g54
tp136
a(I0
g60
tp137
a(I0
g60
tp138
a(I0
g54
tp139
a(I0
g60
tp140
a(I0
g54
tp141
a(I0
g51
tp142
a(I0
g54
tp143
a(I0
g56
tp144
a(I0
g58
tp145
a(I0
g60
tp146
a(I0
g60
tp147
a(I0
g54
tp148
a(I0
g54
tp149
a(I0
g56
tp150
a(I0
g58
tp151
a(I0
g60
tp152
a(I0
g60
tp153
a(I0
g54
tp154
a(I0
g54
tp155
a(I0
g56
tp156
a(I0
g58
tp157
a(I0
g60
tp158
a(I0
g60
tp159
a(I0
g54
tp160
a(I0
g51
tp161
a(I0
g51
tp162
a(I0
g54
tp163
a(I0
g56
tp164
a(I0
g58
tp165
a(I0
g51
tp166
a(I0
g60
tp167
a(I0
g60
tp168
a(I0
g54
tp169
a(I0
g54
tp170
a(I0
g56
tp171
a(I0
g58
tp172
a(I0
g51
tp173
a(I0
g60
tp174
a(I0
g60
tp175
a(I0
g54
tp176
a(I0
g54
tp177
a(I0
g60
tp178
a(I0
g51
tp179
a(I0
g51
tp180
a(I0
g54
tp181
a(I0
g56
tp182
a(I0
g58
tp183
a(I0
g60
tp184
a(I0
g60
tp185
a(I0
g54
tp186
a(I0
g51
tp187
a(I0
g51
tp188
a(I0
g51
tp189
a(I0
g54
tp190
a(I0
g56
tp191
a(I0
g56
tp192
a(I0
g56
tp193
a(I0
g58
tp194
a(I0
g58
tp195
a(I0
g56
tp196
a(I0
g56
tp197
a(I0
g58
tp198
a(I0
g58
tp199
a(I0
g58
tp200
a(I0
g51
tp201
a(I0
g60
tp202
a(I0
g60
tp203
a(I0
g54
tp204
a(I0
g51
tp205
a(I0
g54
tp206
a(I0
g60
tp207
a(I0
g51
tp208
a(I0
g60
tp209
a(I0
g54
tp210
a(I0
g54
tp211
a(I0
g60
tp212
a(I0
g51
tp213
a(I0
g51
tp214
a(I0
g51
tp215
a(I0
g51
tp216
a(I0
g51
tp217
a(I0
g51
tp218
a(I0
g51
tp219
a(I0
g51
tp220
a(I0
g51
tp221
a(I0
g60
tp222
a(I0
g54
tp223
a(I0
g54
tp224
a(I0
g56
tp225
a(I0
g58
tp226
a(I0
g51
tp227
a(I0
g60
tp228
a(I0
g60
tp229
a(I0
g54
tp230
a(I0
g54
tp231
a(I0
g56
tp232
a(I0
g58
tp233
a(I0
g60
tp234
a(I0
g60
tp235
a(I0
g54
tp236
a(I0
g60
tp237
a(I0
g54
tp238
a(I0
g54
tp239
a(I0
g56
tp240
a(I0
g51
tp241
a(I0
g51
tp242
a(I0
g51
tp243
a(I0
g51
tp244
a(I0
g58
tp245
a(I0
g60
tp246
a(I0
g54
tp247
a(I0
g56
tp248
a(I0
g58
tp249
a(I0
g60
tp250
a(I0
g51
tp251
a(I0
g54
tp252
a(I0
g51
tp253
a(I0
g51
tp254
a(I0
g51
tp255
a(I0
g56
tp256
a(I0
g56
tp257
a(I0
g56
tp258
a(I0
g58
tp259
a(I0
g58
tp260
a(I0
g58
tp261
a(I0
g51
tp262
a(I0
g51
tp263
a(I0
g60
tp264
a(I0
g51
tp265
a(I0
g51
tp266
a(I0
g60
tp267
a(I0
g51
tp268
a(I0
g54
tp269
a(I0
g54
tp270
a(I0
g56
tp271
a(I0
g51
tp272
a(I0
g51
tp273
a(I0
g58
tp274
a(I0
g60
tp275
a(I0
g60
tp276
a(I0
g54
tp277
a(I0
g60
tp278
a(I0
g60
tp279
a(I0
g54
tp280
a(I0
g54
tp281
a(I0
g60
tp282
a(I0
g60
tp283
a(I0
g54
tp284
a(I0
g54
tp285
a(I0
g60
tp286
a(I0
g60
tp287
a(I0
g54
tp288
a(I0
g51
tp289
a(I0
g54
tp290
a(I0
g60
tp291
a(I0
g60
tp292
a(I0
g54
tp293
a(I0
g54
tp294
a(I0
g60
tp295
a(I0
g60
tp296
a(I0
g54
tp297
a(I0
g54
tp298
a(I0
g51
tp299
a(I0
g60
tp300
a(I0
g60
tp301
a(I0
g54
tp302
a(I0
g54
tp303
a(I0
g60
tp304
a(I0
g60
tp305
a(I0
g54
tp306
a(I0
g54
tp307
a(I0
g60
tp308
a(I0
g60
tp309
a(I0
g54
tp310
a(I0
g54
tp311
a(I0
g60
tp312
a(I0
g60
tp313
a(I0
g51
tp314
a(I0
g54
tp315
a(I0
g54
tp316
a(I0
g51
tp317
a(I0
g60
tp318
a(I0
g51
tp319
a(I0
g60
tp320
a(I0
g54
tp321
a(I0
g54
tp322
a(I0
g51
tp323
a(I0
g60
tp324
a(I0
g51
tp325
a(I0
g51
tp326
a(I0
g60
tp327
a(I0
g54
tp328
a(I0
g51
tp329
a(I0
g51
tp330
a(I0
g54
tp331
a(I0
g60
tp332
a(I0
g60
tp333
a(I0
g54
tp334
a(I0
g54
tp335
a(I0
g60
tp336
a(I0
g60
tp337
a(I0
g54
tp338
a(I0
g54
tp339
a(I0
g51
tp340
a(I0
g51
tp341
a(I0
g51
tp342
a(I0
g51
tp343
a(I0
g60
tp344
a(I0
g60
tp345
a(I0
g54
tp346
a(I0
g54
tp347
a(I0
g51
tp348
a(I0
g51
tp349
a(I0
g60
tp350
a(I0
g51
tp351
a(I0
g54
tp352
a(I0
g60
tp353
a(I0
g60
tp354
a(I0
g54
tp355
a(I0
g54
tp356
a(I0
g60
tp357
a(I0
g51
tp358
a(I0
g60
tp359
a(I0
g54
tp360
a(I0
g54
tp361
a(I0
g60
tp362
a(I0
g60
tp363
a(I0
g54
tp364
a(I0
g54
tp365
a(I0
g60
tp366
a(I0
g60
tp367
a(I0
g54
tp368
a(I0
g54
tp369
a(I0
g60
tp370
a(I0
g60
tp371
a(I0
g54
tp372
a(I0
g54
tp373
a(I0
g60
tp374
a(I0
g60
tp375
a(I0
g54
tp376
a(I0
g54
tp377
a(I0
g60
tp378
a(I0
g60
tp379
a(I0
g54
tp380
a(I0
g54
tp381
a(I0
g60
tp382
a(I0
g60
tp383
a(I0
g54
tp384
a(I0
g54
tp385
a(I0
g60
tp386
a(I0
g60
tp387
a(I0
g54
tp388
a(I0
g54
tp389
a(I0
g60
tp390
a(I0
g60
tp391
a(I0
g54
tp392
a(I0
g54
tp393
a(I0
g60
tp394
a(I0
g60
tp395
a(I0
g54
tp396
a(I0
g54
tp397
a(I0
g60
tp398
a(I0
g60
tp399
a(I0
g54
tp400
a(I0
g54
tp401
a(I0
g60
tp402
a(I0
g60
tp403
a(I0
g54
tp404
a(I0
g54
tp405
a(I0
g60
tp406
a(I0
g51
tp407
a(I0
g51
tp408
a(I0
g51
tp409
a(I0
g60
tp410
a(I0
g54
tp411
a(I0
g54
tp412
a(I0
g60
tp413
a(I0
g60
tp414
a(I0
g54
tp415
a(I0
g54
tp416
a(I0
g60
tp417
a(I0
g60
tp418
a(I0
g54
tp419
a(I0
g54
tp420
a(I0
g51
tp421
a(I0
g60
tp422
a(I0
g51
tp423
a(I0
g60
tp424
a(I0
g54
tp425
a(I0
g54
tp426
a(I0
g60
tp427
a(I0
g60
tp428
a(I0
g54
tp429
a(I0
g54
tp430
a(I0
g60
tp431
a(I0
g60
tp432
a(I0
g54
tp433
a(I0
g54
tp434
a(I0
g60
tp435
a(I0
g51
tp436
a(I0
g60
tp437
a(I0
g54
tp438
a(I0
g54
tp439
a(I0
g60
tp440
a(I0
g60
tp441
a(I0
g51
tp442
a(I0
g54
tp443
a(I0
g54
tp444
a(I0
g51
tp445
a(I0
g51
tp446
a(I0
g51
tp447
a(I0
g60
tp448
a(I0
g60
tp449
a(I0
g54
tp450
a(I0
g54
tp451
a(I0
g60
tp452
a(I0
g60
tp453
a(I0
g54
tp454
a(I0
g54
tp455
a(I0
g51
tp456
a(I0
g51
tp457
a(I0
g51
tp458
a(I0
g60
tp459
a(I0
g51
tp460
a(I0
g51
tp461
a(I0
g51
tp462
a(I0
g51
tp463
a(I0
g60
tp464
a(I0
g54
tp465
a(I0
g54
tp466
a(I0
g60
tp467
a(I0
g60
tp468
a(I0
g54
tp469
a(I0
g54
tp470
a(I0
g60
tp471
a(I0
g60
tp472
a(I0
g54
tp473
a(I0
g54
tp474
a(I0
g51
tp475
a(I0
g51
tp476
a(I0
g51
tp477
a(I0
g51
tp478
a(I0
g51
tp479
a(I0
g51
tp480
a(I0
g51
tp481
a(I0
g51
tp482
a(I0
g54
tp483
a(I0
g51
tp484
a(I0
g60
tp485
a(I0
g54
tp486
a(I0
g60
tp487
a(I0
g54
tp488
a(I0
g60
tp489
a(I0
g54
tp490
a(I0
g60
tp491
a(I0
g60
tp492
a(I0
g51
tp493
a(I0
g51
tp494
a(I0
g51
tp495
a(I0
g51
tp496
a(I0
g51
tp497
a(I0
g54
tp498
a(I0
g60
tp499
a(I0
g51
tp500
a(I0
g51
tp501
a(I0
g51
tp502
a(I0
g51
tp503
a(I0
g51
tp504
a(I0
g60
tp505
a(I0
g54
tp506
a(I0
g54
tp507
a(I0
g51
tp508
a(I0
g51
tp509
a(I0
g60
tp510
a(I0
g51
tp511
a(I0
g51
tp512
a(I0
g51
tp513
a(I0
g51
tp514
a(I0
g51
tp515
a(I0
g51
tp516
a(I0
g51
tp517
a(I0
g51
tp518
a(I0
g51
tp519
a(I0
g51
tp520
a(I0
g54
tp521
a(I0
g54
tp522
a(I0
g60
tp523
a(I0
g54
tp524
a(I0
g60
tp525
a(I0
g60
tp526
a(I0
g54
tp527
a(I0
g51
tp528
a(I0
g60
tp529
a(I0
g51
tp530
a(I0
g51
tp531
a(I0
g51
tp532
a(I0
g51
tp533
a(I0
g51
tp534
a(I0
g51
tp535
a(I0
g51
tp536
a(I0
g51
tp537
a(I0
g51
tp538
a(I0
g51
tp539
a(I0
g51
tp540
a(I0
g51
tp541
a(I0
g51
tp542
a(I0
g54
tp543
a(I0
g54
tp544
a(I0
g60
tp545
a(I0
g60
tp546
a(I0
g54
tp547
a(I0
g51
tp548
a(I0
g51
tp549
a(I0
g51
tp550
a(I0
g51
tp551
a(I0
g51
tp552
a(I0
g51
tp553
a(I0
g51
tp554
a(I0
g51
tp555
a(I0
g51
tp556
a(I0
g51
tp557
a(I0
g54
tp558
a(I0
g51
tp559
a(I0
g60
tp560
a(I0
g54
tp561
a(I0
g60
tp562
a(I0
g54
tp563
a(I0
g60
tp564
a(I0
g60
tp565
a(I0
g51
tp566
a(I0
g51
tp567
a(I0
g54
tp568
a(I0
g54
tp569
a(I0
g60
tp570
a(I0
g54
tp571
a(I0
g60
tp572
a(I0
g54
tp573
a(I0
g60
tp574
a(I0
g54
tp575
a(I0
g60
tp576
a(I0
g54
tp577
a(I0
g51
tp578
a(I0
g60
tp579
a(I0
g54
tp580
a(I0
g60
tp581
a(I0
g54
tp582
a(I0
g60
tp583
a(I0
g54
tp584
a(I0
g60
tp585
a(I0
g54
tp586
a(I0
g60
tp587
a(I0
g54
tp588
a(I0
g60
tp589
a(I0
g54
tp590
a(I0
g60
tp591
a(I0
g60
tp592
a(I0
g54
tp593
a(I0
g51
tp594
a(I0
g60
tp595
a(I0
g51
tp596
a(I0
g60
tp597
a(I0
g54
tp598
a(I0
g54
tp599
a(I0
g60
tp600
a(I0
g60
tp601
a(I0
g54
tp602
a(I0
g54
tp603
a(I0
g60
tp604
a(I0
g60
tp605
a(I0
g54
tp606
a(I0
g54
tp607
a(I0
g60
tp608
a(I0
g60
tp609
a(I0
g54
tp610
a(I0
g54
tp611
a(I0
g60
tp612
a(I0
g60
tp613
a(I0
g54
tp614
a(I0
g54
tp615
a(I0
g51
tp616
a(I0
g51
tp617
a(I0
g51
tp618
a(I0
g51
tp619
a(I0
g51
tp620
a(I0
g51
tp621
a(I0
g51
tp622
a(I0
g51
tp623
a(I0
g51
tp624
a(I0
g60
tp625
a(I0
g60
tp626
a(I0
g54
tp627
a(I0
g54
tp628
a(I0
g60
tp629
a(I0
g60
tp630
a(I0
g54
tp631
a(I0
g54
tp632
a(I0
g60
tp633
a(I0
g60
tp634
a(I0
g54
tp635
a(I0
g54
tp636
a(I0
g60
tp637
a(I0
g60
tp638
a(I0
g54
tp639
a(I0
g54
tp640
a(I0
g60
tp641
a(I0
g51
tp642
a(I0
g51
tp643
a(I0
g51
tp644
a(I0
g51
tp645
a(I0
g51
tp646
a(I0
g51
tp647
a(I0
g51
tp648
a(I0
g51
tp649
a(I0
g51
tp650
a(I0
g51
tp651
a(I0
g51
tp652
a(I0
g51
tp653
a(I0
g51
tp654
a(I0
g51
tp655
a(I0
g51
tp656
a(I0
g51
tp657
a(I0
g51
tp658
a(I0
g51
tp659
a(I0
g51
tp660
a(I0
g51
tp661
a(I0
g51
tp662
a(I0
g51
tp663
a(I0
g51
tp664
a(I0
g51
tp665
a(I0
g51
tp666
a(I0
g51
tp667
a(I0
g51
tp668
a(I0
g51
tp669
a(I0
g51
tp670
a(I0
g60
tp671
a(I0
g54
tp672
a(I0
g54
tp673
a(I0
g51
tp674
a(I0
g54
tp675
a(I0
g60
tp676
a(I0
g54
tp677
a(I0
g60
tp678
a(I0
g54
tp679
a(I0
g60
tp680
a(I0
g54
tp681
a(I0
g51
tp682
a(I0
g60
tp683
a(I0
g60
tp684
a(I0
g51
tp685
a(I0
g51
tp686
a(I0
g51
tp687
a(I0
g51
tp688
a(I0
g51
tp689
a(I0
g51
tp690
a(I0
g51
tp691
a(I0
g51
tp692
a(I0
g51
tp693
a(I0
g51
tp694
a(I0
g51
tp695
a(I0
g51
tp696
a(I0
g51
tp697
a(I0
g51
tp698
a(I0
g51
tp699
a(I0
g51
tp700
a(I0
g51
tp701
a(I0
g51
tp702
a(I0
g51
tp703
a(I0
g51
tp704
a(I0
g51
tp705
a(I0
g51
tp706
a(I0
g54
tp707
a(I0
g54
tp708
a(I0
g60
tp709
a(I0
g54
tp710
a(I0
g56
tp711
a(I0
g56
tp712
a(I0
g58
tp713
a(I0
g58
tp714
a(I0
g56
tp715
a(I0
g56
tp716
a(I0
g58
tp717
a(I0
g58
tp718
a(I0
g56
tp719
a(I0
g56
tp720
a(I0
g56
tp721
a(I0
g58
tp722
a(I0
g58
tp723
a(I0
g56
tp724
a(I0
g58
tp725
a(I0
g58
tp726
a(I0
g51
tp727
a(I0
g56
tp728
a(I0
g56
tp729
a(I0
g58
tp730
a(I0
g58
tp731
a(I0
g60
tp732
a(I0
g60
tp733
a(I0
g54
tp734
a(I0
g51
tp735
a(I0
g54
tp736
a(I0
g60
tp737
a(I0
g54
tp738
a(I0
g60
tp739
a(I0
g54
tp740
a(I0
g60
tp741
a(I0
g54
tp742
a(I0
g51
tp743
a(I0
g51
tp744
a(I0
g60
tp745
a(I0
g51
tp746
a(I0
g54
tp747
a(I0
g51
tp748
a(I0
g51
tp749
a(I0
g51
tp750
a(I0
g51
tp751
a(I0
g51
tp752
a(I0
g51
tp753
a(I0
g51
tp754
a(I0
g51
tp755
a(I0
g51
tp756
a(I0
g51
tp757
a(I0
g51
tp758
a(I0
g51
tp759
a(I0
g51
tp760
a(I0
g51
tp761
a(I0
g51
tp762
a(I0
g51
tp763
a(I0
g51
tp764
a(I0
g51
tp765
a(I0
g51
tp766
a(I0
g51
tp767
a(I0
g51
tp768
a(I0
g51
tp769
a(I0
g51
tp770
a(I0
g51
tp771
a(I0
g51
tp772
a(I0
g51
tp773
a(I0
g51
tp774
a(I0
g51
tp775
a(I0
g51
tp776
a(I0
g51
tp777
a(I0
g51
tp778
a(I0
g51
tp779
a(I0
g51
tp780
a(I0
g51
tp781
a(I0
g51
tp782
a(I0
g51
tp783
a(I0
g56
tp784
a(I0
g56
tp785
a(I0
g56
tp786
a(I0
g58
tp787
a(I0
g58
tp788
a(I0
g56
tp789
a(I0
g51
tp790
a(I0
g56
tp791
a(I0
g58
tp792
a(I0
g51
tp793
a(I0
g51
tp794
a(I0
g58
tp795
a(I0
g56
tp796
a(I0
g56
tp797
a(I0
g58
tp798
a(I0
g58
tp799
a(I0
g58
tp800
a(I0
g56
tp801
a(I0
g56
tp802
a(I0
g58
tp803
a(I0
g58
tp804
a(I0
g56
tp805
a(I0
g51
tp806
a(I0
g56
tp807
a(I0
g58
tp808
a(I0
g58
tp809
a(I0
g60
tp810
a(I0
g54
tp811
a(I0
g60
tp812
a(I0
g54
tp813
a(I0
g60
tp814
a(I0
g54
tp815
a(I0
g51
tp816
a(I0
g60
tp817
a(I0
g51
tp818
a(I0
g54
tp819
a(I0
g51
tp820
a(I0
g60
tp821
a(I0
g54
tp822
a(I0
g51
tp823
a(I0
g51
tp824
a(I0
g51
tp825
a(I0
g51
tp826
a(I0
g51
tp827
a(I0
g51
tp828
a(I0
g51
tp829
a(I0
g51
tp830
a(I0
g51
tp831
a(I0
g51
tp832
a(I0
g51
tp833
a(I0
g51
tp834
a(I0
g51
tp835
a(I0
g51
tp836
a(I0
g51
tp837
a(I0
g51
tp838
a(I0
g51
tp839
a(I0
g60
tp840
a(I0
g51
tp841
a(I0
g54
tp842
a(I0
g51
tp843
a(I0
g51
tp844
a(I0
g51
tp845
a(I0
g51
tp846
a(I0
g51
tp847
a(I0
g51
tp848
a(I0
g60
tp849
a(I0
g54
tp850
a(I0
g60
tp851
a(I0
g54
tp852
a(I0
g60
tp853
a(I0
g60
tp854
a(I0
g51
tp855
a(I0
g60
tp856
a(I0
g54
tp857
a(I0
g54
tp858
a(I0
g51
tp859
a(I0
g51
tp860
a(I0
g51
tp861
a(I0
g51
tp862
a(I0
g51
tp863
a(I0
g51
tp864
a(I0
g51
tp865
a(I0
g54
tp866
a(I0
g60
tp867
a(I0
g54
tp868
a(I0
g60
tp869
a(I0
g54
tp870
a(I0
g60
tp871
a(I0
g54
tp872
a(I0
g60
tp873
a(I0
g54
tp874
a(I0
g60
tp875
a(I0
g54
tp876
a(I0
g60
tp877
a(I0
g54
tp878
a(I0
g60
tp879
a(I0
g54
tp880
a(I0
g60
tp881
a(I0
g54
tp882
a(I0
g60
tp883
a(I0
g54
tp884
a(I0
g56
tp885
a(I0
g56
tp886
a(I0
g58
tp887
a(I0
g56
tp888
a(I0
g58
tp889
a(I0
g56
tp890
a(I0
g56
tp891
a(I0
g58
tp892
a(I0
g58
tp893
a(I0
g56
tp894
a(I0
g56
tp895
a(I0
g58
tp896
a(I0
g58
tp897
a(I0
g56
tp898
a(I0
g56
tp899
a(I0
g58
tp900
a(I0
g58
tp901
a(I0
g56
tp902
a(I0
g56
tp903
a(I0
g51
tp904
a(I0
g51
tp905
a(I0
g51
tp906
a(I0
g51
tp907
a(I0
g51
tp908
a(I0
g51
tp909
a(I0
g51
tp910
a(I0
g51
tp911
a(I0
g51
tp912
a(I0
g51
tp913
a(I0
g51
tp914
a(I0
g51
tp915
a(I0
g51
tp916
a(I0
g51
tp917
a(I0
g51
tp918
a(I0
g51
tp919
a(I0
g51
tp920
a(I0
g51
tp921
a(I0
g58
tp922
a(I0
g58
tp923
a(I0
g56
tp924
a(I0
g58
tp925
a(I0
g58
tp926
a(I0
g56
tp927
a(I0
g56
tp928
a(I0
g58
tp929
a(I0
g58
tp930
a(I0
g56
tp931
a(I0
g56
tp932
a(I0
g58
tp933
a(I0
g58
tp934
a(I0
g56
tp935
a(I0
g56
tp936
a(I0
g58
tp937
a(I0
g58
tp938
a(I0
g56
tp939
a(I0
g58
tp940
a(I0
g60
tp941
a(I0
g60
tp942
a(I0
g51
tp943
a(I0
g51
tp944
a(I0
g51
tp945
a(I0
g54
tp946
a(I0
g51
tp947
a(I0
g51
tp948
a(I0
g51
tp949
a(I0
g60
tp950
a(I0
g51
tp951
a(I0
g51
tp952
a(I0
g51
tp953
a(I0
g51
tp954
a(I0
g51
tp955
a(I0
g51
tp956
a(I0
g51
tp957
a(I0
g51
tp958
a(I0
g51
tp959
a(I0
g51
tp960
a(I0
g54
tp961
a(I0
g51
tp962
a(I0
g51
tp963
a(I0
g54
tp964
a(I0
g51
tp965
a(I0
g51
tp966
a(I0
g51
tp967
a(I0
g51
tp968
a(I0
g51
tp969
a(I0
g51
tp970
a(I0
g60
tp971
a(I0
g54
tp972
a(I0
g60
tp973
a(I0
g54
tp974
a(I0
g60
tp975
a(I0
g54
tp976
a(I0
g60
tp977
a(I0
g60
tp978
a(I0
g60
tp979
a(I0
g54
tp980
a(I0
g54
tp981
a(I0
g51
tp982
a(I0
g51
tp983
a(I0
g51
tp984
a(I0
g51
tp985
a(I0
g51
tp986
a(I0
g51
tp987
a(I0
g51
tp988
a(I0
g51
tp989
a(I0
g51
tp990
a(I0
g54
tp991
a(I0
g51
tp992
a(I0
g51
tp993
a(I0
g51
tp994
a(I0
g51
tp995
a(I0
g51
tp996
a(I0
g51
tp997
a(I0
g51
tp998
a(I0
g51
tp999
a(I0
g51
tp1000
a(I0
g56
tp1001
a(I0
g58
tp1002
a(I0
g56
tp1003
a(I0
g56
tp1004
a(I0
g58
tp1005
a(I0
g58
tp1006
a(I0
g56
tp1007
a(I0
g56
tp1008
a(I0
g51
tp1009
a(I0
g58
tp1010
a(I0
g58
tp1011
a(I0
g56
tp1012
a(I0
g56
tp1013
a(I0
g58
tp1014
a(I0
g58
tp1015
a(I0
g56
tp1016
a(I0
g56
tp1017
a(I0
g58
tp1018
a(I0
g58
tp1019
a(I0
g56
tp1020
a(I0
g56
tp1021
a(I0
g58
tp1022
a(I0
g58
tp1023
a(I0
g56
tp1024
a(I0
g56
tp1025
a(I0
g58
tp1026
a(I0
g56
tp1027
a(I0
g56
tp1028
a(I0
g51
tp1029
a(I0
g51
tp1030
a(I0
g51
tp1031
a(I0
g51
tp1032
a(I0
g51
tp1033
a(I0
g51
tp1034
a(I0
g51
tp1035
a(I0
g51
tp1036
a(I0
g51
tp1037
a(I0
g51
tp1038
a(I0
g51
tp1039
a(I0
g51
tp1040
a(I0
g51
tp1041
a(I0
g51
tp1042
a(I0
g51
tp1043
a(I0
g51
tp1044
a(I0
g51
tp1045
a(I0
g51
tp1046
a(I0
g51
tp1047
a(I0
g51
tp1048
a(I0
g51
tp1049
a(I0
g51
tp1050
a(I0
g51
tp1051
a(I0
g51
tp1052
a(I0
g51
tp1053
a(I0
g51
tp1054
a(I0
g51
tp1055
a(I0
g51
tp1056
a(I0
g51
tp1057
a(I0
g51
tp1058
a(I0
g51
tp1059
a(I0
g56
tp1060
a(I0
g60
tp1061
a(I0
g54
tp1062
a(I0
g60
tp1063
a(I0
g54
tp1064
a(I0
g60
tp1065
a(I0
g54
tp1066
a(I0
g60
tp1067
a(I0
g54
tp1068
a(I0
g60
tp1069
a(I0
g54
tp1070
a(I0
g60
tp1071
a(I0
g54
tp1072
a(I0
g60
tp1073
a(I0
g54
tp1074
a(I0
g51
tp1075
a(I0
g51
tp1076
a(I0
g51
tp1077
a(I0
g51
tp1078
a(I0
g60
tp1079
a(I0
g54
tp1080
a(I0
g51
tp1081
a(I0
g51
tp1082
a(I0
g51
tp1083
a(I0
g51
tp1084
a(I0
g51
tp1085
a(I0
g51
tp1086
a(I0
g51
tp1087
a(I0
g60
tp1088
a(I0
g54
tp1089
a(I0
g51
tp1090
a(I0
g51
tp1091
a(I0
g51
tp1092
a(I0
g51
tp1093
a(I0
g51
tp1094
a(I0
g51
tp1095
a(I0
g51
tp1096
a(I0
g51
tp1097
a(I0
g51
tp1098
a(I0
g51
tp1099
a(I0
g51
tp1100
a(I0
g51
tp1101
a(I0
g51
tp1102
a(I0
g51
tp1103
a(I0
g51
tp1104
a(I0
g51
tp1105
a(I0
g51
tp1106
a(I0
g51
tp1107
a(I0
g51
tp1108
a(I0
g51
tp1109
a(I0
g51
tp1110
a(I0
g51
tp1111
a(I0
g51
tp1112
a(I0
g51
tp1113
a(I0
g51
tp1114
a(I0
g51
tp1115
a(I0
g51
tp1116
a(I0
g51
tp1117
a(I0
g51
tp1118
a(I0
g51
tp1119
a(I0
g60
tp1120
a(I0
g54
tp1121
a(I0
g60
tp1122
a(I0
g54
tp1123
a(I0
g60
tp1124
a(I0
g54
tp1125
a(I0
g60
tp1126
a(I0
g54
tp1127
a(I0
g60
tp1128
a(I0
g54
tp1129
a(I0
g60
tp1130
a(I0
g54
tp1131
a(I0
g60
tp1132
a(I0
g51
tp1133
a(I0
g54
tp1134
a(I0
g60
tp1135
a(I0
g54
tp1136
a(I0
g51
tp1137
a(I0
g51
tp1138
a(I0
g60
tp1139
a(I0
g51
tp1140
a(I0
g51
tp1141
a(I0
g51
tp1142
a(I0
g54
tp1143
a(I0
g60
tp1144
a(I0
g54
tp1145
a(I0
g60
tp1146
a(I0
g54
tp1147
a(I0
g60
tp1148
a(I0
g54
tp1149
a(I0
g60
tp1150
a(I0
g54
tp1151
a(I0
g60
tp1152
a(I0
g54
tp1153
a(I0
g60
tp1154
a(I0
g54
tp1155
a(I0
g60
tp1156
a(I0
g54
tp1157
a(I0
g60
tp1158
a(I0
g54
tp1159
a(I0
g58
tp1160
a(I0
g51
tp1161
a(I0
g51
tp1162
a(I0
g51
tp1163
a(I0
g51
tp1164
a(I0
g51
tp1165
a(I0
g51
tp1166
a(I0
g51
tp1167
a(I0
g51
tp1168
a(I0
g51
tp1169
a(I0
g58
tp1170
a(I0
g51
tp1171
a(I0
g51
tp1172
a(I0
g51
tp1173
a(I0
g51
tp1174
a(I0
g51
tp1175
a(I0
g58
tp1176
a(I0
g58
tp1177
a(I0
g60
tp1178
a(I0
g60
tp1179
a(I0
g54
tp1180
a(I0
g54
tp1181
a(I0
g56
tp1182
a(I0
g56
tp1183
a(I0
g58
tp1184
a(I0
g58
tp1185
a(I0
g56
tp1186
a(I0
g56
tp1187
a(I0
g58
tp1188
a(I0
g58
tp1189
a(I0
g56
tp1190
a(I0
g58
tp1191
a(I0
g60
tp1192
a(I0
g60
tp1193
a(I0
g54
tp1194
a(I0
g51
tp1195
a(I0
g51
tp1196
a(I0
g54
tp1197
a(I0
g51
tp1198
a(I0
g51
tp1199
a(I0
g51
tp1200
a(I0
g56
tp1201
a(I0
g58
tp1202
a(I0
g60
tp1203
a(I0
g60
tp1204
a(I0
g54
tp1205
a(I0
g54
tp1206
a(I0
g51
tp1207
a(I0
g51
tp1208
a(I0
g56
tp1209
a(I0
g56
tp1210
a(I0
g58
tp1211
a(I0
g58
tp1212
a(I0
g56
tp1213
a(I0
g56
tp1214
a(I0
g58
tp1215
a(I0
g58
tp1216
a(I0
g56
tp1217
a(I0
g56
tp1218
a(I0
g51
tp1219
a(I0
g51
tp1220
a(I0
g51
tp1221
a(I0
g51
tp1222
a(I0
g56
tp1223
a(I0
g58
tp1224
a(I0
g58
tp1225
a(I0
g58
tp1226
a(I0
g56
tp1227
a(I0
g56
tp1228
a(I0
g58
tp1229
a(I0
g58
tp1230
a(I0
g56
tp1231
a(I0
g51
tp1232
a(I0
g56
tp1233
a(I0
g58
tp1234
a(I0
g58
tp1235
a(I0
g56
tp1236
a(I0
g58
tp1237
a(I0
g60
tp1238
a(I0
g60
tp1239
a(I0
g54
tp1240
a(I0
g54
tp1241
a(I0
g51
tp1242
a(I0
g51
tp1243
a(I0
g51
tp1244
a(I0
g51
tp1245
a(I0
g51
tp1246
a(I0
g56
tp1247
a(I0
g58
tp1248
a(I0
g60
tp1249
a(I0
g60
tp1250
a(I0
g54
tp1251
a(I0
g54
tp1252
a(I0
g51
tp1253
a(I0
g51
tp1254
a(I0
g51
tp1255
a(I0
g51
tp1256
a(I0
g56
tp1257
a(I0
g58
tp1258
a(I0
g56
tp1259
a(I0
g56
tp1260
a(I0
g58
tp1261
a(I0
g58
tp1262
a(I0
g56
tp1263
a(I0
g58
tp1264
a(I0
g56
tp1265
a(I0
g56
tp1266
a(I0
g58
tp1267
a(I0
g58
tp1268
a(I0
g56
tp1269
a(I0
g56
tp1270
a(I0
g58
tp1271
a(I0
g58
tp1272
a(I0
g56
tp1273
a(I0
g56
tp1274
a(I0
g58
tp1275
a(I0
g58
tp1276
a(I0
g56
tp1277
a(I0
g56
tp1278
a(I0
g58
tp1279
a(I0
g58
tp1280
a(I0
g56
tp1281
a(I0
g56
tp1282
a(I0
g51
tp1283
a(I0
g58
tp1284
a(I0
g58
tp1285
a(I0
g56
tp1286
a(I0
g56
tp1287
a(I0
g58
tp1288
a(I0
g58
tp1289
a(I0
g60
tp1290
a(I0
g54
tp1291
a(I0
g51
tp1292
a(I0
g51
tp1293
a(I0
g51
tp1294
a(I0
g51
tp1295
a(I0
g51
tp1296
a(I0
g60
tp1297
a(I0
g54
tp1298
a(I0
g60
tp1299
a(I0
g60
tp1300
a(I0
g51
tp1301
a(I0
g51
tp1302
a(I0
g54
tp1303
a(I0
g54
tp1304
a(I0
g51
tp1305
a(I0
g51
tp1306
a(I0
g60
tp1307
a(I0
g60
tp1308
a(I0
g54
tp1309
a(I0
g54
tp1310
a(I0
g51
tp1311
a(I0
g51
tp1312
a(I0
g51
tp1313
a(I0
g51
tp1314
a(I0
g51
tp1315
a(I0
g51
tp1316
a(I0
g60
tp1317
a(I0
g51
tp1318
a(I0
g54
tp1319
a(I0
g51
tp1320
a(I0
g60
tp1321
a(I0
g54
tp1322
a(I0
g60
tp1323
a(I0
g54
tp1324
a(I0
g60
tp1325
a(I0
g54
tp1326
a(I0
g56
tp1327
a(I0
g56
tp1328
a(I0
g58
tp1329
a(I0
g58
tp1330
a(I0
g51
tp1331
a(I0
g56
tp1332
a(I0
g56
tp1333
a(I0
g58
tp1334
a(I0
g58
tp1335
a(I0
g56
tp1336
a(I0
g56
tp1337
a(I0
g58
tp1338
a(I0
g58
tp1339
a(I0
g56
tp1340
a(I0
g56
tp1341
a(I0
g51
tp1342
a(I0
g58
tp1343
a(I0
g58
tp1344
a(I0
g56
tp1345
a(I0
g56
tp1346
a(I0
g58
tp1347
a(I0
g56
tp1348
a(I0
g58
tp1349
a(I0
g58
tp1350
a(I0
g56
tp1351
a(I0
g56
tp1352
a(I0
g58
tp1353
a(I0
g58
tp1354
a(I0
g56
tp1355
a(I0
g56
tp1356
a(I0
g58
tp1357
a(I0
g58
tp1358
a(I0
g56
tp1359
a(I0
g58
tp1360
a(I0
g56
tp1361
a(I0
g56
tp1362
a(I0
g58
tp1363
a(I0
g58
tp1364
a(I0
g60
tp1365
a(I0
g54
tp1366
a(I0
g51
tp1367
a(I0
g51
tp1368
a(I0
g60
tp1369
a(I0
g54
tp1370
a(I0
g51
tp1371
a(I0
g51
tp1372
a(I0
g51
tp1373
a(I0
g51
tp1374
a(I0
g51
tp1375
a(I0
g51
tp1376
a(I0
g51
tp1377
a(I0
g51
tp1378
a(I0
g51
tp1379
a(I0
g56
tp1380
a(I0
g56
tp1381
a(I0
g58
tp1382
a(I0
g58
tp1383
a(I0
g56
tp1384
a(I0
g56
tp1385
a(I0
g58
tp1386
a(I0
g58
tp1387
a(I0
g56
tp1388
a(I0
g56
tp1389
a(I0
g58
tp1390
a(I0
g58
tp1391
a(I0
g56
tp1392
a(I0
g56
tp1393
a(I0
g58
tp1394
a(I0
g56
tp1395
a(I0
g56
tp1396
a(I0
g58
tp1397
a(I0
g51
tp1398
a(I0
g51
tp1399
a(I0
g51
tp1400
a(I0
g51
tp1401
a(I0
g51
tp1402
a(I0
g51
tp1403
a(I0
g51
tp1404
a(I0
g51
tp1405
a(I0
g51
tp1406
a(I0
g51
tp1407
a(I0
g51
tp1408
a(I0
g51
tp1409
a(I0
g51
tp1410
a(I0
g51
tp1411
a(I0
g51
tp1412
a(I0
g51
tp1413
a(I0
g51
tp1414
a(I0
g51
tp1415
a(I0
g51
tp1416
a(I0
g51
tp1417
a(I0
g58
tp1418
a(I0
g58
tp1419
a(I0
g56
tp1420
a(I0
g51
tp1421
a(I0
g56
tp1422
a(I0
g58
tp1423
a(I0
g56
tp1424
a(I0
g56
tp1425
a(I0
g51
tp1426
a(I0
g51
tp1427
a(I0
g51
tp1428
a(I0
g51
tp1429
a(I0
g51
tp1430
a(I0
g58
tp1431
a(I0
g51
tp1432
a(I0
g51
tp1433
a(I0
g51
tp1434
a(I0
g51
tp1435
a(I0
g51
tp1436
a(I0
g51
tp1437
a(I0
g51
tp1438
a(I0
g51
tp1439
a(I0
g51
tp1440
a(I0
g51
tp1441
a(I0
g51
tp1442
a(I0
g51
tp1443
a(I0
g56
tp1444
a(I0
g58
tp1445
a(I0
g51
tp1446
a(I0
g51
tp1447
a(I0
g51
tp1448
a(I0
g51
tp1449
a(I0
g51
tp1450
a(I0
g51
tp1451
a(I0
g51
tp1452
a(I0
g51
tp1453
a(I0
g51
tp1454
a(I0
g51
tp1455
a(I0
g51
tp1456
a(I0
g51
tp1457
a(I0
g58
tp1458
a(I0
g56
tp1459
a(I0
g51
tp1460
a(I0
g51
tp1461
a(I0
g51
tp1462
a(I0
g58
tp1463
a(I0
g51
tp1464
a(I0
g58
tp1465
a(I0
g60
tp1466
a(I0
g54
tp1467
a(I0
g51
tp1468
a(I0
g51
tp1469
a(I0
g51
tp1470
a(I0
g51
tp1471
a(I0
g51
tp1472
a(I0
g51
tp1473
a(I0
g51
tp1474
a(I0
g51
tp1475
a(I0
g51
tp1476
a(I0
g51
tp1477
a(I0
g51
tp1478
a(I0
g51
tp1479
a(I0
g51
tp1480
a(I0
g51
tp1481
a(I0
g56
tp1482
a(I0
g51
tp1483
a(I0
g51
tp1484
a(I0
g58
tp1485
a(I0
g56
tp1486
a(I0
g56
tp1487
a(I0
g58
tp1488
a(I0
g58
tp1489
a(I0
g56
tp1490
a(I0
g56
tp1491
a(I0
g58
tp1492
a(I0
g58
tp1493
a(I0
g51
tp1494
a(I0
g56
tp1495
a(I0
g56
tp1496
a(I0
g58
tp1497
a(I0
g51
tp1498
a(I0
g58
tp1499
a(I0
g56
tp1500
a(I0
g56
tp1501
a(I0
g58
tp1502
a(I0
g58
tp1503
a(I0
g56
tp1504
a(I0
g56
tp1505
a(I0
g51
tp1506
a(I0
g51
tp1507
a(I0
g58
tp1508
a(I0
g58
tp1509
a(I0
g56
tp1510
a(I0
g56
tp1511
a(I0
g58
tp1512
a(I0
g58
tp1513
a(I0
g56
tp1514
a(I0
g58
tp1515
a(I0
g51
tp1516
a(I0
g51
tp1517
a(I0
g56
tp1518
a(I0
g58
tp1519
a(I0
g56
tp1520
a(I0
g58
tp1521
a(I0
g56
tp1522
a(I0
g56
tp1523
a(I0
g58
tp1524
a(I0
g58
tp1525
a(I0
g60
tp1526
a(I0
g60
tp1527
a(I0
g54
tp1528
a(I0
g54
tp1529
a(I0
g51
tp1530
a(I0
g51
tp1531
a(I0
g51
tp1532
a(I0
g51
tp1533
a(I0
g51
tp1534
a(I0
g51
tp1535
a(I0
g51
tp1536
a(I0
g56
tp1537
a(I0
g56
tp1538
a(I0
g58
tp1539
a(I0
g51
tp1540
a(I0
g51
tp1541
a(I0
g56
tp1542
a(I0
g51
tp1543
a(I0
g56
tp1544
a(I0
g58
tp1545
a(I0
g51
tp1546
a(I0
g51
tp1547
a(I0
g51
tp1548
a(I0
g51
tp1549
a(I0
g51
tp1550
a(I0
g51
tp1551
a(I0
g51
tp1552
a(I0
g51
tp1553
a(I0
g51
tp1554
a(I0
g51
tp1555
a(I0
g58
tp1556
a(I0
g56
tp1557
a(I0
g58
tp1558
a(I0
g58
tp1559
a(I0
g60
tp1560
a(I0
g51
tp1561
a(I0
g54
tp1562
a(I0
g60
tp1563
a(I0
g54
tp1564
a(I0
g60
tp1565
a(I0
g54
tp1566
a(I0
g60
tp1567
a(I0
g54
tp1568
a(I0
g60
tp1569
a(I0
g54
tp1570
a(I0
g60
tp1571
a(I0
g54
tp1572
a(I0
g60
tp1573
a(I0
g54
tp1574
a(I0
g60
tp1575
a(I0
g54
tp1576
a(I0
g60
tp1577
a(I0
g54
tp1578
a(I0
g60
tp1579
a(I0
g54
tp1580
a(I0
g60
tp1581
a(I0
g54
tp1582
a(I0
g56
tp1583
a(I0
g56
tp1584
a(I0
g58
tp1585
a(I0
g58
tp1586
a(I0
g56
tp1587
a(I0
g56
tp1588
a(I0
g58
tp1589
a(I0
g58
tp1590
a(I0
g56
tp1591
a(I0
g56
tp1592
a(I0
g58
tp1593
a(I0
g58
tp1594
a(I0
g51
tp1595
a(I0
g56
tp1596
a(I0
g56
tp1597
a(I0
g58
tp1598
a(I0
g58
tp1599
a(I0
g60
tp1600
a(I0
g54
tp1601
a(I0
g60
tp1602
a(I0
g54
tp1603
a(I0
g60
tp1604
a(I0
g54
tp1605
a(I0
g51
tp1606
a(I0
g51
tp1607
a(I0
g51
tp1608
a(I0
g60
tp1609
a(I0
g54
tp1610
a(I0
g60
tp1611
a(I0
g54
tp1612
a(I0
g60
tp1613
a(I0
g54
tp1614
a(I0
g51
tp1615
a(I0
g56
tp1616
a(I0
g58
tp1617
a(I0
g56
tp1618
a(I0
g51
tp1619
a(I0
g51
tp1620
a(I0
g51
tp1621
a(I0
g56
tp1622
a(I0
g58
tp1623
a(I0
g58
tp1624
a(I0
g56
tp1625
a(I0
g56
tp1626
a(I0
g58
tp1627
a(I0
g56
tp1628
a(I0
g56
tp1629
a(I0
g58
tp1630
a(I0
g58
tp1631
a(I0
g58
tp1632
a(I0
g56
tp1633
a(I0
g56
tp1634
a(I0
g56
tp1635
a(I0
g58
tp1636
a(I0
g58
tp1637
a(I0
g56
tp1638
a(I0
g58
tp1639
a(I0
g58
tp1640
a(I0
g56
tp1641
a(I0
g56
tp1642
a(I0
g58
tp1643
a(I0
g58
tp1644
a(I0
g56
tp1645
a(I0
g56
tp1646
a(I0
g58
tp1647
a(I0
g58
tp1648
a(I0
g56
tp1649
a(I0
g56
tp1650
a(I0
g58
tp1651
a(I0
g58
tp1652
a(I0
g56
tp1653
a(I0
g56
tp1654
a(I0
g58
tp1655
a(I0
g58
tp1656
a(I0
g56
tp1657
a(I0
g56
tp1658
a(I0
g58
tp1659
a(I0
g58
tp1660
a(I0
g56
tp1661
a(I0
g56
tp1662
a(I0
g58
tp1663
a(I0
g58
tp1664
a(I0
g56
tp1665
a(I0
g56
tp1666
a(I0
g58
tp1667
a(I0
g58
tp1668
a(I0
g56
tp1669
a(I0
g56
tp1670
a(I0
g58
tp1671
a(I0
g58
tp1672
a(I0
g56
tp1673
a(I0
g56
tp1674
a(I0
g58
tp1675
a(I0
g58
tp1676
a(I0
g56
tp1677
a(I0
g56
tp1678
a(I0
g58
tp1679
a(I0
g58
tp1680
a(I0
g60
tp1681
a(I0
g54
tp1682
a(I0
g60
tp1683
a(I0
g60
tp1684
a(I0
g51
tp1685
a(I0
g54
tp1686
a(I0
g51
tp1687
a(I0
g51
tp1688
a(I0
g51
tp1689
a(I0
g51
tp1690
a(I0
g51
tp1691
a(I0
g51
tp1692
a(I0
g51
tp1693
a(I0
g51
tp1694
a(I0
g51
tp1695
a(I0
g51
tp1696
a(I0
g51
tp1697
a(I0
g51
tp1698
a(I0
g54
tp1699
a(I0
g51
tp1700
a(I0
g51
tp1701
a(I0
g51
tp1702
a(I0
g51
tp1703
a(I0
g51
tp1704
a(I0
g51
tp1705
a(I0
g51
tp1706
a(I0
g51
tp1707
a(I0
g51
tp1708
a(I0
g51
tp1709
a(I0
g51
tp1710
a(I0
g51
tp1711
a(I0
g51
tp1712
a(I0
g56
tp1713
a(I0
g56
tp1714
a(I0
g58
tp1715
a(I0
g58
tp1716
a(I0
g56
tp1717
a(I0
g56
tp1718
a(I0
g58
tp1719
a(I0
g58
tp1720
a(I0
g56
tp1721
a(I0
g56
tp1722
a(I0
g58
tp1723
a(I0
g58
tp1724
a(I0
g56
tp1725
a(I0
g56
tp1726
a(I0
g58
tp1727
a(I0
g58
tp1728
a(I0
g56
tp1729
a(I0
g56
tp1730
a(I0
g58
tp1731
a(I0
g58
tp1732
a(I0
g56
tp1733
a(I0
g56
tp1734
a(I0
g58
tp1735
a(I0
g58
tp1736
a(I0
g56
tp1737
a(I0
g56
tp1738
a(I0
g58
tp1739
a(I0
g58
tp1740
a(I0
g51
tp1741
a(I0
g56
tp1742
a(I0
g56
tp1743
a(I0
g58
tp1744
a(I0
g58
tp1745
a(I0
g56
tp1746
a(I0
g56
tp1747
a(I0
g58
tp1748
a(I0
g58
tp1749
a(I0
g56
tp1750
a(I0
g56
tp1751
a(I0
g58
tp1752
a(I0
g56
tp1753
a(I0
g56
tp1754
a(I0
g58
tp1755
a(I0
g51
tp1756
a(I0
g51
tp1757
a(I0
g51
tp1758
a(I0
g51
tp1759
a(I0
g51
tp1760
a(I0
g51
tp1761
a(I0
g58
tp1762
a(I0
g56
tp1763
a(I0
g58
tp1764
a(I0
g58
tp1765
a(I0
g56
tp1766
a(I0
g56
tp1767
as.