(dp1
S'layout'
p2
(ilayout
Layout
p3
(dp4
S'capsules'
p5
(lp6
sS'numGhosts'
p7
I1
sS'food'
p8
(igame
Grid
p9
(dp10
S'CELLS_PER_INT'
p11
I30
sS'width'
p12
I7
sS'data'
p13
(lp14
(lp15
I00
aI00
aI00
aI00
aI00
aI00
aI00
aa(lp16
I00
aI01
aI00
aI00
aI00
aI00
aI00
aa(lp17
I00
aI00
aI00
aI00
aI00
aI00
aI00
aa(lp18
I00
aI00
aI00
aI01
aI00
aI00
aI00
aa(lp19
I00
aI00
aI00
aI00
aI00
aI00
aI00
aa(lp20
I00
aI00
aI00
aI00
aI00
aI00
aI00
aa(lp21
I00
aI00
aI00
aI00
aI00
aI00
aI00
aasS'height'
p22
I7
sbsS'agentPositions'
p23
(lp24
(I01
(I2
I5
tp25
tp26
a(I00
(I3
I1
ttp27
asg22
I7
sg12
I7
sS'walls'
p28
(igame
Grid
p29
(dp30
g11
I30
sg12
I7
sg13
(lp31
(lp32
I01
aI01
aI01
aI01
aI01
aI01
aI01
aa(lp33
I01
aI00
aI00
aI00
aI00
aI00
aI01
aa(lp34
I01
aI00
aI01
aI01
aI01
aI00
aI01
aa(lp35
I01
aI00
aI01
aI00
aI01
aI00
aI01
aa(lp36
I01
aI00
aI01
aI00
aI01
aI00
aI01
aa(lp37
I01
aI00
aI00
aI00
aI00
aI00
aI01
aa(lp38
I01
aI01
aI01
aI01
aI01
aI01
aI01
aasg22
I7
sbsS'totalFood'
p39
I2
sS'layoutText'
p40
(lp41
S'%%%%%%%'
p42
aS'% P   %'
p43
aS'% %%% %'
p44
aS'% %.  %'
p45
aS'% %%% %'
p46
aS'%. G  %'
p47
aS'%%%%%%%'
p48
asbsS'actions'
p49
(lp50
(I0
S'West'
p51
tp52
a(I0
S'South'
p53
tp54
a(I0
g53
tp55
a(I0
g53
tp56
a(I0
g53
tp57
a(I0
S'East'
p58
tp59
a(I0
g51
tp60
a(I0
S'North'
p61
tp62
a(I0
g53
tp63
a(I0
g61
tp64
a(I0
g61
tp65
a(I0
g61
tp66
a(I0
g53
tp67
a(I0
g61
tp68
a(I0
S'Stop'
p69
tp70
a(I0
g61
tp71
a(I0
g53
tp72
a(I0
g69
tp73
a(I0
g53
tp74
a(I0
g53
tp75
a(I0
g53
tp76
a(I0
g69
tp77
a(I0
g58
tp78
a(I0
g51
tp79
a(I0
g58
tp80
a(I0
g69
tp81
a(I0
g69
tp82
a(I0
g51
tp83
a(I0
g69
tp84
a(I0
g69
tp85
a(I0
g58
tp86
a(I0
g69
tp87
a(I0
g51
tp88
a(I0
g69
tp89
a(I0
g61
tp90
a(I0
g53
tp91
a(I0
g58
tp92
a(I0
g58
tp93
a(I0
g69
tp94
a(I0
g69
tp95
a(I0
g51
tp96
a(I0
g69
tp97
a(I0
g69
tp98
a(I0
g51
tp99
a(I0
g61
tp100
a(I0
g53
tp101
a(I0
g58
tp102
a(I0
g51
tp103
a(I0
g61
tp104
a(I0
g61
tp105
a(I0
g61
tp106
a(I0
g53
tp107
a(I0
g61
tp108
a(I0
g61
tp109
a(I0
g69
tp110
a(I0
g53
tp111
a(I0
g53
tp112
a(I0
g53
tp113
a(I0
g61
tp114
a(I0
g53
tp115
a(I0
g53
tp116
a(I0
g61
tp117
a(I0
g53
tp118
a(I0
g61
tp119
a(I0
g61
tp120
a(I0
g61
tp121
a(I0
g53
tp122
a(I0
g53
tp123
a(I0
g61
tp124
a(I0
g53
tp125
a(I0
g53
tp126
a(I0
g61
tp127
a(I0
g61
tp128
a(I0
g53
tp129
a(I0
g69
tp130
a(I0
g61
tp131
a(I0
g53
tp132
a(I0
g61
tp133
a(I0
g53
tp134
a(I0
g61
tp135
a(I0
g53
tp136
a(I0
g61
tp137
a(I0
g53
tp138
a(I0
g53
tp139
a(I0
g61
tp140
a(I0
g61
tp141
a(I0
g53
tp142
a(I0
g69
tp143
a(I0
g61
tp144
a(I0
g53
tp145
a(I0
g53
tp146
a(I0
g58
tp147
a(I0
g58
tp148
a(I0
g51
tp149
a(I0
g51
tp150
a(I0
g61
tp151
a(I0
g53
tp152
a(I0
g61
tp153
a(I0
g61
tp154
a(I0
g53
tp155
a(I0
g69
tp156
a(I0
g53
tp157
a(I0
g61
tp158
a(I0
g53
tp159
a(I0
g58
tp160
a(I0
g58
tp161
a(I0
g51
tp162
a(I0
g51
tp163
a(I0
g61
tp164
a(I0
g53
tp165
a(I0
g58
tp166
a(I0
g58
tp167
a(I0
g51
tp168
a(I0
g58
tp169
a(I0
g69
tp170
a(I0
g69
tp171
a(I0
g58
tp172
a(I0
g51
tp173
a(I0
g69
tp174
a(I0
g69
tp175
a(I0
g69
tp176
a(I0
g69
tp177
a(I0
g69
tp178
a(I0
g69
tp179
a(I0
g69
tp180
a(I0
g69
tp181
a(I0
g69
tp182
a(I0
g69
tp183
a(I0
g69
tp184
a(I0
g69
tp185
a(I0
g69
tp186
a(I0
g69
tp187
a(I0
g69
tp188
a(I0
g69
tp189
a(I0
g51
tp190
a(I0
g58
tp191
a(I0
g69
tp192
a(I0
g51
tp193
a(I0
g69
tp194
a(I0
g58
tp195
a(I0
g58
tp196
a(I0
g58
tp197
a(I0
g51
tp198
a(I0
g51
tp199
a(I0
g58
tp200
a(I0
g58
tp201
a(I0
g51
tp202
a(I0
g51
tp203
a(I0
g69
tp204
a(I0
g69
tp205
a(I0
g58
tp206
a(I0
g58
tp207
a(I0
g51
tp208
a(I0
g51
tp209
a(I0
g58
tp210
a(I0
g58
tp211
a(I0
g51
tp212
a(I0
g51
tp213
a(I0
g58
tp214
a(I0
g58
tp215
a(I0
g51
tp216
a(I0
g51
tp217
a(I0
g58
tp218
a(I0
g69
tp219
a(I0
g58
tp220
a(I0
g51
tp221
a(I0
g51
tp222
a(I0
g58
tp223
a(I0
g69
tp224
a(I0
g58
tp225
a(I0
g51
tp226
a(I0
g51
tp227
a(I0
g51
tp228
a(I0
g58
tp229
a(I0
g69
tp230
a(I0
g69
tp231
a(I0
g58
tp232
a(I0
g51
tp233
a(I0
g51
tp234
a(I0
g58
tp235
a(I0
g58
tp236
a(I0
g51
tp237
a(I0
g69
tp238
a(I0
g69
tp239
a(I0
g51
tp240
a(I0
g58
tp241
a(I0
g69
tp242
a(I0
g58
tp243
a(I0
g51
tp244
a(I0
g58
tp245
a(I0
g69
tp246
a(I0
g51
tp247
a(I0
g69
tp248
a(I0
g51
tp249
a(I0
g51
tp250
a(I0
g61
tp251
a(I0
g53
tp252
a(I0
g61
tp253
a(I0
g53
tp254
a(I0
g69
tp255
a(I0
g58
tp256
a(I0
g58
tp257
a(I0
g58
tp258
a(I0
g58
tp259
a(I0
g51
tp260
a(I0
g51
tp261
a(I0
g69
tp262
a(I0
g69
tp263
a(I0
g69
tp264
a(I0
g51
tp265
a(I0
g58
tp266
a(I0
g58
tp267
a(I0
g51
tp268
a(I0
g51
tp269
a(I0
g51
tp270
a(I0
g69
tp271
a(I0
g58
tp272
a(I0
g58
tp273
a(I0
g51
tp274
a(I0
g69
tp275
a(I0
g69
tp276
a(I0
g69
tp277
a(I0
g69
tp278
a(I0
g69
tp279
a(I0
g58
tp280
a(I0
g58
tp281
a(I0
g51
tp282
a(I0
g58
tp283
a(I0
g51
tp284
a(I0
g51
tp285
a(I0
g51
tp286
a(I0
g61
tp287
a(I0
g53
tp288
a(I0
g61
tp289
a(I0
g53
tp290
a(I0
g58
tp291
a(I0
g51
tp292
a(I0
g58
tp293
a(I0
g58
tp294
a(I0
g69
tp295
a(I0
g69
tp296
a(I0
g58
tp297
a(I0
g51
tp298
a(I0
g58
tp299
a(I0
g58
tp300
a(I0
g51
tp301
a(I0
g51
tp302
a(I0
g69
tp303
a(I0
g58
tp304
a(I0
g58
tp305
a(I0
g51
tp306
a(I0
g51
tp307
a(I0
g58
tp308
a(I0
g58
tp309
a(I0
g51
tp310
a(I0
g51
tp311
a(I0
g69
tp312
a(I0
g58
tp313
a(I0
g58
tp314
a(I0
g51
tp315
a(I0
g51
tp316
a(I0
g58
tp317
a(I0
g58
tp318
a(I0
g51
tp319
a(I0
g51
tp320
a(I0
g58
tp321
a(I0
g58
tp322
a(I0
g51
tp323
a(I0
g51
tp324
a(I0
g58
tp325
a(I0
g58
tp326
a(I0
g51
tp327
a(I0
g51
tp328
a(I0
g58
tp329
a(I0
g69
tp330
a(I0
g58
tp331
a(I0
g51
tp332
a(I0
g51
tp333
a(I0
g51
tp334
a(I0
g58
tp335
a(I0
g58
tp336
a(I0
g51
tp337
a(I0
g51
tp338
a(I0
g58
tp339
a(I0
g69
tp340
a(I0
g58
tp341
a(I0
g58
tp342
a(I0
g51
tp343
a(I0
g51
tp344
a(I0
g51
tp345
a(I0
g58
tp346
a(I0
g58
tp347
a(I0
g51
tp348
a(I0
g69
tp349
a(I0
g69
tp350
a(I0
g51
tp351
a(I0
g51
tp352
a(I0
g61
tp353
a(I0
g53
tp354
a(I0
g69
tp355
a(I0
g69
tp356
a(I0
g61
tp357
a(I0
g53
tp358
a(I0
g58
tp359
a(I0
g58
tp360
a(I0
g58
tp361
a(I0
g51
tp362
a(I0
g58
tp363
a(I0
g69
tp364
a(I0
g69
tp365
a(I0
g51
tp366
a(I0
g58
tp367
a(I0
g51
tp368
a(I0
g51
tp369
a(I0
g58
tp370
a(I0
g58
tp371
a(I0
g51
tp372
a(I0
g51
tp373
a(I0
g51
tp374
a(I0
g69
tp375
a(I0
g58
tp376
a(I0
g51
tp377
a(I0
g58
tp378
a(I0
g51
tp379
a(I0
g58
tp380
a(I0
g58
tp381
a(I0
g58
tp382
a(I0
g51
tp383
a(I0
g69
tp384
a(I0
g51
tp385
a(I0
g51
tp386
a(I0
g58
tp387
a(I0
g51
tp388
a(I0
g69
tp389
a(I0
g69
tp390
a(I0
g61
tp391
a(I0
g61
tp392
a(I0
g53
tp393
a(I0
g53
tp394
a(I0
g61
tp395
a(I0
g69
tp396
a(I0
g69
tp397
a(I0
g69
tp398
a(I0
g61
tp399
a(I0
g69
tp400
a(I0
g69
tp401
a(I0
g53
tp402
a(I0
g69
tp403
a(I0
g69
tp404
a(I0
g69
tp405
a(I0
g69
tp406
a(I0
g69
tp407
a(I0
g69
tp408
a(I0
g53
tp409
a(I0
g61
tp410
a(I0
g53
tp411
a(I0
g61
tp412
a(I0
g53
tp413
a(I0
g61
tp414
a(I0
g69
tp415
a(I0
g61
tp416
a(I0
g69
tp417
a(I0
g69
tp418
a(I0
g69
tp419
a(I0
g69
tp420
a(I0
g69
tp421
a(I0
g69
tp422
a(I0
g61
tp423
a(I0
g61
tp424
a(I0
g58
tp425
a(I0
g69
tp426
a(I0
g58
tp427
a(I0
g51
tp428
a(I0
g58
tp429
a(I0
g51
tp430
a(I0
g51
tp431
a(I0
g53
tp432
a(I0
g61
tp433
a(I0
g53
tp434
a(I0
g53
tp435
a(I0
g69
tp436
a(I0
g69
tp437
a(I0
g69
tp438
a(I0
g69
tp439
a(I0
g69
tp440
a(I0
g69
tp441
a(I0
g69
tp442
a(I0
g69
tp443
a(I0
g69
tp444
a(I0
g69
tp445
a(I0
g69
tp446
a(I0
g69
tp447
a(I0
g69
tp448
a(I0
g69
tp449
a(I0
g61
tp450
a(I0
g69
tp451
a(I0
g69
tp452
a(I0
g53
tp453
a(I0
g61
tp454
a(I0
g61
tp455
a(I0
g58
tp456
a(I0
g69
tp457
a(I0
g51
tp458
a(I0
g53
tp459
a(I0
g61
tp460
a(I0
g58
tp461
a(I0
g69
tp462
a(I0
g69
tp463
a(I0
g51
tp464
a(I0
g58
tp465
a(I0
g51
tp466
a(I0
g58
tp467
a(I0
g58
tp468
a(I0
g51
tp469
a(I0
g51
tp470
a(I0
g53
tp471
a(I0
g53
tp472
a(I0
g69
tp473
a(I0
g69
tp474
a(I0
g53
tp475
a(I0
g69
tp476
a(I0
g53
tp477
a(I0
g69
tp478
a(I0
g58
tp479
a(I0
g58
tp480
a(I0
g58
tp481
a(I0
g58
tp482
a(I0
g51
tp483
a(I0
g51
tp484
a(I0
g58
tp485
a(I0
g58
tp486
a(I0
g51
tp487
a(I0
g51
tp488
a(I0
g58
tp489
a(I0
g58
tp490
a(I0
g51
tp491
a(I0
g51
tp492
a(I0
g58
tp493
a(I0
g58
tp494
a(I0
g51
tp495
a(I0
g51
tp496
a(I0
g58
tp497
a(I0
g58
tp498
a(I0
g51
tp499
a(I0
g51
tp500
a(I0
g58
tp501
a(I0
g58
tp502
a(I0
g51
tp503
a(I0
g51
tp504
a(I0
g58
tp505
a(I0
g58
tp506
a(I0
g51
tp507
a(I0
g51
tp508
a(I0
g58
tp509
a(I0
g58
tp510
a(I0
g51
tp511
a(I0
g51
tp512
a(I0
g58
tp513
a(I0
g58
tp514
a(I0
g69
tp515
a(I0
g69
tp516
a(I0
g51
tp517
a(I0
g51
tp518
a(I0
g58
tp519
a(I0
g58
tp520
a(I0
g51
tp521
a(I0
g51
tp522
a(I0
g58
tp523
a(I0
g58
tp524
a(I0
g69
tp525
a(I0
g69
tp526
a(I0
g69
tp527
a(I0
g69
tp528
a(I0
g69
tp529
a(I0
g69
tp530
a(I0
g69
tp531
a(I0
g69
tp532
a(I0
g69
tp533
a(I0
g69
tp534
a(I0
g69
tp535
a(I0
g69
tp536
a(I0
g69
tp537
a(I0
g51
tp538
a(I0
g51
tp539
a(I0
g58
tp540
a(I0
g58
tp541
a(I0
g51
tp542
a(I0
g51
tp543
a(I0
g58
tp544
a(I0
g58
tp545
a(I0
g51
tp546
a(I0
g51
tp547
a(I0
g58
tp548
a(I0
g69
tp549
a(I0
g69
tp550
a(I0
g69
tp551
a(I0
g58
tp552
a(I0
g51
tp553
a(I0
g51
tp554
a(I0
g51
tp555
a(I0
g58
tp556
a(I0
g69
tp557
a(I0
g58
tp558
a(I0
g58
tp559
a(I0
g51
tp560
a(I0
g51
tp561
a(I0
g58
tp562
a(I0
g58
tp563
a(I0
g51
tp564
a(I0
g69
tp565
a(I0
g69
tp566
a(I0
g51
tp567
a(I0
g58
tp568
a(I0
g58
tp569
a(I0
g51
tp570
a(I0
g51
tp571
a(I0
g58
tp572
a(I0
g58
tp573
a(I0
g69
tp574
a(I0
g51
tp575
a(I0
g51
tp576
a(I0
g58
tp577
a(I0
g51
tp578
a(I0
g58
tp579
a(I0
g58
tp580
a(I0
g69
tp581
a(I0
g61
tp582
a(I0
g69
tp583
a(I0
g69
tp584
a(I0
g69
tp585
a(I0
g69
tp586
a(I0
g69
tp587
a(I0
g69
tp588
a(I0
g69
tp589
a(I0
g69
tp590
a(I0
g69
tp591
a(I0
g69
tp592
a(I0
g69
tp593
a(I0
g69
tp594
a(I0
g69
tp595
a(I0
g53
tp596
a(I0
g51
tp597
a(I0
g69
tp598
a(I0
g69
tp599
a(I0
g69
tp600
a(I0
g51
tp601
a(I0
g58
tp602
a(I0
g58
tp603
a(I0
g69
tp604
a(I0
g69
tp605
a(I0
g69
tp606
a(I0
g69
tp607
a(I0
g69
tp608
a(I0
g69
tp609
a(I0
g51
tp610
a(I0
g51
tp611
a(I0
g58
tp612
a(I0
g58
tp613
a(I0
g51
tp614
a(I0
g51
tp615
a(I0
g58
tp616
a(I0
g58
tp617
a(I0
g51
tp618
a(I0
g51
tp619
a(I0
g58
tp620
a(I0
g58
tp621
a(I0
g51
tp622
a(I0
g51
tp623
a(I0
g58
tp624
a(I0
g69
tp625
a(I0
g58
tp626
a(I0
g51
tp627
a(I0
g51
tp628
a(I0
g58
tp629
a(I0
g58
tp630
a(I0
g51
tp631
a(I0
g51
tp632
a(I0
g58
tp633
a(I0
g58
tp634
a(I0
g69
tp635
a(I0
g51
tp636
a(I0
g51
tp637
a(I0
g58
tp638
a(I0
g58
tp639
a(I0
g51
tp640
a(I0
g51
tp641
a(I0
g58
tp642
a(I0
g58
tp643
a(I0
g51
tp644
a(I0
g51
tp645
a(I0
g58
tp646
a(I0
g58
tp647
a(I0
g51
tp648
a(I0
g51
tp649
a(I0
g58
tp650
a(I0
g58
tp651
a(I0
g51
tp652
a(I0
g51
tp653
a(I0
g58
tp654
a(I0
g58
tp655
a(I0
g51
tp656
a(I0
g51
tp657
a(I0
g58
tp658
a(I0
g58
tp659
a(I0
g51
tp660
a(I0
g51
tp661
a(I0
g58
tp662
a(I0
g69
tp663
a(I0
g58
tp664
a(I0
g51
tp665
a(I0
g51
tp666
a(I0
g51
tp667
a(I0
g58
tp668
a(I0
g69
tp669
a(I0
g69
tp670
a(I0
g69
tp671
a(I0
g69
tp672
a(I0
g69
tp673
a(I0
g69
tp674
a(I0
g69
tp675
a(I0
g69
tp676
a(I0
g69
tp677
a(I0
g58
tp678
a(I0
g51
tp679
a(I0
g58
tp680
a(I0
g58
tp681
a(I0
g51
tp682
a(I0
g51
tp683
a(I0
g51
tp684
a(I0
g58
tp685
a(I0
g69
tp686
a(I0
g69
tp687
a(I0
g58
tp688
a(I0
g51
tp689
a(I0
g58
tp690
a(I0
g51
tp691
a(I0
g69
tp692
a(I0
g58
tp693
a(I0
g58
tp694
a(I0
g51
tp695
a(I0
g51
tp696
a(I0
g58
tp697
a(I0
g58
tp698
a(I0
g69
tp699
a(I0
g69
tp700
a(I0
g51
tp701
a(I0
g51
tp702
a(I0
g58
tp703
a(I0
g58
tp704
a(I0
g51
tp705
a(I0
g51
tp706
a(I0
g58
tp707
a(I0
g58
tp708
a(I0
g51
tp709
a(I0
g51
tp710
a(I0
g58
tp711
a(I0
g58
tp712
a(I0
g51
tp713
a(I0
g51
tp714
a(I0
g69
tp715
a(I0
g69
tp716
a(I0
g51
tp717
a(I0
g58
tp718
a(I0
g69
tp719
a(I0
g51
tp720
a(I0
g69
tp721
a(I0
g58
tp722
a(I0
g69
tp723
a(I0
g58
tp724
a(I0
g69
tp725
a(I0
g58
tp726
a(I0
g51
tp727
a(I0
g51
tp728
a(I0
g58
tp729
a(I0
g58
tp730
a(I0
g51
tp731
a(I0
g51
tp732
a(I0
g58
tp733
a(I0
g69
tp734
a(I0
g58
tp735
a(I0
g51
tp736
a(I0
g51
tp737
a(I0
g58
tp738
a(I0
g69
tp739
a(I0
g69
tp740
a(I0
g58
tp741
a(I0
g51
tp742
a(I0
g51
tp743
a(I0
g58
tp744
a(I0
g58
tp745
a(I0
g51
tp746
a(I0
g51
tp747
a(I0
g58
tp748
a(I0
g69
tp749
a(I0
g69
tp750
a(I0
g69
tp751
a(I0
g69
tp752
a(I0
g58
tp753
a(I0
g51
tp754
a(I0
g51
tp755
a(I0
g58
tp756
a(I0
g58
tp757
a(I0
g51
tp758
a(I0
g51
tp759
a(I0
g58
tp760
a(I0
g58
tp761
a(I0
g51
tp762
a(I0
g51
tp763
a(I0
g58
tp764
a(I0
g69
tp765
a(I0
g69
tp766
a(I0
g58
tp767
a(I0
g51
tp768
a(I0
g51
tp769
a(I0
g69
tp770
a(I0
g58
tp771
a(I0
g58
tp772
a(I0
g51
tp773
a(I0
g51
tp774
a(I0
g58
tp775
a(I0
g58
tp776
a(I0
g51
tp777
a(I0
g51
tp778
a(I0
g58
tp779
a(I0
g58
tp780
a(I0
g51
tp781
a(I0
g51
tp782
a(I0
g58
tp783
a(I0
g69
tp784
a(I0
g69
tp785
a(I0
g69
tp786
a(I0
g69
tp787
a(I0
g58
tp788
a(I0
g51
tp789
a(I0
g51
tp790
a(I0
g58
tp791
a(I0
g69
tp792
a(I0
g58
tp793
a(I0
g51
tp794
a(I0
g51
tp795
a(I0
g58
tp796
a(I0
g58
tp797
a(I0
g51
tp798
a(I0
g51
tp799
a(I0
g58
tp800
a(I0
g58
tp801
a(I0
g51
tp802
a(I0
g51
tp803
a(I0
g58
tp804
a(I0
g69
tp805
a(I0
g58
tp806
a(I0
g69
tp807
a(I0
g51
tp808
a(I0
g51
tp809
a(I0
g58
tp810
a(I0
g58
tp811
a(I0
g51
tp812
a(I0
g51
tp813
a(I0
g69
tp814
a(I0
g58
tp815
a(I0
g58
tp816
a(I0
g51
tp817
a(I0
g51
tp818
a(I0
g58
tp819
a(I0
g58
tp820
a(I0
g51
tp821
a(I0
g51
tp822
a(I0
g58
tp823
a(I0
g58
tp824
a(I0
g51
tp825
a(I0
g51
tp826
a(I0
g58
tp827
a(I0
g58
tp828
a(I0
g51
tp829
a(I0
g51
tp830
a(I0
g58
tp831
a(I0
g58
tp832
a(I0
g51
tp833
a(I0
g69
tp834
a(I0
g51
tp835
a(I0
g58
tp836
a(I0
g58
tp837
a(I0
g51
tp838
a(I0
g51
tp839
a(I0
g69
tp840
a(I0
g69
tp841
a(I0
g69
tp842
a(I0
g69
tp843
a(I0
g69
tp844
a(I0
g69
tp845
a(I0
g69
tp846
a(I0
g69
tp847
a(I0
g69
tp848
a(I0
g69
tp849
a(I0
g69
tp850
a(I0
g69
tp851
a(I0
g69
tp852
a(I0
g69
tp853
a(I0
g69
tp854
a(I0
g69
tp855
a(I0
g69
tp856
a(I0
g69
tp857
a(I0
g69
tp858
a(I0
g69
tp859
a(I0
g69
tp860
a(I0
g58
tp861
a(I0
g69
tp862
a(I0
g69
tp863
a(I0
g69
tp864
a(I0
g69
tp865
a(I0
g69
tp866
a(I0
g69
tp867
a(I0
g69
tp868
a(I0
g69
tp869
a(I0
g69
tp870
a(I0
g69
tp871
a(I0
g69
tp872
a(I0
g69
tp873
a(I0
g58
tp874
a(I0
g51
tp875
a(I0
g51
tp876
a(I0
g69
tp877
a(I0
g69
tp878
a(I0
g69
tp879
a(I0
g69
tp880
a(I0
g69
tp881
a(I0
g69
tp882
a(I0
g58
tp883
a(I0
g69
tp884
a(I0
g69
tp885
a(I0
g69
tp886
a(I0
g69
tp887
a(I0
g69
tp888
a(I0
g69
tp889
a(I0
g69
tp890
a(I0
g69
tp891
a(I0
g51
tp892
a(I0
g69
tp893
a(I0
g69
tp894
a(I0
g69
tp895
a(I0
g69
tp896
a(I0
g69
tp897
a(I0
g69
tp898
a(I0
g69
tp899
a(I0
g69
tp900
a(I0
g69
tp901
a(I0
g69
tp902
a(I0
g69
tp903
a(I0
g69
tp904
a(I0
g51
tp905
a(I0
g51
tp906
a(I0
g61
tp907
a(I0
g61
tp908
a(I0
g53
tp909
a(I0
g53
tp910
a(I0
g58
tp911
a(I0
g58
tp912
a(I0
g58
tp913
a(I0
g69
tp914
a(I0
g69
tp915
a(I0
g69
tp916
a(I0
g69
tp917
a(I0
g69
tp918
a(I0
g69
tp919
a(I0
g69
tp920
a(I0
g69
tp921
a(I0
g51
tp922
a(I0
g51
tp923
a(I0
g58
tp924
a(I0
g51
tp925
a(I0
g69
tp926
a(I0
g69
tp927
a(I0
g69
tp928
a(I0
g58
tp929
a(I0
g69
tp930
a(I0
g51
tp931
a(I0
g69
tp932
a(I0
g69
tp933
a(I0
g51
tp934
a(I0
g61
tp935
a(I0
g61
tp936
a(I0
g53
tp937
a(I0
g53
tp938
a(I0
g61
tp939
a(I0
g61
tp940
a(I0
g53
tp941
a(I0
g53
tp942
a(I0
g69
tp943
a(I0
g69
tp944
a(I0
g58
tp945
a(I0
g58
tp946
a(I0
g51
tp947
a(I0
g58
tp948
a(I0
g51
tp949
a(I0
g69
tp950
a(I0
g69
tp951
a(I0
g69
tp952
a(I0
g51
tp953
a(I0
g69
tp954
a(I0
g69
tp955
a(I0
g61
tp956
a(I0
g61
tp957
a(I0
g53
tp958
a(I0
g53
tp959
a(I0
g58
tp960
a(I0
g58
tp961
a(I0
g51
tp962
a(I0
g51
tp963
a(I0
g61
tp964
a(I0
g61
tp965
a(I0
g53
tp966
a(I0
g53
tp967
a(I0
g58
tp968
a(I0
g69
tp969
a(I0
g58
tp970
a(I0
g51
tp971
a(I0
g51
tp972
a(I0
g61
tp973
a(I0
g61
tp974
a(I0
g69
tp975
a(I0
g61
tp976
a(I0
g53
tp977
a(I0
g61
tp978
a(I0
g53
tp979
a(I0
g53
tp980
a(I0
g53
tp981
a(I0
g69
tp982
a(I0
g69
tp983
a(I0
g69
tp984
a(I0
g61
tp985
a(I0
g53
tp986
a(I0
g69
tp987
a(I0
g58
tp988
a(I0
g69
tp989
a(I0
g69
tp990
a(I0
g69
tp991
a(I0
g69
tp992
a(I0
g69
tp993
a(I0
g58
tp994
a(I0
g51
tp995
a(I0
g58
tp996
a(I0
g51
tp997
a(I0
g69
tp998
a(I0
g58
tp999
a(I0
g51
tp1000
a(I0
g51
tp1001
a(I0
g61
tp1002
a(I0
g61
tp1003
a(I0
g53
tp1004
a(I0
g53
tp1005
a(I0
g58
tp1006
a(I0
g69
tp1007
a(I0
g69
tp1008
a(I0
g51
tp1009
a(I0
g58
tp1010
a(I0
g51
tp1011
a(I0
g58
tp1012
a(I0
g69
tp1013
a(I0
g58
tp1014
a(I0
g51
tp1015
a(I0
g58
tp1016
a(I0
g58
tp1017
a(I0
g51
tp1018
a(I0
g51
tp1019
a(I0
g51
tp1020
a(I0
g61
tp1021
a(I0
g61
tp1022
a(I0
g53
tp1023
a(I0
g53
tp1024
a(I0
g69
tp1025
a(I0
g69
tp1026
a(I0
g69
tp1027
a(I0
g69
tp1028
a(I0
g69
tp1029
a(I0
g58
tp1030
a(I0
g58
tp1031
a(I0
g51
tp1032
a(I0
g51
tp1033
a(I0
g61
tp1034
a(I0
g69
tp1035
a(I0
g69
tp1036
a(I0
g69
tp1037
a(I0
g61
tp1038
a(I0
g61
tp1039
a(I0
g53
tp1040
a(I0
g53
tp1041
a(I0
g61
tp1042
a(I0
g69
tp1043
a(I0
g69
tp1044
a(I0
g69
tp1045
a(I0
g61
tp1046
a(I0
g69
tp1047
a(I0
g61
tp1048
a(I0
g69
tp1049
a(I0
g69
tp1050
a(I0
g69
tp1051
a(I0
g58
tp1052
a(I0
g51
tp1053
a(I0
g69
tp1054
a(I0
g69
tp1055
a(I0
g69
tp1056
a(I0
g69
tp1057
a(I0
g58
tp1058
a(I0
g51
tp1059
a(I0
g53
tp1060
a(I0
g61
tp1061
a(I0
g53
tp1062
a(I0
g53
tp1063
a(I0
g53
tp1064
a(I0
g61
tp1065
a(I0
g61
tp1066
a(I0
g53
tp1067
a(I0
g53
tp1068
a(I0
g53
tp1069
a(I0
g61
tp1070
a(I0
g53
tp1071
a(I0
g58
tp1072
a(I0
g69
tp1073
a(I0
g69
tp1074
a(I0
g51
tp1075
a(I0
g58
tp1076
a(I0
g51
tp1077
a(I0
g58
tp1078
a(I0
g51
tp1079
a(I0
g69
tp1080
a(I0
g58
tp1081
a(I0
g51
tp1082
a(I0
g58
tp1083
a(I0
g51
tp1084
a(I0
g58
tp1085
a(I0
g51
tp1086
a(I0
g58
tp1087
a(I0
g51
tp1088
a(I0
g58
tp1089
a(I0
g51
tp1090
a(I0
g58
tp1091
a(I0
g51
tp1092
a(I0
g58
tp1093
a(I0
g51
tp1094
a(I0
g58
tp1095
a(I0
g51
tp1096
a(I0
g58
tp1097
a(I0
g69
tp1098
a(I0
g69
tp1099
a(I0
g69
tp1100
a(I0
g69
tp1101
a(I0
g51
tp1102
a(I0
g58
tp1103
a(I0
g69
tp1104
a(I0
g58
tp1105
a(I0
g51
tp1106
a(I0
g58
tp1107
a(I0
g58
tp1108
a(I0
g51
tp1109
a(I0
g51
tp1110
a(I0
g58
tp1111
a(I0
g69
tp1112
a(I0
g58
tp1113
a(I0
g51
tp1114
a(I0
g51
tp1115
a(I0
g58
tp1116
a(I0
g69
tp1117
a(I0
g58
tp1118
a(I0
g69
tp1119
a(I0
g69
tp1120
a(I0
g69
tp1121
a(I0
g69
tp1122
a(I0
g69
tp1123
a(I0
g69
tp1124
a(I0
g51
tp1125
a(I0
g51
tp1126
a(I0
g51
tp1127
a(I0
g61
tp1128
a(I0
g61
tp1129
a(I0
g61
tp1130
a(I0
g53
tp1131
a(I0
g53
tp1132
a(I0
g61
tp1133
a(I0
g61
tp1134
a(I0
g53
tp1135
a(I0
g53
tp1136
a(I0
g61
tp1137
a(I0
g61
tp1138
a(I0
g53
tp1139
a(I0
g53
tp1140
a(I0
g61
tp1141
a(I0
g61
tp1142
a(I0
g53
tp1143
a(I0
g61
tp1144
a(I0
g53
tp1145
a(I0
g53
tp1146
a(I0
g61
tp1147
a(I0
g61
tp1148
a(I0
g69
tp1149
a(I0
g69
tp1150
a(I0
g53
tp1151
a(I0
g61
tp1152
a(I0
g61
tp1153
a(I0
g69
tp1154
a(I0
g69
tp1155
a(I0
g69
tp1156
a(I0
g69
tp1157
a(I0
g58
tp1158
a(I0
g58
tp1159
a(I0
g58
tp1160
a(I0
g51
tp1161
a(I0
g51
tp1162
a(I0
g51
tp1163
a(I0
g53
tp1164
a(I0
g53
tp1165
a(I0
g53
tp1166
a(I0
g61
tp1167
a(I0
g53
tp1168
a(I0
g53
tp1169
a(I0
g58
tp1170
a(I0
g69
tp1171
a(I0
g69
tp1172
a(I0
g51
tp1173
a(I0
g58
tp1174
a(I0
g58
tp1175
a(I0
g58
tp1176
a(I0
g51
tp1177
a(I0
g51
tp1178
a(I0
g58
tp1179
a(I0
g58
tp1180
a(I0
g51
tp1181
a(I0
g51
tp1182
a(I0
g58
tp1183
a(I0
g58
tp1184
a(I0
g51
tp1185
a(I0
g51
tp1186
a(I0
g58
tp1187
a(I0
g58
tp1188
a(I0
g51
tp1189
a(I0
g51
tp1190
a(I0
g58
tp1191
a(I0
g58
tp1192
a(I0
g51
tp1193
a(I0
g51
tp1194
a(I0
g58
tp1195
a(I0
g58
tp1196
a(I0
g51
tp1197
a(I0
g51
tp1198
a(I0
g58
tp1199
a(I0
g69
tp1200
a(I0
g69
tp1201
a(I0
g51
tp1202
a(I0
g58
tp1203
a(I0
g58
tp1204
a(I0
g51
tp1205
a(I0
g51
tp1206
a(I0
g58
tp1207
a(I0
g58
tp1208
a(I0
g51
tp1209
a(I0
g51
tp1210
a(I0
g58
tp1211
a(I0
g58
tp1212
a(I0
g51
tp1213
a(I0
g51
tp1214
a(I0
g58
tp1215
a(I0
g58
tp1216
a(I0
g51
tp1217
a(I0
g51
tp1218
a(I0
g69
tp1219
a(I0
g69
tp1220
a(I0
g58
tp1221
a(I0
g58
tp1222
a(I0
g51
tp1223
a(I0
g51
tp1224
a(I0
g58
tp1225
a(I0
g69
tp1226
a(I0
g69
tp1227
a(I0
g69
tp1228
a(I0
g69
tp1229
a(I0
g58
tp1230
a(I0
g51
tp1231
a(I0
g51
tp1232
a(I0
g58
tp1233
a(I0
g58
tp1234
a(I0
g51
tp1235
a(I0
g51
tp1236
a(I0
g58
tp1237
a(I0
g58
tp1238
a(I0
g51
tp1239
a(I0
g51
tp1240
a(I0
g58
tp1241
a(I0
g58
tp1242
a(I0
g51
tp1243
a(I0
g69
tp1244
a(I0
g51
tp1245
a(I0
g58
tp1246
a(I0
g69
tp1247
a(I0
g69
tp1248
a(I0
g58
tp1249
a(I0
g51
tp1250
a(I0
g51
tp1251
a(I0
g58
tp1252
a(I0
g58
tp1253
a(I0
g51
tp1254
a(I0
g51
tp1255
a(I0
g58
tp1256
a(I0
g58
tp1257
a(I0
g51
tp1258
a(I0
g51
tp1259
a(I0
g58
tp1260
a(I0
g58
tp1261
a(I0
g51
tp1262
a(I0
g51
tp1263
a(I0
g58
tp1264
a(I0
g58
tp1265
a(I0
g51
tp1266
a(I0
g51
tp1267
a(I0
g58
tp1268
a(I0
g58
tp1269
a(I0
g51
tp1270
a(I0
g51
tp1271
a(I0
g58
tp1272
a(I0
g69
tp1273
a(I0
g69
tp1274
a(I0
g69
tp1275
a(I0
g69
tp1276
a(I0
g69
tp1277
a(I0
g69
tp1278
a(I0
g69
tp1279
a(I0
g69
tp1280
a(I0
g69
tp1281
a(I0
g69
tp1282
a(I0
g58
tp1283
a(I0
g51
tp1284
a(I0
g51
tp1285
a(I0
g58
tp1286
a(I0
g58
tp1287
a(I0
g51
tp1288
a(I0
g51
tp1289
a(I0
g58
tp1290
a(I0
g58
tp1291
a(I0
g51
tp1292
a(I0
g51
tp1293
a(I0
g58
tp1294
a(I0
g69
tp1295
a(I0
g69
tp1296
a(I0
g58
tp1297
a(I0
g51
tp1298
a(I0
g51
tp1299
a(I0
g58
tp1300
a(I0
g58
tp1301
a(I0
g51
tp1302
a(I0
g51
tp1303
a(I0
g58
tp1304
a(I0
g69
tp1305
a(I0
g58
tp1306
a(I0
g51
tp1307
a(I0
g51
tp1308
a(I0
g58
tp1309
a(I0
g58
tp1310
a(I0
g51
tp1311
a(I0
g51
tp1312
a(I0
g58
tp1313
a(I0
g58
tp1314
a(I0
g51
tp1315
a(I0
g51
tp1316
a(I0
g58
tp1317
a(I0
g58
tp1318
a(I0
g51
tp1319
a(I0
g51
tp1320
a(I0
g58
tp1321
a(I0
g58
tp1322
a(I0
g51
tp1323
a(I0
g51
tp1324
a(I0
g69
tp1325
a(I0
g69
tp1326
a(I0
g58
tp1327
a(I0
g58
tp1328
a(I0
g51
tp1329
a(I0
g51
tp1330
a(I0
g58
tp1331
a(I0
g58
tp1332
a(I0
g51
tp1333
a(I0
g51
tp1334
a(I0
g58
tp1335
a(I0
g58
tp1336
a(I0
g51
tp1337
a(I0
g51
tp1338
a(I0
g69
tp1339
a(I0
g58
tp1340
a(I0
g69
tp1341
a(I0
g69
tp1342
a(I0
g69
tp1343
a(I0
g69
tp1344
a(I0
g51
tp1345
a(I0
g51
tp1346
a(I0
g58
tp1347
a(I0
g51
tp1348
a(I0
g58
tp1349
a(I0
g51
tp1350
a(I0
g58
tp1351
a(I0
g51
tp1352
a(I0
g58
tp1353
a(I0
g51
tp1354
a(I0
g58
tp1355
a(I0
g51
tp1356
a(I0
g58
tp1357
a(I0
g51
tp1358
a(I0
g58
tp1359
a(I0
g51
tp1360
a(I0
g58
tp1361
a(I0
g51
tp1362
a(I0
g58
tp1363
a(I0
g51
tp1364
a(I0
g58
tp1365
a(I0
g51
tp1366
a(I0
g58
tp1367
a(I0
g51
tp1368
a(I0
g69
tp1369
a(I0
g58
tp1370
a(I0
g51
tp1371
a(I0
g58
tp1372
a(I0
g51
tp1373
a(I0
g58
tp1374
a(I0
g51
tp1375
a(I0
g58
tp1376
a(I0
g51
tp1377
a(I0
g58
tp1378
a(I0
g51
tp1379
a(I0
g69
tp1380
a(I0
g61
tp1381
a(I0
g61
tp1382
a(I0
g61
tp1383
a(I0
g53
tp1384
a(I0
g53
tp1385
a(I0
g61
tp1386
a(I0
g69
tp1387
a(I0
g61
tp1388
a(I0
g53
tp1389
a(I0
g53
tp1390
a(I0
g61
tp1391
a(I0
g61
tp1392
a(I0
g53
tp1393
a(I0
g53
tp1394
a(I0
g61
tp1395
a(I0
g61
tp1396
a(I0
g53
tp1397
a(I0
g53
tp1398
a(I0
g61
tp1399
a(I0
g61
tp1400
a(I0
g61
tp1401
a(I0
g69
tp1402
a(I0
g53
tp1403
a(I0
g69
tp1404
a(I0
g69
tp1405
a(I0
g69
tp1406
a(I0
g69
tp1407
a(I0
g69
tp1408
a(I0
g69
tp1409
a(I0
g69
tp1410
a(I0
g69
tp1411
a(I0
g69
tp1412
a(I0
g69
tp1413
a(I0
g69
tp1414
a(I0
g53
tp1415
a(I0
g61
tp1416
a(I0
g53
tp1417
a(I0
g53
tp1418
a(I0
g61
tp1419
a(I0
g61
tp1420
a(I0
g61
tp1421
a(I0
g58
tp1422
a(I0
g51
tp1423
a(I0
g58
tp1424
a(I0
g51
tp1425
a(I0
g58
tp1426
a(I0
g51
tp1427
a(I0
g58
tp1428
a(I0
g51
tp1429
a(I0
g58
tp1430
a(I0
g51
tp1431
a(I0
g58
tp1432
a(I0
g51
tp1433
a(I0
g58
tp1434
a(I0
g58
tp1435
a(I0
g51
tp1436
a(I0
g69
tp1437
a(I0
g51
tp1438
a(I0
g69
tp1439
a(I0
g69
tp1440
a(I0
g69
tp1441
a(I0
g58
tp1442
a(I0
g51
tp1443
a(I0
g53
tp1444
a(I0
g69
tp1445
a(I0
g53
tp1446
a(I0
g53
tp1447
a(I0
g61
tp1448
a(I0
g61
tp1449
a(I0
g53
tp1450
a(I0
g53
tp1451
a(I0
g61
tp1452
a(I0
g61
tp1453
a(I0
g53
tp1454
a(I0
g61
tp1455
a(I0
g53
tp1456
a(I0
g69
tp1457
a(I0
g53
tp1458
a(I0
g61
tp1459
a(I0
g69
tp1460
a(I0
g53
tp1461
a(I0
g61
tp1462
a(I0
g61
tp1463
a(I0
g69
tp1464
a(I0
g53
tp1465
a(I0
g69
tp1466
a(I0
g53
tp1467
a(I0
g61
tp1468
a(I0
g69
tp1469
a(I0
g53
tp1470
a(I0
g69
tp1471
a(I0
g69
tp1472
a(I0
g61
tp1473
a(I0
g61
tp1474
a(I0
g53
tp1475
a(I0
g53
tp1476
a(I0
g61
tp1477
a(I0
g61
tp1478
a(I0
g53
tp1479
a(I0
g53
tp1480
a(I0
g69
tp1481
a(I0
g69
tp1482
a(I0
g69
tp1483
a(I0
g61
tp1484
a(I0
g61
tp1485
a(I0
g53
tp1486
a(I0
g61
tp1487
a(I0
g53
tp1488
a(I0
g53
tp1489
a(I0
g61
tp1490
a(I0
g61
tp1491
a(I0
g53
tp1492
a(I0
g53
tp1493
a(I0
g69
tp1494
a(I0
g61
tp1495
a(I0
g61
tp1496
a(I0
g53
tp1497
a(I0
g53
tp1498
a(I0
g69
tp1499
a(I0
g69
tp1500
a(I0
g61
tp1501
a(I0
g61
tp1502
a(I0
g53
tp1503
a(I0
g61
tp1504
a(I0
g61
tp1505
a(I0
g53
tp1506
a(I0
g53
tp1507
a(I0
g61
tp1508
a(I0
g61
tp1509
a(I0
g53
tp1510
a(I0
g53
tp1511
a(I0
g61
tp1512
a(I0
g61
tp1513
a(I0
g53
tp1514
a(I0
g53
tp1515
a(I0
g61
tp1516
a(I0
g53
tp1517
a(I0
g61
tp1518
a(I0
g61
tp1519
a(I0
g53
tp1520
a(I0
g69
tp1521
a(I0
g61
tp1522
a(I0
g53
tp1523
a(I0
g53
tp1524
a(I0
g61
tp1525
a(I0
g61
tp1526
a(I0
g58
tp1527
a(I0
g51
tp1528
a(I0
g53
tp1529
a(I0
g69
tp1530
a(I0
g69
tp1531
a(I0
g53
tp1532
a(I0
g61
tp1533
a(I0
g61
tp1534
a(I0
g53
tp1535
a(I0
g53
tp1536
a(I0
g53
tp1537
a(I0
g61
tp1538
a(I0
g53
tp1539
a(I0
g69
tp1540
a(I0
g69
tp1541
a(I0
g69
tp1542
a(I0
g61
tp1543
a(I0
g61
tp1544
a(I0
g53
tp1545
a(I0
g53
tp1546
a(I0
g69
tp1547
a(I0
g69
tp1548
a(I0
g69
tp1549
a(I0
g69
tp1550
a(I0
g69
tp1551
a(I0
g69
tp1552
a(I0
g61
tp1553
a(I0
g61
tp1554
a(I0
g53
tp1555
a(I0
g61
tp1556
a(I0
g61
tp1557
a(I0
g69
tp1558
a(I0
g53
tp1559
a(I0
g53
tp1560
a(I0
g53
tp1561
a(I0
g69
tp1562
a(I0
g69
tp1563
a(I0
g53
tp1564
a(I0
g58
tp1565
a(I0
g51
tp1566
a(I0
g58
tp1567
a(I0
g51
tp1568
a(I0
g58
tp1569
a(I0
g51
tp1570
a(I0
g58
tp1571
a(I0
g69
tp1572
a(I0
g69
tp1573
a(I0
g69
tp1574
a(I0
g69
tp1575
a(I0
g69
tp1576
a(I0
g69
tp1577
a(I0
g69
tp1578
a(I0
g69
tp1579
a(I0
g69
tp1580
a(I0
g69
tp1581
a(I0
g69
tp1582
a(I0
g51
tp1583
a(I0
g58
tp1584
a(I0
g51
tp1585
a(I0
g69
tp1586
a(I0
g61
tp1587
a(I0
g53
tp1588
a(I0
g61
tp1589
a(I0
g53
tp1590
a(I0
g61
tp1591
a(I0
g53
tp1592
a(I0
g61
tp1593
a(I0
g53
tp1594
a(I0
g61
tp1595
a(I0
g53
tp1596
a(I0
g69
tp1597
a(I0
g61
tp1598
a(I0
g53
tp1599
a(I0
g58
tp1600
a(I0
g58
tp1601
a(I0
g51
tp1602
a(I0
g69
tp1603
a(I0
g69
tp1604
a(I0
g69
tp1605
a(I0
g69
tp1606
a(I0
g51
tp1607
a(I0
g69
tp1608
a(I0
g58
tp1609
a(I0
g51
tp1610
a(I0
g69
tp1611
a(I0
g69
tp1612
a(I0
g58
tp1613
a(I0
g51
tp1614
a(I0
g58
tp1615
a(I0
g51
tp1616
a(I0
g58
tp1617
a(I0
g51
tp1618
a(I0
g69
tp1619
a(I0
g61
tp1620
a(I0
g69
tp1621
a(I0
g53
tp1622
a(I0
g61
tp1623
a(I0
g53
tp1624
a(I0
g61
tp1625
a(I0
g69
tp1626
a(I0
g53
tp1627
a(I0
g61
tp1628
a(I0
g53
tp1629
a(I0
g61
tp1630
a(I0
g53
tp1631
a(I0
g61
tp1632
a(I0
g53
tp1633
a(I0
g61
tp1634
a(I0
g53
tp1635
a(I0
g61
tp1636
a(I0
g53
tp1637
a(I0
g61
tp1638
a(I0
g53
tp1639
a(I0
g61
tp1640
a(I0
g53
tp1641
a(I0
g61
tp1642
a(I0
g53
tp1643
a(I0
g61
tp1644
a(I0
g53
tp1645
a(I0
g61
tp1646
a(I0
g53
tp1647
a(I0
g69
tp1648
a(I0
g69
tp1649
a(I0
g69
tp1650
a(I0
g61
tp1651
a(I0
g53
tp1652
a(I0
g61
tp1653
a(I0
g53
tp1654
a(I0
g61
tp1655
a(I0
g53
tp1656
a(I0
g58
tp1657
a(I0
g58
tp1658
a(I0
g51
tp1659
a(I0
g69
tp1660
a(I0
g69
tp1661
a(I0
g69
tp1662
a(I0
g69
tp1663
a(I0
g69
tp1664
a(I0
g69
tp1665
a(I0
g51
tp1666
a(I0
g61
tp1667
a(I0
g53
tp1668
a(I0
g61
tp1669
a(I0
g61
tp1670
a(I0
g61
tp1671
a(I0
g53
tp1672
a(I0
g61
tp1673
a(I0
g61
tp1674
a(I0
g53
tp1675
a(I0
g53
tp1676
a(I0
g61
tp1677
a(I0
g61
tp1678
a(I0
g53
tp1679
a(I0
g69
tp1680
a(I0
g61
tp1681
a(I0
g69
tp1682
a(I0
g69
tp1683
a(I0
g69
tp1684
a(I0
g69
tp1685
a(I0
g69
tp1686
a(I0
g53
tp1687
a(I0
g53
tp1688
a(I0
g61
tp1689
a(I0
g61
tp1690
a(I0
g53
tp1691
a(I0
g53
tp1692
a(I0
g61
tp1693
a(I0
g61
tp1694
a(I0
g53
tp1695
a(I0
g53
tp1696
a(I0
g61
tp1697
a(I0
g61
tp1698
a(I0
g53
tp1699
a(I0
g69
tp1700
a(I0
g61
tp1701
a(I0
g53
tp1702
a(I0
g53
tp1703
a(I0
g61
tp1704
a(I0
g61
tp1705
a(I0
g53
tp1706
a(I0
g53
tp1707
a(I0
g61
tp1708
a(I0
g53
tp1709
a(I0
g61
tp1710
a(I0
g53
tp1711
a(I0
g61
tp1712
a(I0
g61
tp1713
a(I0
g58
tp1714
a(I0
g51
tp1715
a(I0
g53
tp1716
a(I0
g61
tp1717
a(I0
g58
tp1718
a(I0
g58
tp1719
a(I0
g69
tp1720
a(I0
g69
tp1721
a(I0
g69
tp1722
a(I0
g58
tp1723
a(I0
g51
tp1724
a(I0
g58
tp1725
a(I0
g51
tp1726
a(I0
g51
tp1727
a(I0
g58
tp1728
a(I0
g58
tp1729
a(I0
g69
tp1730
a(I0
g51
tp1731
a(I0
g51
tp1732
a(I0
g58
tp1733
a(I0
g58
tp1734
a(I0
g58
tp1735
a(I0
g51
tp1736
a(I0
g69
tp1737
a(I0
g51
tp1738
a(I0
g58
tp1739
a(I0
g58
tp1740
a(I0
g51
tp1741
a(I0
g51
tp1742
a(I0
g58
tp1743
a(I0
g58
tp1744
a(I0
g51
tp1745
a(I0
g51
tp1746
a(I0
g58
tp1747
a(I0
g58
tp1748
a(I0
g51
tp1749
a(I0
g51
tp1750
a(I0
g69
tp1751
a(I0
g58
tp1752
a(I0
g58
tp1753
a(I0
g51
tp1754
a(I0
g51
tp1755
a(I0
g58
tp1756
a(I0
g58
tp1757
a(I0
g51
tp1758
a(I0
g51
tp1759
a(I0
g58
tp1760
a(I0
g51
tp1761
a(I0
g69
tp1762
a(I0
g69
tp1763
a(I0
g58
tp1764
a(I0
g58
tp1765
a(I0
g51
tp1766
a(I0
g51
tp1767
a(I0
g58
tp1768
a(I0
g58
tp1769
a(I0
g51
tp1770
a(I0
g51
tp1771
a(I0
g69
tp1772
a(I0
g69
tp1773
a(I0
g58
tp1774
a(I0
g58
tp1775
a(I0
g51
tp1776
a(I0
g51
tp1777
a(I0
g69
tp1778
a(I0
g69
tp1779
a(I0
g69
tp1780
a(I0
g69
tp1781
a(I0
g69
tp1782
a(I0
g69
tp1783
a(I0
g69
tp1784
a(I0
g69
tp1785
a(I0
g69
tp1786
a(I0
g69
tp1787
a(I0
g69
tp1788
a(I0
g69
tp1789
a(I0
g69
tp1790
a(I0
g69
tp1791
a(I0
g69
tp1792
a(I0
g69
tp1793
a(I0
g69
tp1794
a(I0
g69
tp1795
a(I0
g51
tp1796
a(I0
g58
tp1797
a(I0
g58
tp1798
a(I0
g51
tp1799
a(I0
g51
tp1800
a(I0
g58
tp1801
a(I0
g58
tp1802
a(I0
g51
tp1803
a(I0
g51
tp1804
a(I0
g58
tp1805
a(I0
g58
tp1806
a(I0
g51
tp1807
a(I0
g51
tp1808
a(I0
g58
tp1809
a(I0
g58
tp1810
a(I0
g51
tp1811
a(I0
g51
tp1812
a(I0
g58
tp1813
a(I0
g51
tp1814
a(I0
g69
tp1815
a(I0
g69
tp1816
a(I0
g69
tp1817
a(I0
g69
tp1818
a(I0
g58
tp1819
a(I0
g69
tp1820
a(I0
g69
tp1821
a(I0
g58
tp1822
a(I0
g51
tp1823
a(I0
g51
tp1824
a(I0
g58
tp1825
a(I0
g58
tp1826
a(I0
g51
tp1827
a(I0
g69
tp1828
a(I0
g69
tp1829
a(I0
g51
tp1830
a(I0
g69
tp1831
a(I0
g69
tp1832
a(I0
g69
tp1833
a(I0
g58
tp1834
a(I0
g69
tp1835
a(I0
g58
tp1836
a(I0
g51
tp1837
a(I0
g51
tp1838
a(I0
g69
tp1839
a(I0
g58
tp1840
a(I0
g58
tp1841
a(I0
g51
tp1842
a(I0
g51
tp1843
a(I0
g58
tp1844
a(I0
g69
tp1845
a(I0
g69
tp1846
a(I0
g69
tp1847
a(I0
g69
tp1848
a(I0
g69
tp1849
a(I0
g69
tp1850
a(I0
g69
tp1851
a(I0
g69
tp1852
a(I0
g69
tp1853
a(I0
g69
tp1854
a(I0
g69
tp1855
a(I0
g69
tp1856
a(I0
g69
tp1857
a(I0
g69
tp1858
a(I0
g69
tp1859
a(I0
g69
tp1860
a(I0
g69
tp1861
a(I0
g69
tp1862
a(I0
g69
tp1863
a(I0
g69
tp1864
a(I0
g69
tp1865
a(I0
g69
tp1866
a(I0
g69
tp1867
a(I0
g69
tp1868
a(I0
g69
tp1869
a(I0
g69
tp1870
a(I0
g51
tp1871
a(I0
g51
tp1872
a(I0
g69
tp1873
a(I0
g69
tp1874
a(I0
g69
tp1875
a(I0
g53
tp1876
a(I0
g53
tp1877
a(I0
g61
tp1878
a(I0
g61
tp1879
a(I0
g53
tp1880
a(I0
g53
tp1881
a(I0
g61
tp1882
a(I0
g69
tp1883
a(I0
g69
tp1884
a(I0
g69
tp1885
a(I0
g69
tp1886
a(I0
g61
tp1887
a(I0
g53
tp1888
a(I0
g53
tp1889
a(I0
g53
tp1890
a(I0
g69
tp1891
a(I0
g69
tp1892
a(I0
g69
tp1893
a(I0
g69
tp1894
a(I0
g69
tp1895
a(I0
g69
tp1896
a(I0
g69
tp1897
a(I0
g69
tp1898
a(I0
g69
tp1899
a(I0
g69
tp1900
a(I0
g69
tp1901
a(I0
g69
tp1902
a(I0
g69
tp1903
a(I0
g61
tp1904
a(I0
g69
tp1905
a(I0
g69
tp1906
a(I0
g69
tp1907
a(I0
g69
tp1908
a(I0
g69
tp1909
a(I0
g69
tp1910
as.