(dp1
S'layout'
p2
(ilayout
Layout
p3
(dp4
S'capsules'
p5
(lp6
sS'numGhosts'
p7
I1
sS'food'
p8
(igame
Grid
p9
(dp10
S'CELLS_PER_INT'
p11
I30
sS'width'
p12
I7
sS'data'
p13
(lp14
(lp15
I00
aI00
aI00
aI00
aI00
aI00
aI00
aa(lp16
I00
aI01
aI00
aI00
aI00
aI00
aI00
aa(lp17
I00
aI00
aI00
aI00
aI00
aI00
aI00
aa(lp18
I00
aI00
aI00
aI01
aI00
aI00
aI00
aa(lp19
I00
aI00
aI00
aI00
aI00
aI00
aI00
aa(lp20
I00
aI00
aI00
aI00
aI00
aI00
aI00
aa(lp21
I00
aI00
aI00
aI00
aI00
aI00
aI00
aasS'height'
p22
I7
sbsS'agentPositions'
p23
(lp24
(I01
(I2
I5
tp25
tp26
a(I00
(I3
I1
ttp27
asg22
I7
sg12
I7
sS'walls'
p28
(igame
Grid
p29
(dp30
g11
I30
sg12
I7
sg13
(lp31
(lp32
I01
aI01
aI01
aI01
aI01
aI01
aI01
aa(lp33
I01
aI00
aI00
aI00
aI00
aI00
aI01
aa(lp34
I01
aI00
aI01
aI01
aI01
aI00
aI01
aa(lp35
I01
aI00
aI01
aI00
aI01
aI00
aI01
aa(lp36
I01
aI00
aI01
aI00
aI01
aI00
aI01
aa(lp37
I01
aI00
aI00
aI00
aI00
aI00
aI01
aa(lp38
I01
aI01
aI01
aI01
aI01
aI01
aI01
aasg22
I7
sbsS'totalFood'
p39
I2
sS'layoutText'
p40
(lp41
S'%%%%%%%'
p42
aS'% P   %'
p43
aS'% %%% %'
p44
aS'% %.  %'
p45
aS'% %%% %'
p46
aS'%. G  %'
p47
aS'%%%%%%%'
p48
asbsS'actions'
p49
(lp50
(I0
S'West'
p51
tp52
a(I0
S'Stop'
p53
tp54
a(I0
g53
tp55
a(I0
S'East'
p56
tp57
a(I0
g51
tp58
a(I0
g53
tp59
a(I0
g53
tp60
a(I0
g53
tp61
a(I0
S'South'
p62
tp63
a(I0
g53
tp64
a(I0
g53
tp65
a(I0
g53
tp66
a(I0
g53
tp67
a(I0
g53
tp68
a(I0
g53
tp69
a(I0
g53
tp70
a(I0
g53
tp71
a(I0
g53
tp72
a(I0
g53
tp73
a(I0
g53
tp74
a(I0
S'North'
p75
tp76
a(I0
g53
tp77
a(I0
g53
tp78
a(I0
g53
tp79
a(I0
g53
tp80
a(I0
g53
tp81
a(I0
g53
tp82
a(I0
g53
tp83
a(I0
g53
tp84
a(I0
g53
tp85
a(I0
g53
tp86
a(I0
g53
tp87
a(I0
g53
tp88
a(I0
g53
tp89
a(I0
g53
tp90
a(I0
g53
tp91
a(I0
g53
tp92
a(I0
g53
tp93
a(I0
g53
tp94
a(I0
g62
tp95
a(I0
g62
tp96
a(I0
g53
tp97
a(I0
g53
tp98
a(I0
g53
tp99
a(I0
g53
tp100
a(I0
g53
tp101
a(I0
g53
tp102
a(I0
g53
tp103
a(I0
g53
tp104
a(I0
g53
tp105
a(I0
g75
tp106
a(I0
g53
tp107
a(I0
g53
tp108
a(I0
g53
tp109
a(I0
g53
tp110
a(I0
g53
tp111
a(I0
g53
tp112
a(I0
g53
tp113
a(I0
g53
tp114
a(I0
g53
tp115
a(I0
g53
tp116
a(I0
g53
tp117
a(I0
g53
tp118
a(I0
g53
tp119
a(I0
g53
tp120
a(I0
g53
tp121
a(I0
g53
tp122
a(I0
g53
tp123
a(I0
g53
tp124
a(I0
g53
tp125
a(I0
g53
tp126
a(I0
g53
tp127
a(I0
g53
tp128
a(I0
g53
tp129
a(I0
g53
tp130
a(I0
g53
tp131
a(I0
g53
tp132
a(I0
g75
tp133
a(I0
g53
tp134
a(I0
g53
tp135
a(I0
g53
tp136
a(I0
g53
tp137
a(I0
g53
tp138
a(I0
g53
tp139
a(I0
g53
tp140
a(I0
g53
tp141
a(I0
g53
tp142
a(I0
g53
tp143
a(I0
g53
tp144
a(I0
g53
tp145
a(I0
g53
tp146
a(I0
g53
tp147
a(I0
g53
tp148
a(I0
g53
tp149
a(I0
g53
tp150
a(I0
g53
tp151
a(I0
g53
tp152
a(I0
g53
tp153
a(I0
g53
tp154
a(I0
g53
tp155
a(I0
g53
tp156
a(I0
g53
tp157
a(I0
g53
tp158
a(I0
g53
tp159
a(I0
g53
tp160
a(I0
g53
tp161
a(I0
g56
tp162
a(I0
g51
tp163
a(I0
g53
tp164
a(I0
g53
tp165
a(I0
g53
tp166
a(I0
g53
tp167
a(I0
g53
tp168
a(I0
g53
tp169
a(I0
g53
tp170
a(I0
g53
tp171
a(I0
g53
tp172
a(I0
g53
tp173
a(I0
g53
tp174
a(I0
g53
tp175
a(I0
g53
tp176
a(I0
g53
tp177
a(I0
g53
tp178
a(I0
g53
tp179
a(I0
g53
tp180
a(I0
g53
tp181
a(I0
g53
tp182
a(I0
g53
tp183
a(I0
g53
tp184
a(I0
g53
tp185
a(I0
g53
tp186
a(I0
g53
tp187
a(I0
g53
tp188
a(I0
g53
tp189
a(I0
g53
tp190
a(I0
g53
tp191
a(I0
g53
tp192
a(I0
g53
tp193
a(I0
g53
tp194
a(I0
g53
tp195
a(I0
g53
tp196
a(I0
g53
tp197
a(I0
g53
tp198
a(I0
g53
tp199
a(I0
g53
tp200
a(I0
g53
tp201
a(I0
g53
tp202
a(I0
g53
tp203
a(I0
g53
tp204
a(I0
g53
tp205
a(I0
g53
tp206
a(I0
g53
tp207
a(I0
g53
tp208
a(I0
g53
tp209
a(I0
g53
tp210
a(I0
g53
tp211
a(I0
g53
tp212
a(I0
g56
tp213
a(I0
g51
tp214
a(I0
g53
tp215
a(I0
g53
tp216
as.