(dp1
S'layout'
p2
(ilayout
Layout
p3
(dp4
S'capsules'
p5
(lp6
sS'numGhosts'
p7
I1
sS'food'
p8
(igame
Grid
p9
(dp10
S'CELLS_PER_INT'
p11
I30
sS'width'
p12
I7
sS'data'
p13
(lp14
(lp15
I00
aI00
aI00
aI00
aI00
aI00
aa(lp16
I00
aI01
aI00
aI00
aI01
aI00
aa(lp17
I00
aI00
aI00
aI00
aI00
aI00
aa(lp18
I00
aI00
aI01
aI00
aI00
aI00
aa(lp19
I00
aI00
aI00
aI00
aI00
aI00
aa(lp20
I00
aI01
aI00
aI00
aI01
aI00
aa(lp21
I00
aI00
aI00
aI00
aI00
aI00
aasS'height'
p22
I6
sbsS'agentPositions'
p23
(lp24
(I01
(I3
I4
tp25
tp26
a(I00
(I3
I1
ttp27
asg22
I6
sg12
I7
sS'walls'
p28
(igame
Grid
p29
(dp30
g11
I30
sg12
I7
sg13
(lp31
(lp32
I01
aI01
aI01
aI01
aI01
aI01
aa(lp33
I01
aI00
aI00
aI00
aI00
aI01
aa(lp34
I01
aI00
aI01
aI01
aI00
aI01
aa(lp35
I01
aI00
aI00
aI01
aI00
aI01
aa(lp36
I01
aI00
aI01
aI01
aI00
aI01
aa(lp37
I01
aI00
aI00
aI00
aI00
aI01
aa(lp38
I01
aI01
aI01
aI01
aI01
aI01
aasg22
I6
sbsS'totalFood'
p39
I5
sS'layoutText'
p40
(lp41
S'%%%%%%%'
p42
aS'%. P .%'
p43
aS'% %%% %'
p44
aS'% %.% %'
p45
aS'%. G .%'
p46
aS'%%%%%%%'
p47
asbsS'actions'
p48
(lp49
(I0
S'East'
p50
tp51
a(I0
g50
tp52
a(I0
S'West'
p53
tp54
a(I0
S'Stop'
p55
tp56
a(I0
g55
tp57
a(I0
g53
tp58
a(I0
g50
tp59
a(I0
g53
tp60
a(I0
g53
tp61
a(I0
g53
tp62
a(I0
S'South'
p63
tp64
a(I0
g55
tp65
a(I0
g55
tp66
a(I0
g55
tp67
a(I0
S'North'
p68
tp69
a(I0
g55
tp70
a(I0
g55
tp71
a(I0
g55
tp72
a(I0
g55
tp73
a(I0
g55
tp74
a(I0
g55
tp75
a(I0
g55
tp76
a(I0
g55
tp77
a(I0
g63
tp78
a(I0
g68
tp79
a(I0
g55
tp80
a(I0
g55
tp81
a(I0
g55
tp82
a(I0
g55
tp83
a(I0
g55
tp84
a(I0
g55
tp85
a(I0
g55
tp86
a(I0
g55
tp87
a(I0
g55
tp88
a(I0
g55
tp89
a(I0
g55
tp90
a(I0
g55
tp91
a(I0
g55
tp92
a(I0
g63
tp93
a(I0
g68
tp94
a(I0
g55
tp95
a(I0
g55
tp96
a(I0
g55
tp97
a(I0
g55
tp98
a(I0
g55
tp99
a(I0
g55
tp100
a(I0
g55
tp101
a(I0
g55
tp102
a(I0
g55
tp103
a(I0
g55
tp104
a(I0
g55
tp105
a(I0
g55
tp106
a(I0
g55
tp107
a(I0
g55
tp108
a(I0
g63
tp109
a(I0
g68
tp110
a(I0
g55
tp111
a(I0
g55
tp112
a(I0
g55
tp113
a(I0
g55
tp114
a(I0
g55
tp115
a(I0
g55
tp116
a(I0
g55
tp117
a(I0
g55
tp118
a(I0
g55
tp119
a(I0
g55
tp120
a(I0
g55
tp121
a(I0
g55
tp122
a(I0
g55
tp123
a(I0
g55
tp124
a(I0
g55
tp125
a(I0
g55
tp126
a(I0
g55
tp127
a(I0
g55
tp128
a(I0
g55
tp129
a(I0
g55
tp130
a(I0
g55
tp131
a(I0
g55
tp132
a(I0
g55
tp133
a(I0
g55
tp134
a(I0
g55
tp135
a(I0
g55
tp136
a(I0
g55
tp137
a(I0
g55
tp138
a(I0
g55
tp139
a(I0
g55
tp140
a(I0
g55
tp141
a(I0
g55
tp142
a(I0
g55
tp143
a(I0
g55
tp144
a(I0
g55
tp145
a(I0
g55
tp146
a(I0
g55
tp147
a(I0
g55
tp148
a(I0
g55
tp149
a(I0
g55
tp150
a(I0
g55
tp151
a(I0
g55
tp152
a(I0
g55
tp153
a(I0
g55
tp154
a(I0
g55
tp155
a(I0
g55
tp156
a(I0
g55
tp157
a(I0
g55
tp158
a(I0
g55
tp159
a(I0
g55
tp160
a(I0
g55
tp161
a(I0
g55
tp162
a(I0
g55
tp163
a(I0
g55
tp164
a(I0
g55
tp165
a(I0
g55
tp166
a(I0
g55
tp167
a(I0
g55
tp168
a(I0
g55
tp169
a(I0
g55
tp170
a(I0
g50
tp171
a(I0
g55
tp172
a(I0
g55
tp173
a(I0
g55
tp174
a(I0
g50
tp175
a(I0
g53
tp176
a(I0
g53
tp177
a(I0
g50
tp178
a(I0
g53
tp179
a(I0
g50
tp180
a(I0
g53
tp181
a(I0
g50
tp182
a(I0
g53
tp183
a(I0
g50
tp184
a(I0
g53
tp185
a(I0
g50
tp186
a(I0
g53
tp187
a(I0
g50
tp188
a(I0
g53
tp189
a(I0
g50
tp190
a(I0
g53
tp191
a(I0
g50
tp192
a(I0
g53
tp193
a(I0
g50
tp194
a(I0
g53
tp195
a(I0
g50
tp196
a(I0
g53
tp197
a(I0
g50
tp198
a(I0
g53
tp199
a(I0
g50
tp200
a(I0
g53
tp201
a(I0
g50
tp202
a(I0
g53
tp203
a(I0
g50
tp204
a(I0
g53
tp205
a(I0
g50
tp206
a(I0
g53
tp207
a(I0
g50
tp208
a(I0
g53
tp209
a(I0
g50
tp210
a(I0
g53
tp211
a(I0
g63
tp212
a(I0
g55
tp213
a(I0
g55
tp214
a(I0
g55
tp215
a(I0
g55
tp216
a(I0
g55
tp217
a(I0
g68
tp218
a(I0
g55
tp219
a(I0
g55
tp220
a(I0
g55
tp221
a(I0
g55
tp222
a(I0
g55
tp223
a(I0
g55
tp224
a(I0
g55
tp225
a(I0
g55
tp226
a(I0
g55
tp227
a(I0
g55
tp228
a(I0
g50
tp229
a(I0
g53
tp230
a(I0
g50
tp231
a(I0
g53
tp232
a(I0
g55
tp233
a(I0
g55
tp234
a(I0
g55
tp235
a(I0
g55
tp236
a(I0
g55
tp237
a(I0
g55
tp238
a(I0
g55
tp239
a(I0
g55
tp240
a(I0
g55
tp241
a(I0
g63
tp242
a(I0
g55
tp243
a(I0
g55
tp244
a(I0
g55
tp245
a(I0
g55
tp246
a(I0
g55
tp247
a(I0
g55
tp248
a(I0
g55
tp249
a(I0
g55
tp250
a(I0
g68
tp251
a(I0
g55
tp252
a(I0
g55
tp253
a(I0
g55
tp254
a(I0
g55
tp255
a(I0
g55
tp256
a(I0
g63
tp257
a(I0
g55
tp258
a(I0
g55
tp259
a(I0
g63
tp260
a(I0
g55
tp261
a(I0
g55
tp262
a(I0
g55
tp263
a(I0
g55
tp264
a(I0
g55
tp265
a(I0
g55
tp266
a(I0
g55
tp267
a(I0
g68
tp268
a(I0
g68
tp269
a(I0
g55
tp270
a(I0
g55
tp271
a(I0
g55
tp272
a(I0
g55
tp273
a(I0
g55
tp274
a(I0
g55
tp275
a(I0
g55
tp276
a(I0
g55
tp277
a(I0
g55
tp278
a(I0
g55
tp279
a(I0
g55
tp280
a(I0
g55
tp281
a(I0
g55
tp282
a(I0
g55
tp283
a(I0
g55
tp284
a(I0
g55
tp285
a(I0
g55
tp286
a(I0
g55
tp287
a(I0
g63
tp288
a(I0
g55
tp289
a(I0
g55
tp290
a(I0
g55
tp291
a(I0
g55
tp292
a(I0
g55
tp293
a(I0
g55
tp294
a(I0
g55
tp295
a(I0
g55
tp296
a(I0
g55
tp297
a(I0
g55
tp298
a(I0
g55
tp299
a(I0
g55
tp300
a(I0
g55
tp301
a(I0
g55
tp302
a(I0
g55
tp303
a(I0
g55
tp304
a(I0
g55
tp305
a(I0
g55
tp306
a(I0
g55
tp307
a(I0
g55
tp308
a(I0
g55
tp309
a(I0
g55
tp310
a(I0
g55
tp311
a(I0
g55
tp312
a(I0
g55
tp313
a(I0
g55
tp314
a(I0
g55
tp315
a(I0
g55
tp316
a(I0
g55
tp317
a(I0
g55
tp318
a(I0
g55
tp319
a(I0
g55
tp320
a(I0
g55
tp321
a(I0
g68
tp322
a(I0
g50
tp323
a(I0
g53
tp324
a(I0
g55
tp325
a(I0
g55
tp326
a(I0
g55
tp327
a(I0
g55
tp328
a(I0
g55
tp329
a(I0
g55
tp330
a(I0
g55
tp331
a(I0
g50
tp332
a(I0
g53
tp333
a(I0
g55
tp334
a(I0
g55
tp335
a(I0
g55
tp336
a(I0
g55
tp337
a(I0
g55
tp338
a(I0
g55
tp339
a(I0
g55
tp340
a(I0
g63
tp341
a(I0
g55
tp342
a(I0
g55
tp343
a(I0
g55
tp344
a(I0
g55
tp345
a(I0
g55
tp346
a(I0
g55
tp347
a(I0
g55
tp348
a(I0
g55
tp349
a(I0
g55
tp350
a(I0
g55
tp351
a(I0
g63
tp352
a(I0
g55
tp353
a(I0
g55
tp354
a(I0
g55
tp355
a(I0
g55
tp356
a(I0
g55
tp357
a(I0
g55
tp358
a(I0
g55
tp359
a(I0
g55
tp360
a(I0
g55
tp361
a(I0
g55
tp362
a(I0
g55
tp363
a(I0
g55
tp364
a(I0
g55
tp365
a(I0
g55
tp366
a(I0
g55
tp367
a(I0
g55
tp368
a(I0
g55
tp369
a(I0
g55
tp370
a(I0
g55
tp371
a(I0
g55
tp372
a(I0
g55
tp373
a(I0
g55
tp374
a(I0
g55
tp375
a(I0
g55
tp376
a(I0
g55
tp377
a(I0
g55
tp378
a(I0
g55
tp379
a(I0
g55
tp380
a(I0
g55
tp381
a(I0
g55
tp382
a(I0
g55
tp383
a(I0
g55
tp384
a(I0
g55
tp385
a(I0
g55
tp386
a(I0
g55
tp387
a(I0
g55
tp388
a(I0
g55
tp389
a(I0
g55
tp390
a(I0
g55
tp391
a(I0
g55
tp392
a(I0
g55
tp393
a(I0
g55
tp394
a(I0
g55
tp395
a(I0
g55
tp396
a(I0
g55
tp397
a(I0
g55
tp398
a(I0
g55
tp399
a(I0
g55
tp400
a(I0
g55
tp401
a(I0
g55
tp402
a(I0
g55
tp403
a(I0
g55
tp404
a(I0
g55
tp405
a(I0
g55
tp406
a(I0
g55
tp407
a(I0
g55
tp408
a(I0
g55
tp409
a(I0
g55
tp410
a(I0
g55
tp411
a(I0
g55
tp412
a(I0
g55
tp413
a(I0
g55
tp414
a(I0
g55
tp415
a(I0
g55
tp416
a(I0
g55
tp417
a(I0
g55
tp418
a(I0
g55
tp419
a(I0
g55
tp420
a(I0
g55
tp421
a(I0
g55
tp422
a(I0
g55
tp423
a(I0
g55
tp424
a(I0
g55
tp425
a(I0
g55
tp426
a(I0
g55
tp427
a(I0
g55
tp428
a(I0
g55
tp429
a(I0
g55
tp430
a(I0
g55
tp431
a(I0
g68
tp432
a(I0
g55
tp433
a(I0
g55
tp434
a(I0
g55
tp435
a(I0
g55
tp436
a(I0
g55
tp437
a(I0
g55
tp438
a(I0
g55
tp439
a(I0
g55
tp440
a(I0
g55
tp441
a(I0
g55
tp442
a(I0
g55
tp443
a(I0
g55
tp444
a(I0
g55
tp445
a(I0
g55
tp446
a(I0
g55
tp447
a(I0
g55
tp448
a(I0
g68
tp449
a(I0
g55
tp450
a(I0
g55
tp451
a(I0
g55
tp452
a(I0
g55
tp453
a(I0
g55
tp454
a(I0
g55
tp455
a(I0
g55
tp456
a(I0
g55
tp457
a(I0
g55
tp458
a(I0
g55
tp459
a(I0
g55
tp460
a(I0
g55
tp461
a(I0
g55
tp462
a(I0
g55
tp463
a(I0
g55
tp464
a(I0
g55
tp465
a(I0
g55
tp466
a(I0
g55
tp467
a(I0
g55
tp468
a(I0
g55
tp469
a(I0
g55
tp470
a(I0
g55
tp471
a(I0
g55
tp472
a(I0
g55
tp473
a(I0
g55
tp474
a(I0
g55
tp475
a(I0
g55
tp476
a(I0
g55
tp477
a(I0
g55
tp478
a(I0
g55
tp479
a(I0
g55
tp480
a(I0
g55
tp481
a(I0
g55
tp482
a(I0
g55
tp483
a(I0
g55
tp484
a(I0
g55
tp485
a(I0
g55
tp486
a(I0
g55
tp487
a(I0
g55
tp488
a(I0
g55
tp489
a(I0
g55
tp490
a(I0
g55
tp491
a(I0
g55
tp492
a(I0
g55
tp493
a(I0
g55
tp494
a(I0
g55
tp495
a(I0
g55
tp496
a(I0
g55
tp497
a(I0
g55
tp498
a(I0
g55
tp499
a(I0
g55
tp500
a(I0
g55
tp501
a(I0
g55
tp502
a(I0
g55
tp503
a(I0
g55
tp504
a(I0
g55
tp505
a(I0
g55
tp506
a(I0
g55
tp507
a(I0
g55
tp508
a(I0
g55
tp509
a(I0
g55
tp510
a(I0
g55
tp511
a(I0
g55
tp512
a(I0
g63
tp513
a(I0
g55
tp514
a(I0
g55
tp515
a(I0
g55
tp516
a(I0
g55
tp517
a(I0
g55
tp518
a(I0
g55
tp519
a(I0
g55
tp520
a(I0
g55
tp521
a(I0
g55
tp522
a(I0
g55
tp523
a(I0
g55
tp524
a(I0
g63
tp525
a(I0
g55
tp526
a(I0
g55
tp527
a(I0
g68
tp528
a(I0
g55
tp529
a(I0
g68
tp530
a(I0
g55
tp531
a(I0
g55
tp532
a(I0
g55
tp533
a(I0
g55
tp534
a(I0
g55
tp535
a(I0
g55
tp536
a(I0
g55
tp537
a(I0
g55
tp538
a(I0
g55
tp539
a(I0
g55
tp540
a(I0
g55
tp541
a(I0
g55
tp542
a(I0
g55
tp543
a(I0
g55
tp544
a(I0
g55
tp545
a(I0
g55
tp546
a(I0
g55
tp547
a(I0
g55
tp548
a(I0
g55
tp549
a(I0
g55
tp550
a(I0
g55
tp551
a(I0
g55
tp552
a(I0
g55
tp553
a(I0
g55
tp554
a(I0
g55
tp555
a(I0
g55
tp556
a(I0
g55
tp557
a(I0
g55
tp558
a(I0
g55
tp559
a(I0
g55
tp560
a(I0
g55
tp561
a(I0
g55
tp562
a(I0
g55
tp563
a(I0
g55
tp564
a(I0
g55
tp565
a(I0
g55
tp566
a(I0
g55
tp567
a(I0
g55
tp568
a(I0
g55
tp569
a(I0
g55
tp570
a(I0
g55
tp571
a(I0
g55
tp572
a(I0
g63
tp573
a(I0
g55
tp574
a(I0
g55
tp575
a(I0
g55
tp576
a(I0
g55
tp577
a(I0
g55
tp578
a(I0
g55
tp579
a(I0
g55
tp580
a(I0
g55
tp581
a(I0
g68
tp582
a(I0
g55
tp583
a(I0
g55
tp584
a(I0
g55
tp585
a(I0
g55
tp586
a(I0
g55
tp587
a(I0
g55
tp588
a(I0
g55
tp589
a(I0
g55
tp590
a(I0
g55
tp591
a(I0
g55
tp592
a(I0
g55
tp593
a(I0
g55
tp594
a(I0
g55
tp595
a(I0
g55
tp596
a(I0
g55
tp597
a(I0
g55
tp598
a(I0
g55
tp599
a(I0
g55
tp600
a(I0
g55
tp601
a(I0
g55
tp602
a(I0
g55
tp603
a(I0
g55
tp604
a(I0
g55
tp605
a(I0
g55
tp606
a(I0
g55
tp607
a(I0
g55
tp608
a(I0
g55
tp609
a(I0
g55
tp610
a(I0
g55
tp611
a(I0
g55
tp612
a(I0
g55
tp613
a(I0
g50
tp614
a(I0
g53
tp615
a(I0
g55
tp616
a(I0
g55
tp617
a(I0
g55
tp618
a(I0
g63
tp619
a(I0
g55
tp620
a(I0
g55
tp621
a(I0
g55
tp622
a(I0
g55
tp623
a(I0
g55
tp624
a(I0
g55
tp625
a(I0
g55
tp626
a(I0
g55
tp627
a(I0
g55
tp628
a(I0
g55
tp629
a(I0
g55
tp630
a(I0
g68
tp631
a(I0
g55
tp632
a(I0
g55
tp633
a(I0
g55
tp634
a(I0
g55
tp635
a(I0
g55
tp636
a(I0
g55
tp637
a(I0
g55
tp638
a(I0
g55
tp639
a(I0
g55
tp640
a(I0
g55
tp641
a(I0
g55
tp642
a(I0
g55
tp643
a(I0
g55
tp644
a(I0
g55
tp645
a(I0
g55
tp646
a(I0
g55
tp647
a(I0
g55
tp648
a(I0
g55
tp649
a(I0
g55
tp650
a(I0
g55
tp651
a(I0
g55
tp652
a(I0
g55
tp653
a(I0
g55
tp654
a(I0
g55
tp655
a(I0
g55
tp656
a(I0
g55
tp657
a(I0
g55
tp658
a(I0
g55
tp659
a(I0
g55
tp660
a(I0
g55
tp661
a(I0
g55
tp662
a(I0
g55
tp663
a(I0
g55
tp664
a(I0
g55
tp665
a(I0
g55
tp666
a(I0
g55
tp667
a(I0
g55
tp668
a(I0
g55
tp669
a(I0
g55
tp670
a(I0
g55
tp671
a(I0
g55
tp672
a(I0
g55
tp673
a(I0
g55
tp674
a(I0
g55
tp675
a(I0
g55
tp676
a(I0
g55
tp677
a(I0
g55
tp678
a(I0
g55
tp679
a(I0
g55
tp680
a(I0
g55
tp681
a(I0
g55
tp682
a(I0
g55
tp683
a(I0
g55
tp684
a(I0
g55
tp685
a(I0
g55
tp686
a(I0
g55
tp687
a(I0
g55
tp688
a(I0
g55
tp689
a(I0
g55
tp690
a(I0
g55
tp691
a(I0
g55
tp692
a(I0
g55
tp693
a(I0
g55
tp694
a(I0
g55
tp695
a(I0
g55
tp696
a(I0
g55
tp697
a(I0
g55
tp698
a(I0
g55
tp699
a(I0
g55
tp700
a(I0
g55
tp701
a(I0
g55
tp702
a(I0
g55
tp703
a(I0
g55
tp704
a(I0
g55
tp705
a(I0
g55
tp706
a(I0
g55
tp707
a(I0
g55
tp708
a(I0
g55
tp709
a(I0
g55
tp710
a(I0
g55
tp711
a(I0
g55
tp712
a(I0
g55
tp713
a(I0
g55
tp714
a(I0
g55
tp715
a(I0
g55
tp716
a(I0
g55
tp717
a(I0
g55
tp718
a(I0
g55
tp719
a(I0
g55
tp720
a(I0
g55
tp721
a(I0
g55
tp722
a(I0
g55
tp723
a(I0
g55
tp724
a(I0
g55
tp725
a(I0
g55
tp726
a(I0
g55
tp727
a(I0
g55
tp728
a(I0
g55
tp729
a(I0
g55
tp730
a(I0
g55
tp731
a(I0
g55
tp732
a(I0
g55
tp733
a(I0
g55
tp734
a(I0
g55
tp735
a(I0
g55
tp736
a(I0
g55
tp737
a(I0
g55
tp738
a(I0
g50
tp739
a(I0
g53
tp740
a(I0
g55
tp741
a(I0
g55
tp742
a(I0
g55
tp743
a(I0
g55
tp744
a(I0
g55
tp745
a(I0
g55
tp746
a(I0
g55
tp747
a(I0
g55
tp748
a(I0
g55
tp749
a(I0
g55
tp750
a(I0
g55
tp751
a(I0
g55
tp752
a(I0
g55
tp753
a(I0
g55
tp754
a(I0
g55
tp755
a(I0
g55
tp756
a(I0
g55
tp757
a(I0
g55
tp758
a(I0
g55
tp759
a(I0
g55
tp760
a(I0
g55
tp761
a(I0
g55
tp762
a(I0
g55
tp763
a(I0
g55
tp764
a(I0
g55
tp765
a(I0
g55
tp766
a(I0
g55
tp767
a(I0
g55
tp768
a(I0
g55
tp769
a(I0
g55
tp770
a(I0
g55
tp771
a(I0
g55
tp772
a(I0
g55
tp773
a(I0
g55
tp774
a(I0
g55
tp775
a(I0
g55
tp776
a(I0
g55
tp777
a(I0
g55
tp778
a(I0
g55
tp779
a(I0
g55
tp780
a(I0
g55
tp781
a(I0
g55
tp782
a(I0
g55
tp783
a(I0
g55
tp784
a(I0
g55
tp785
a(I0
g55
tp786
a(I0
g55
tp787
a(I0
g55
tp788
a(I0
g55
tp789
a(I0
g55
tp790
a(I0
g55
tp791
a(I0
g55
tp792
a(I0
g55
tp793
a(I0
g55
tp794
a(I0
g55
tp795
a(I0
g55
tp796
a(I0
g55
tp797
a(I0
g55
tp798
a(I0
g55
tp799
a(I0
g55
tp800
a(I0
g55
tp801
a(I0
g55
tp802
a(I0
g55
tp803
a(I0
g55
tp804
a(I0
g55
tp805
a(I0
g55
tp806
a(I0
g55
tp807
a(I0
g55
tp808
a(I0
g55
tp809
a(I0
g55
tp810
a(I0
g55
tp811
a(I0
g55
tp812
a(I0
g55
tp813
a(I0
g55
tp814
a(I0
g55
tp815
a(I0
g55
tp816
a(I0
g55
tp817
a(I0
g55
tp818
a(I0
g55
tp819
a(I0
g55
tp820
a(I0
g55
tp821
a(I0
g55
tp822
a(I0
g55
tp823
a(I0
g55
tp824
a(I0
g55
tp825
a(I0
g55
tp826
a(I0
g55
tp827
a(I0
g55
tp828
a(I0
g55
tp829
a(I0
g55
tp830
a(I0
g55
tp831
a(I0
g55
tp832
a(I0
g55
tp833
a(I0
g55
tp834
a(I0
g55
tp835
a(I0
g55
tp836
a(I0
g55
tp837
a(I0
g55
tp838
a(I0
g55
tp839
a(I0
g55
tp840
a(I0
g55
tp841
a(I0
g55
tp842
a(I0
g55
tp843
a(I0
g55
tp844
a(I0
g55
tp845
a(I0
g55
tp846
a(I0
g55
tp847
a(I0
g55
tp848
a(I0
g55
tp849
a(I0
g55
tp850
a(I0
g55
tp851
a(I0
g55
tp852
a(I0
g55
tp853
a(I0
g55
tp854
a(I0
g55
tp855
a(I0
g55
tp856
a(I0
g55
tp857
a(I0
g55
tp858
a(I0
g55
tp859
a(I0
g55
tp860
a(I0
g55
tp861
a(I0
g55
tp862
a(I0
g55
tp863
a(I0
g55
tp864
a(I0
g55
tp865
a(I0
g55
tp866
a(I0
g55
tp867
a(I0
g55
tp868
a(I0
g55
tp869
a(I0
g55
tp870
a(I0
g55
tp871
a(I0
g55
tp872
a(I0
g55
tp873
a(I0
g55
tp874
a(I0
g55
tp875
a(I0
g55
tp876
a(I0
g55
tp877
a(I0
g55
tp878
a(I0
g55
tp879
a(I0
g55
tp880
a(I0
g55
tp881
a(I0
g55
tp882
a(I0
g55
tp883
a(I0
g55
tp884
a(I0
g50
tp885
a(I0
g53
tp886
a(I0
g55
tp887
a(I0
g55
tp888
a(I0
g55
tp889
a(I0
g55
tp890
a(I0
g55
tp891
a(I0
g55
tp892
a(I0
g55
tp893
a(I0
g55
tp894
a(I0
g55
tp895
a(I0
g55
tp896
a(I0
g55
tp897
a(I0
g55
tp898
a(I0
g55
tp899
a(I0
g55
tp900
a(I0
g55
tp901
a(I0
g55
tp902
a(I0
g55
tp903
a(I0
g55
tp904
a(I0
g55
tp905
a(I0
g55
tp906
a(I0
g55
tp907
a(I0
g55
tp908
a(I0
g55
tp909
a(I0
g55
tp910
a(I0
g55
tp911
a(I0
g55
tp912
a(I0
g55
tp913
a(I0
g55
tp914
a(I0
g55
tp915
a(I0
g55
tp916
a(I0
g55
tp917
a(I0
g55
tp918
a(I0
g55
tp919
a(I0
g55
tp920
a(I0
g55
tp921
a(I0
g55
tp922
a(I0
g55
tp923
a(I0
g55
tp924
a(I0
g55
tp925
a(I0
g55
tp926
a(I0
g63
tp927
a(I0
g55
tp928
a(I0
g55
tp929
a(I0
g55
tp930
a(I0
g55
tp931
a(I0
g55
tp932
a(I0
g55
tp933
a(I0
g55
tp934
a(I0
g55
tp935
a(I0
g55
tp936
a(I0
g55
tp937
a(I0
g55
tp938
a(I0
g55
tp939
a(I0
g55
tp940
a(I0
g55
tp941
a(I0
g55
tp942
a(I0
g55
tp943
a(I0
g55
tp944
a(I0
g55
tp945
a(I0
g55
tp946
a(I0
g55
tp947
a(I0
g55
tp948
a(I0
g55
tp949
a(I0
g55
tp950
a(I0
g55
tp951
a(I0
g68
tp952
a(I0
g55
tp953
a(I0
g55
tp954
a(I0
g55
tp955
a(I0
g55
tp956
a(I0
g55
tp957
a(I0
g55
tp958
a(I0
g55
tp959
a(I0
g55
tp960
a(I0
g55
tp961
a(I0
g55
tp962
a(I0
g63
tp963
a(I0
g55
tp964
a(I0
g55
tp965
a(I0
g55
tp966
a(I0
g55
tp967
a(I0
g55
tp968
a(I0
g55
tp969
a(I0
g55
tp970
a(I0
g55
tp971
a(I0
g55
tp972
a(I0
g55
tp973
a(I0
g55
tp974
a(I0
g55
tp975
a(I0
g55
tp976
a(I0
g55
tp977
a(I0
g55
tp978
a(I0
g55
tp979
a(I0
g55
tp980
a(I0
g55
tp981
a(I0
g55
tp982
a(I0
g55
tp983
a(I0
g55
tp984
a(I0
g55
tp985
a(I0
g55
tp986
a(I0
g55
tp987
a(I0
g55
tp988
a(I0
g55
tp989
a(I0
g55
tp990
a(I0
g55
tp991
a(I0
g55
tp992
a(I0
g55
tp993
a(I0
g55
tp994
a(I0
g55
tp995
a(I0
g55
tp996
a(I0
g55
tp997
a(I0
g55
tp998
a(I0
g55
tp999
a(I0
g55
tp1000
a(I0
g55
tp1001
a(I0
g55
tp1002
a(I0
g55
tp1003
a(I0
g68
tp1004
a(I0
g55
tp1005
a(I0
g55
tp1006
a(I0
g55
tp1007
a(I0
g55
tp1008
a(I0
g63
tp1009
a(I0
g55
tp1010
a(I0
g55
tp1011
a(I0
g55
tp1012
a(I0
g55
tp1013
a(I0
g55
tp1014
a(I0
g55
tp1015
a(I0
g55
tp1016
a(I0
g55
tp1017
a(I0
g55
tp1018
a(I0
g55
tp1019
a(I0
g55
tp1020
a(I0
g55
tp1021
a(I0
g55
tp1022
a(I0
g55
tp1023
a(I0
g55
tp1024
a(I0
g55
tp1025
a(I0
g55
tp1026
a(I0
g55
tp1027
a(I0
g55
tp1028
a(I0
g63
tp1029
a(I0
g55
tp1030
a(I0
g55
tp1031
a(I0
g55
tp1032
a(I0
g55
tp1033
a(I0
g55
tp1034
a(I0
g55
tp1035
a(I0
g55
tp1036
a(I0
g55
tp1037
a(I0
g55
tp1038
a(I0
g55
tp1039
a(I0
g55
tp1040
a(I0
g55
tp1041
a(I0
g55
tp1042
a(I0
g55
tp1043
a(I0
g55
tp1044
a(I0
g55
tp1045
a(I0
g55
tp1046
a(I0
g55
tp1047
a(I0
g55
tp1048
a(I0
g55
tp1049
a(I0
g55
tp1050
a(I0
g55
tp1051
a(I0
g55
tp1052
a(I0
g55
tp1053
a(I0
g68
tp1054
a(I0
g55
tp1055
a(I0
g55
tp1056
a(I0
g55
tp1057
a(I0
g55
tp1058
a(I0
g55
tp1059
a(I0
g55
tp1060
a(I0
g55
tp1061
a(I0
g55
tp1062
a(I0
g55
tp1063
a(I0
g55
tp1064
a(I0
g55
tp1065
a(I0
g55
tp1066
a(I0
g63
tp1067
a(I0
g55
tp1068
a(I0
g55
tp1069
as.