(dp1
S'layout'
p2
(ilayout
Layout
p3
(dp4
S'capsules'
p5
(lp6
sS'numGhosts'
p7
I1
sS'food'
p8
(igame
Grid
p9
(dp10
S'CELLS_PER_INT'
p11
I30
sS'width'
p12
I9
sS'data'
p13
(lp14
(lp15
I00
aI00
aI00
aI00
aI00
aI00
aa(lp16
I00
aI01
aI00
aI00
aI01
aI00
aa(lp17
I00
aI00
aI00
aI00
aI00
aI00
aa(lp18
I00
aI00
aI00
aI00
aI00
aI00
aa(lp19
I00
aI00
aI00
aI00
aI00
aI00
aa(lp20
I00
aI00
aI00
aI00
aI00
aI00
aa(lp21
I00
aI00
aI00
aI00
aI00
aI00
aa(lp22
I00
aI01
aI00
aI00
aI00
aI00
aa(lp23
I00
aI00
aI00
aI00
aI00
aI00
aasS'height'
p24
I6
sbsS'agentPositions'
p25
(lp26
(I01
(I7
I4
tp27
tp28
a(I00
(I4
I2
tp29
tp30
asg24
I6
sg12
I9
sS'walls'
p31
(igame
Grid
p32
(dp33
g11
I30
sg12
I9
sg13
(lp34
(lp35
I01
aI01
aI01
aI01
aI01
aI01
aa(lp36
I01
aI00
aI00
aI00
aI00
aI01
aa(lp37
I01
aI00
aI00
aI00
aI00
aI01
aa(lp38
I01
aI00
aI01
aI01
aI00
aI01
aa(lp39
I01
aI00
aI00
aI01
aI00
aI01
aa(lp40
I01
aI00
aI01
aI01
aI00
aI01
aa(lp41
I01
aI00
aI00
aI00
aI00
aI01
aa(lp42
I01
aI00
aI00
aI00
aI00
aI01
aa(lp43
I01
aI01
aI01
aI01
aI01
aI01
aasg24
I6
sbsS'totalFood'
p44
I3
sS'layoutText'
p45
(lp46
S'%%%%%%%%%'
p47
aS'%.     P%'
p48
aS'%  %%%  %'
p49
aS'%  %G%  %'
p50
aS'%.     .%'
p51
aS'%%%%%%%%%'
p52
asbsS'actions'
p53
(lp54
(I0
S'South'
p55
tp56
a(I1
g55
tp57
a(I0
g55
tp58
a(I1
S'West'
p59
tp60
a(I0
g55
tp61
a(I1
g59
tp62
a(I0
S'North'
p63
tp64
a(I1
g59
tp65
a(I0
S'Stop'
p66
tp67
a(I1
g63
tp68
a(I0
g59
tp69
a(I1
g63
tp70
a(I0
g66
tp71
a(I1
S'East'
p72
tp73
a(I0
g66
tp74
a(I1
g55
tp75
a(I0
g66
tp76
a(I1
g55
tp77
a(I0
g66
tp78
a(I1
g59
tp79
a(I0
g66
tp80
a(I1
g63
tp81
a(I0
g66
tp82
a(I1
g63
tp83
a(I0
g66
tp84
a(I1
g72
tp85
a(I0
g66
tp86
a(I1
g55
tp87
a(I0
g66
tp88
a(I1
g55
tp89
a(I0
g66
tp90
a(I1
g72
tp91
a(I0
g66
tp92
a(I1
g72
tp93
a(I0
g66
tp94
a(I1
g63
tp95
a(I0
g66
tp96
a(I1
g55
tp97
a(I0
g66
tp98
a(I1
g59
tp99
a(I0
g66
tp100
a(I1
g59
tp101
a(I0
g66
tp102
a(I1
g59
tp103
a(I0
g66
tp104
a(I1
g63
tp105
a(I0
g63
tp106
a(I1
g72
tp107
a(I0
g55
tp108
a(I1
g55
tp109
a(I0
g55
tp110
a(I1
g59
tp111
a(I0
g59
tp112
a(I1
g63
tp113
a(I0
g59
tp114
a(I1
g63
tp115
a(I0
g59
tp116
a(I1
g63
tp117
a(I0
g59
tp118
a(I1
g72
tp119
a(I0
g59
tp120
a(I1
g72
tp121
a(I0
g66
tp122
a(I1
g72
tp123
a(I0
g66
tp124
a(I1
g72
tp125
a(I0
g66
tp126
a(I1
g72
tp127
a(I0
g66
tp128
a(I1
g55
tp129
a(I0
g66
tp130
a(I1
g72
tp131
a(I0
g66
tp132
a(I1
g55
tp133
a(I0
g66
tp134
a(I1
g59
tp135
a(I0
g66
tp136
a(I1
g55
tp137
a(I0
g66
tp138
a(I1
g59
tp139
a(I0
g66
tp140
a(I1
g59
tp141
a(I0
g66
tp142
a(I1
g63
tp143
a(I0
g72
tp144
a(I1
g55
tp145
a(I0
g59
tp146
a(I1
g59
tp147
a(I0
g66
tp148
a(I1
g59
tp149
a(I0
g66
tp150
a(I1
g59
tp151
as.