(dp1
S'layout'
p2
(ilayout
Layout
p3
(dp4
S'capsules'
p5
(lp6
sS'numGhosts'
p7
I1
sS'food'
p8
(igame
Grid
p9
(dp10
S'CELLS_PER_INT'
p11
I30
sS'width'
p12
I7
sS'data'
p13
(lp14
(lp15
I00
aI00
aI00
aI00
aI00
aI00
aa(lp16
I00
aI01
aI00
aI00
aI01
aI00
aa(lp17
I00
aI00
aI00
aI00
aI00
aI00
aa(lp18
I00
aI00
aI01
aI00
aI00
aI00
aa(lp19
I00
aI00
aI00
aI00
aI00
aI00
aa(lp20
I00
aI01
aI00
aI00
aI01
aI00
aa(lp21
I00
aI00
aI00
aI00
aI00
aI00
aasS'height'
p22
I6
sbsS'agentPositions'
p23
(lp24
(I01
(I3
I4
tp25
tp26
a(I00
(I3
I1
ttp27
asg22
I6
sg12
I7
sS'walls'
p28
(igame
Grid
p29
(dp30
g11
I30
sg12
I7
sg13
(lp31
(lp32
I01
aI01
aI01
aI01
aI01
aI01
aa(lp33
I01
aI00
aI00
aI00
aI00
aI01
aa(lp34
I01
aI00
aI01
aI01
aI00
aI01
aa(lp35
I01
aI00
aI00
aI01
aI00
aI01
aa(lp36
I01
aI00
aI01
aI01
aI00
aI01
aa(lp37
I01
aI00
aI00
aI00
aI00
aI01
aa(lp38
I01
aI01
aI01
aI01
aI01
aI01
aasg22
I6
sbsS'totalFood'
p39
I5
sS'layoutText'
p40
(lp41
S'%%%%%%%'
p42
aS'%. P .%'
p43
aS'% %%% %'
p44
aS'% %.% %'
p45
aS'%. G .%'
p46
aS'%%%%%%%'
p47
asbsS'actions'
p48
(lp49
(I0
S'West'
p50
tp51
a(I0
g50
tp52
a(I0
S'South'
p53
tp54
a(I0
g53
tp55
a(I0
g53
tp56
a(I0
S'East'
p57
tp58
a(I0
g57
tp59
a(I0
S'North'
p60
tp61
a(I0
g53
tp62
a(I0
g50
tp63
a(I0
g50
tp64
a(I0
S'Stop'
p65
tp66
a(I0
g57
tp67
a(I0
g50
tp68
a(I0
g57
tp69
a(I0
g50
tp70
a(I0
g57
tp71
a(I0
g50
tp72
a(I0
g60
tp73
a(I0
g65
tp74
a(I0
g65
tp75
a(I0
g65
tp76
a(I0
g65
tp77
a(I0
g65
tp78
a(I0
g65
tp79
a(I0
g65
tp80
a(I0
g65
tp81
a(I0
g65
tp82
a(I0
g65
tp83
a(I0
g65
tp84
a(I0
g65
tp85
a(I0
g65
tp86
a(I0
g65
tp87
a(I0
g60
tp88
a(I0
g65
tp89
a(I0
g65
tp90
a(I0
g65
tp91
a(I0
g65
tp92
a(I0
g65
tp93
a(I0
g65
tp94
a(I0
g65
tp95
a(I0
g65
tp96
a(I0
g65
tp97
a(I0
g65
tp98
a(I0
g65
tp99
a(I0
g65
tp100
a(I0
g65
tp101
a(I0
g65
tp102
a(I0
g60
tp103
a(I0
g65
tp104
a(I0
g65
tp105
a(I0
g65
tp106
a(I0
g65
tp107
a(I0
g65
tp108
a(I0
g57
tp109
a(I0
g57
tp110
a(I0
g57
tp111
a(I0
g57
tp112
a(I0
g65
tp113
a(I0
g65
tp114
a(I0
g65
tp115
a(I0
g50
tp116
a(I0
g50
tp117
a(I0
g50
tp118
a(I0
g50
tp119
a(I0
g57
tp120
a(I0
g50
tp121
a(I0
g57
tp122
a(I0
g65
tp123
a(I0
g65
tp124
a(I0
g65
tp125
a(I0
g57
tp126
a(I0
g57
tp127
a(I0
g57
tp128
a(I0
g65
tp129
a(I0
g53
tp130
a(I0
g53
tp131
a(I0
g53
tp132
as.