(dp1
S'layout'
p2
(ilayout
Layout
p3
(dp4
S'capsules'
p5
(lp6
sS'numGhosts'
p7
I1
sS'food'
p8
(igame
Grid
p9
(dp10
S'CELLS_PER_INT'
p11
I30
sS'width'
p12
I11
sS'data'
p13
(lp14
(lp15
I00
aI00
aI00
aI00
aI00
aI00
aa(lp16
I00
aI01
aI00
aI00
aI01
aI00
aa(lp17
I00
aI00
aI00
aI00
aI00
aI00
aa(lp18
I00
aI00
aI00
aI00
aI00
aI00
aa(lp19
I00
aI00
aI00
aI00
aI00
aI00
aa(lp20
I00
aI00
aI00
aI00
aI00
aI00
aa(lp21
I00
aI00
aI00
aI00
aI00
aI00
aa(lp22
I00
aI00
aI00
aI00
aI00
aI00
aa(lp23
I00
aI00
aI00
aI00
aI00
aI00
aa(lp24
I00
aI01
aI00
aI00
aI00
aI00
aa(lp25
I00
aI00
aI00
aI00
aI00
aI00
aasS'height'
p26
I6
sbsS'agentPositions'
p27
(lp28
(I01
(I9
I4
tp29
tp30
a(I00
(I5
I2
tp31
tp32
asg26
I6
sg12
I11
sS'walls'
p33
(igame
Grid
p34
(dp35
g11
I30
sg12
I11
sg13
(lp36
(lp37
I01
aI01
aI01
aI01
aI01
aI01
aa(lp38
I01
aI00
aI00
aI00
aI00
aI01
aa(lp39
I01
aI00
aI00
aI00
aI00
aI01
aa(lp40
I01
aI00
aI00
aI00
aI00
aI01
aa(lp41
I01
aI00
aI01
aI01
aI00
aI01
aa(lp42
I01
aI00
aI00
aI01
aI00
aI01
aa(lp43
I01
aI00
aI01
aI01
aI00
aI01
aa(lp44
I01
aI00
aI00
aI00
aI00
aI01
aa(lp45
I01
aI00
aI00
aI00
aI00
aI01
aa(lp46
I01
aI00
aI00
aI00
aI00
aI01
aa(lp47
I01
aI01
aI01
aI01
aI01
aI01
aasg26
I6
sbsS'totalFood'
p48
I3
sS'layoutText'
p49
(lp50
S'%%%%%%%%%%%'
p51
aS'%.       P%'
p52
aS'%   %%%   %'
p53
aS'%   %G%   %'
p54
aS'%.       .%'
p55
aS'%%%%%%%%%%%'
p56
asbsS'actions'
p57
(lp58
(I0
S'South'
p59
tp60
a(I1
g59
tp61
a(I0
S'Stop'
p62
tp63
a(I1
S'East'
p64
tp65
a(I0
S'North'
p66
tp67
a(I1
g64
tp68
a(I0
S'West'
p69
tp70
a(I1
g64
tp71
a(I0
g69
tp72
a(I1
g66
tp73
a(I0
g69
tp74
a(I1
g64
tp75
a(I0
g69
tp76
a(I1
g59
tp77
a(I0
g69
tp78
a(I1
g69
tp79
a(I0
g69
tp80
a(I1
g66
tp81
a(I0
g64
tp82
a(I1
g66
tp83
a(I0
g69
tp84
a(I1
g69
tp85
a(I0
g59
tp86
a(I1
g66
tp87
a(I0
g69
tp88
a(I1
g69
tp89
a(I0
g69
tp90
a(I1
g69
tp91
a(I0
g62
tp92
a(I1
g69
tp93
a(I0
g62
tp94
a(I1
g69
tp95
a(I0
g62
tp96
a(I1
g59
tp97
a(I0
g62
tp98
a(I1
g69
tp99
a(I0
g62
tp100
a(I1
g66
tp101
a(I0
g62
tp102
a(I1
g64
tp103
a(I0
g62
tp104
a(I1
g64
tp105
a(I0
g62
tp106
a(I1
g64
tp107
a(I0
g62
tp108
a(I1
g64
tp109
a(I0
g59
tp110
a(I1
g64
tp111
a(I0
g62
tp112
a(I1
g59
tp113
a(I0
g62
tp114
a(I1
g64
tp115
a(I0
g62
tp116
a(I1
g64
tp117
a(I0
g62
tp118
a(I1
g59
tp119
a(I0
g62
tp120
a(I1
g69
tp121
a(I0
g62
tp122
a(I1
g59
tp123
a(I0
g64
tp124
a(I1
g69
tp125
a(I0
g69
tp126
a(I1
g66
tp127
a(I0
g62
tp128
a(I1
g64
tp129
a(I0
g62
tp130
a(I1
g66
tp131
a(I0
g62
tp132
a(I1
g66
tp133
a(I0
g62
tp134
a(I1
g64
tp135
a(I0
g62
tp136
a(I1
g59
tp137
a(I0
g62
tp138
a(I1
g59
tp139
a(I0
g62
tp140
a(I1
g69
tp141
a(I0
g62
tp142
a(I1
g66
tp143
a(I0
g62
tp144
a(I1
g69
tp145
a(I0
g62
tp146
a(I1
g59
tp147
a(I0
g62
tp148
a(I1
g64
tp149
a(I0
g64
tp150
a(I1
g59
tp151
a(I0
g69
tp152
a(I1
g69
tp153
a(I0
g62
tp154
a(I1
g66
tp155
a(I0
g62
tp156
a(I1
g64
tp157
a(I0
g62
tp158
a(I1
g66
tp159
a(I0
g62
tp160
a(I1
g66
tp161
a(I0
g62
tp162
a(I1
g64
tp163
a(I0
g62
tp164
a(I1
g59
tp165
a(I0
g62
tp166
a(I1
g69
tp167
a(I0
g59
tp168
a(I1
g69
tp169
a(I0
g62
tp170
a(I1
g59
tp171
a(I0
g62
tp172
a(I1
g64
tp173
a(I0
g62
tp174
a(I1
g64
tp175
a(I0
g62
tp176
a(I1
g59
tp177
a(I0
g62
tp178
a(I1
g69
tp179
a(I0
g62
tp180
a(I1
g69
tp181
a(I0
g62
tp182
a(I1
g66
tp183
a(I0
g62
tp184
a(I1
g64
tp185
a(I0
g62
tp186
a(I1
g64
tp187
a(I0
g62
tp188
a(I1
g66
tp189
a(I0
g62
tp190
a(I1
g66
tp191
a(I0
g62
tp192
a(I1
g69
tp193
a(I0
g62
tp194
a(I1
g59
tp195
a(I0
g62
tp196
a(I1
g69
tp197
a(I0
g62
tp198
a(I1
g59
tp199
a(I0
g62
tp200
a(I1
g59
tp201
a(I0
g62
tp202
a(I1
g69
tp203
a(I0
g62
tp204
a(I1
g69
tp205
a(I0
g62
tp206
a(I1
g69
tp207
a(I0
g62
tp208
a(I1
g69
tp209
a(I0
g62
tp210
a(I1
g69
tp211
a(I0
g62
tp212
a(I1
g69
tp213
as.