(dp1
S'layout'
p2
(ilayout
Layout
p3
(dp4
S'capsules'
p5
(lp6
sS'numGhosts'
p7
I1
sS'food'
p8
(igame
Grid
p9
(dp10
S'CELLS_PER_INT'
p11
I30
sS'width'
p12
I9
sS'data'
p13
(lp14
(lp15
I00
aI00
aI00
aI00
aI00
aI00
aa(lp16
I00
aI01
aI00
aI00
aI01
aI00
aa(lp17
I00
aI00
aI00
aI00
aI00
aI00
aa(lp18
I00
aI00
aI00
aI00
aI00
aI00
aa(lp19
I00
aI00
aI00
aI00
aI00
aI00
aa(lp20
I00
aI00
aI00
aI00
aI00
aI00
aa(lp21
I00
aI00
aI00
aI00
aI00
aI00
aa(lp22
I00
aI01
aI00
aI00
aI00
aI00
aa(lp23
I00
aI00
aI00
aI00
aI00
aI00
aasS'height'
p24
I6
sbsS'agentPositions'
p25
(lp26
(I01
(I7
I4
tp27
tp28
a(I00
(I4
I2
tp29
tp30
asg24
I6
sg12
I9
sS'walls'
p31
(igame
Grid
p32
(dp33
g11
I30
sg12
I9
sg13
(lp34
(lp35
I01
aI01
aI01
aI01
aI01
aI01
aa(lp36
I01
aI00
aI00
aI00
aI00
aI01
aa(lp37
I01
aI00
aI00
aI00
aI00
aI01
aa(lp38
I01
aI00
aI01
aI01
aI00
aI01
aa(lp39
I01
aI00
aI00
aI01
aI00
aI01
aa(lp40
I01
aI00
aI01
aI01
aI00
aI01
aa(lp41
I01
aI00
aI00
aI00
aI00
aI01
aa(lp42
I01
aI00
aI00
aI00
aI00
aI01
aa(lp43
I01
aI01
aI01
aI01
aI01
aI01
aasg24
I6
sbsS'totalFood'
p44
I3
sS'layoutText'
p45
(lp46
S'%%%%%%%%%'
p47
aS'%.     P%'
p48
aS'%  %%%  %'
p49
aS'%  %G%  %'
p50
aS'%.     .%'
p51
aS'%%%%%%%%%'
p52
asbsS'actions'
p53
(lp54
(I0
S'West'
p55
tp56
a(I1
S'South'
p57
tp58
a(I0
g55
tp59
a(I1
g55
tp60
a(I0
S'Stop'
p61
tp62
a(I1
g55
tp63
a(I0
S'East'
p64
tp65
a(I1
g55
tp66
a(I0
g55
tp67
a(I1
S'North'
p68
tp69
a(I0
g61
tp70
a(I1
g64
tp71
a(I0
g61
tp72
a(I1
g68
tp73
a(I0
g55
tp74
a(I1
g55
tp75
a(I0
g55
tp76
a(I1
g57
tp77
a(I0
g61
tp78
a(I1
g64
tp79
a(I0
g55
tp80
a(I1
g68
tp81
a(I0
g55
tp82
a(I1
g55
tp83
a(I0
g64
tp84
a(I1
g57
tp85
a(I0
g55
tp86
a(I1
g64
tp87
a(I0
g61
tp88
a(I1
g68
tp89
a(I0
g61
tp90
a(I1
g55
tp91
a(I0
g61
tp92
a(I1
g57
tp93
a(I0
g61
tp94
a(I1
g64
tp95
a(I0
g61
tp96
a(I1
g57
tp97
a(I0
g61
tp98
a(I1
g55
tp99
a(I0
g64
tp100
a(I1
g68
tp101
a(I0
g55
tp102
a(I1
g64
tp103
a(I0
g61
tp104
a(I1
g68
tp105
a(I0
g61
tp106
a(I1
g55
tp107
a(I0
g61
tp108
a(I1
g57
tp109
a(I0
g61
tp110
a(I1
g57
tp111
a(I0
g61
tp112
a(I1
g64
tp113
a(I0
g61
tp114
a(I1
g64
tp115
a(I0
g61
tp116
a(I1
g64
tp117
a(I0
g61
tp118
a(I1
g68
tp119
a(I0
g61
tp120
a(I1
g57
tp121
a(I0
g61
tp122
a(I1
g64
tp123
a(I0
g61
tp124
a(I1
g64
tp125
a(I0
g61
tp126
a(I1
g68
tp127
a(I0
g61
tp128
a(I1
g68
tp129
a(I0
g61
tp130
a(I1
g64
tp131
a(I0
g61
tp132
a(I1
g68
tp133
a(I0
g61
tp134
a(I1
g55
tp135
a(I0
g61
tp136
a(I1
g55
tp137
a(I0
g61
tp138
a(I1
g55
tp139
a(I0
g61
tp140
a(I1
g55
tp141
a(I0
g61
tp142
a(I1
g55
tp143
a(I0
g61
tp144
a(I1
g55
tp145
as.