(dp1
S'layout'
p2
(ilayout
Layout
p3
(dp4
S'capsules'
p5
(lp6
sS'numGhosts'
p7
I1
sS'food'
p8
(igame
Grid
p9
(dp10
S'CELLS_PER_INT'
p11
I30
sS'width'
p12
I11
sS'data'
p13
(lp14
(lp15
I00
aI00
aI00
aI00
aI00
aI00
aa(lp16
I00
aI01
aI00
aI00
aI01
aI00
aa(lp17
I00
aI00
aI00
aI00
aI00
aI00
aa(lp18
I00
aI00
aI00
aI00
aI00
aI00
aa(lp19
I00
aI00
aI00
aI00
aI00
aI00
aa(lp20
I00
aI00
aI00
aI00
aI00
aI00
aa(lp21
I00
aI00
aI00
aI00
aI00
aI00
aa(lp22
I00
aI00
aI00
aI00
aI00
aI00
aa(lp23
I00
aI00
aI00
aI00
aI00
aI00
aa(lp24
I00
aI01
aI00
aI00
aI00
aI00
aa(lp25
I00
aI00
aI00
aI00
aI00
aI00
aasS'height'
p26
I6
sbsS'agentPositions'
p27
(lp28
(I01
(I9
I4
tp29
tp30
a(I00
(I5
I2
tp31
tp32
asg26
I6
sg12
I11
sS'walls'
p33
(igame
Grid
p34
(dp35
g11
I30
sg12
I11
sg13
(lp36
(lp37
I01
aI01
aI01
aI01
aI01
aI01
aa(lp38
I01
aI00
aI00
aI00
aI00
aI01
aa(lp39
I01
aI00
aI00
aI00
aI00
aI01
aa(lp40
I01
aI00
aI01
aI01
aI00
aI01
aa(lp41
I01
aI00
aI01
aI01
aI00
aI01
aa(lp42
I01
aI00
aI00
aI01
aI00
aI01
aa(lp43
I01
aI00
aI01
aI01
aI00
aI01
aa(lp44
I01
aI00
aI01
aI01
aI00
aI01
aa(lp45
I01
aI00
aI00
aI00
aI00
aI01
aa(lp46
I01
aI00
aI00
aI00
aI00
aI01
aa(lp47
I01
aI01
aI01
aI01
aI01
aI01
aasg26
I6
sbsS'totalFood'
p48
I3
sS'layoutText'
p49
(lp50
S'%%%%%%%%%%%'
p51
aS'%.       P%'
p52
aS'%  %%%%%  %'
p53
aS'%  %%G%%  %'
p54
aS'%.       .%'
p55
aS'%%%%%%%%%%%'
p56
asbsS'actions'
p57
(lp58
(I0
S'Stop'
p59
tp60
a(I1
S'South'
p61
tp62
a(I0
S'West'
p63
tp64
a(I1
S'East'
p65
tp66
a(I0
g63
tp67
a(I1
g65
tp68
a(I0
g63
tp69
a(I1
g65
tp70
a(I0
g63
tp71
a(I1
g65
tp72
a(I0
g63
tp73
a(I1
S'North'
p74
tp75
a(I0
g63
tp76
a(I1
g63
tp77
a(I0
g63
tp78
a(I1
g74
tp79
a(I0
g63
tp80
a(I1
g65
tp81
a(I0
g65
tp82
a(I1
g74
tp83
a(I0
g63
tp84
a(I1
g63
tp85
a(I0
g59
tp86
a(I1
g61
tp87
a(I0
g59
tp88
a(I1
g61
tp89
a(I0
g59
tp90
a(I1
g61
tp91
a(I0
g59
tp92
a(I1
g63
tp93
a(I0
g59
tp94
a(I1
g63
tp95
a(I0
g59
tp96
a(I1
g63
tp97
a(I0
g59
tp98
a(I1
g74
tp99
a(I0
g59
tp100
a(I1
g61
tp101
a(I0
g59
tp102
a(I1
g63
tp103
a(I0
g59
tp104
a(I1
g63
tp105
a(I0
g59
tp106
a(I1
g63
tp107
a(I0
g59
tp108
a(I1
g63
tp109
a(I0
g59
tp110
a(I1
g74
tp111
a(I0
g59
tp112
a(I1
g74
tp113
a(I0
g59
tp114
a(I1
g74
tp115
as.