(dp1
S'layout'
p2
(ilayout
Layout
p3
(dp4
S'capsules'
p5
(lp6
sS'numGhosts'
p7
I1
sS'food'
p8
(igame
Grid
p9
(dp10
S'CELLS_PER_INT'
p11
I30
sS'width'
p12
I9
sS'data'
p13
(lp14
(lp15
I00
aI00
aI00
aI00
aI00
aI00
aa(lp16
I00
aI01
aI00
aI00
aI01
aI00
aa(lp17
I00
aI00
aI00
aI00
aI00
aI00
aa(lp18
I00
aI00
aI00
aI00
aI00
aI00
aa(lp19
I00
aI00
aI00
aI00
aI00
aI00
aa(lp20
I00
aI00
aI00
aI00
aI00
aI00
aa(lp21
I00
aI00
aI00
aI00
aI00
aI00
aa(lp22
I00
aI01
aI00
aI00
aI00
aI00
aa(lp23
I00
aI00
aI00
aI00
aI00
aI00
aasS'height'
p24
I6
sbsS'agentPositions'
p25
(lp26
(I01
(I7
I4
tp27
tp28
a(I00
(I4
I2
tp29
tp30
asg24
I6
sg12
I9
sS'walls'
p31
(igame
Grid
p32
(dp33
g11
I30
sg12
I9
sg13
(lp34
(lp35
I01
aI01
aI01
aI01
aI01
aI01
aa(lp36
I01
aI00
aI00
aI00
aI00
aI01
aa(lp37
I01
aI00
aI00
aI00
aI00
aI01
aa(lp38
I01
aI00
aI01
aI01
aI00
aI01
aa(lp39
I01
aI00
aI00
aI01
aI00
aI01
aa(lp40
I01
aI00
aI01
aI01
aI00
aI01
aa(lp41
I01
aI00
aI00
aI00
aI00
aI01
aa(lp42
I01
aI00
aI00
aI00
aI00
aI01
aa(lp43
I01
aI01
aI01
aI01
aI01
aI01
aasg24
I6
sbsS'totalFood'
p44
I3
sS'layoutText'
p45
(lp46
S'%%%%%%%%%'
p47
aS'%.     P%'
p48
aS'%  %%%  %'
p49
aS'%  %G%  %'
p50
aS'%.     .%'
p51
aS'%%%%%%%%%'
p52
asbsS'actions'
p53
(lp54
(I0
S'South'
p55
tp56
a(I1
g55
tp57
a(I0
g55
tp58
a(I1
S'West'
p59
tp60
a(I0
g55
tp61
a(I1
g59
tp62
a(I0
S'Stop'
p63
tp64
a(I1
S'North'
p65
tp66
a(I0
g63
tp67
a(I1
g65
tp68
a(I0
g59
tp69
a(I1
g65
tp70
a(I0
g59
tp71
a(I1
S'East'
p72
tp73
a(I0
g59
tp74
a(I1
g72
tp75
a(I0
g59
tp76
a(I1
g72
tp77
a(I0
g59
tp78
a(I1
g72
tp79
a(I0
g65
tp80
a(I1
g55
tp81
a(I0
g59
tp82
a(I1
g72
tp83
a(I0
g63
tp84
a(I1
g55
tp85
a(I0
g55
tp86
a(I1
g59
tp87
a(I0
g63
tp88
a(I1
g65
tp89
a(I0
g63
tp90
a(I1
g72
tp91
a(I0
g63
tp92
a(I1
g55
tp93
a(I0
g63
tp94
a(I1
g55
tp95
a(I0
g63
tp96
a(I1
g59
tp97
a(I0
g63
tp98
a(I1
g65
tp99
a(I0
g63
tp100
a(I1
g65
tp101
a(I0
g63
tp102
a(I1
g72
tp103
a(I0
g63
tp104
a(I1
g65
tp105
a(I0
g63
tp106
a(I1
g59
tp107
a(I0
g63
tp108
a(I1
g55
tp109
a(I0
g63
tp110
a(I1
g72
tp111
a(I0
g63
tp112
a(I1
g55
tp113
a(I0
g63
tp114
a(I1
g59
tp115
a(I0
g63
tp116
a(I1
g65
tp117
a(I0
g63
tp118
a(I1
g72
tp119
a(I0
g63
tp120
a(I1
g65
tp121
a(I0
g63
tp122
a(I1
g59
tp123
a(I0
g72
tp124
a(I1
g59
tp125
a(I0
g59
tp126
a(I1
g59
tp127
a(I0
g63
tp128
a(I1
g59
tp129
a(I0
g63
tp130
a(I1
g59
tp131
a(I0
g63
tp132
a(I1
g59
tp133
a(I0
g63
tp134
a(I1
g55
tp135
a(I0
g63
tp136
a(I1
g55
tp137
a(I0
g63
tp138
a(I1
g72
tp139
a(I0
g63
tp140
a(I1
g65
tp141
a(I0
g63
tp142
a(I1
g65
tp143
a(I0
g63
tp144
a(I1
g72
tp145
a(I0
g63
tp146
a(I1
g72
tp147
a(I0
g63
tp148
a(I1
g72
tp149
a(I0
g63
tp150
a(I1
g72
tp151
a(I0
g63
tp152
a(I1
g55
tp153
a(I0
g63
tp154
a(I1
g55
tp155
a(I0
g63
tp156
a(I1
g55
tp157
a(I0
g63
tp158
a(I1
g72
tp159
a(I0
g63
tp160
a(I1
g65
tp161
a(I0
g63
tp162
a(I1
g65
tp163
a(I0
g63
tp164
a(I1
g65
tp165
a(I0
g63
tp166
a(I1
g59
tp167
a(I0
g65
tp168
a(I1
g59
tp169
a(I0
g63
tp170
a(I1
g59
tp171
a(I0
g63
tp172
a(I1
g59
tp173
a(I0
g63
tp174
a(I1
g59
tp175
a(I0
g63
tp176
a(I1
g55
tp177
a(I0
g63
tp178
a(I1
g55
tp179
a(I0
g63
tp180
a(I1
g55
tp181
a(I0
g63
tp182
a(I1
g72
tp183
a(I0
g63
tp184
a(I1
g72
tp185
a(I0
g63
tp186
a(I1
g65
tp187
a(I0
g63
tp188
a(I1
g55
tp189
a(I0
g63
tp190
a(I1
g72
tp191
a(I0
g63
tp192
a(I1
g72
tp193
a(I0
g63
tp194
a(I1
g65
tp195
a(I0
g63
tp196
a(I1
g72
tp197
a(I0
g63
tp198
a(I1
g55
tp199
a(I0
g63
tp200
a(I1
g59
tp201
a(I0
g63
tp202
a(I1
g59
tp203
a(I0
g63
tp204
a(I1
g59
tp205
a(I0
g63
tp206
a(I1
g65
tp207
a(I0
g63
tp208
a(I1
g55
tp209
a(I0
g63
tp210
a(I1
g59
tp211
a(I0
g63
tp212
a(I1
g59
tp213
a(I0
g63
tp214
a(I1
g65
tp215
a(I0
g63
tp216
a(I1
g65
tp217
a(I0
g63
tp218
a(I1
g65
tp219
a(I0
g63
tp220
a(I1
g59
tp221
a(I0
g63
tp222
a(I1
g55
tp223
a(I0
g63
tp224
a(I1
g72
tp225
a(I0
g63
tp226
a(I1
g65
tp227
a(I0
g63
tp228
a(I1
g59
tp229
a(I0
g63
tp230
a(I1
g55
tp231
a(I0
g63
tp232
a(I1
g72
tp233
a(I0
g63
tp234
a(I1
g55
tp235
a(I0
g63
tp236
a(I1
g59
tp237
as.