(dp1
S'layout'
p2
(ilayout
Layout
p3
(dp4
S'capsules'
p5
(lp6
sS'numGhosts'
p7
I1
sS'food'
p8
(igame
Grid
p9
(dp10
S'CELLS_PER_INT'
p11
I30
sS'width'
p12
I9
sS'data'
p13
(lp14
(lp15
I00
aI00
aI00
aI00
aI00
aI00
aa(lp16
I00
aI01
aI00
aI00
aI01
aI00
aa(lp17
I00
aI00
aI00
aI00
aI00
aI00
aa(lp18
I00
aI00
aI00
aI00
aI00
aI00
aa(lp19
I00
aI00
aI00
aI00
aI00
aI00
aa(lp20
I00
aI00
aI00
aI00
aI00
aI00
aa(lp21
I00
aI00
aI00
aI00
aI00
aI00
aa(lp22
I00
aI01
aI00
aI00
aI00
aI00
aa(lp23
I00
aI00
aI00
aI00
aI00
aI00
aasS'height'
p24
I6
sbsS'agentPositions'
p25
(lp26
(I01
(I7
I4
tp27
tp28
a(I00
(I4
I2
tp29
tp30
asg24
I6
sg12
I9
sS'walls'
p31
(igame
Grid
p32
(dp33
g11
I30
sg12
I9
sg13
(lp34
(lp35
I01
aI01
aI01
aI01
aI01
aI01
aa(lp36
I01
aI00
aI00
aI00
aI00
aI01
aa(lp37
I01
aI00
aI00
aI00
aI00
aI01
aa(lp38
I01
aI00
aI01
aI01
aI00
aI01
aa(lp39
I01
aI00
aI00
aI01
aI00
aI01
aa(lp40
I01
aI00
aI01
aI01
aI00
aI01
aa(lp41
I01
aI00
aI00
aI00
aI00
aI01
aa(lp42
I01
aI00
aI00
aI00
aI00
aI01
aa(lp43
I01
aI01
aI01
aI01
aI01
aI01
aasg24
I6
sbsS'totalFood'
p44
I3
sS'layoutText'
p45
(lp46
S'%%%%%%%%%'
p47
aS'%.     P%'
p48
aS'%  %%%  %'
p49
aS'%  %G%  %'
p50
aS'%.     .%'
p51
aS'%%%%%%%%%'
p52
asbsS'actions'
p53
(lp54
(I0
S'West'
p55
tp56
a(I1
S'South'
p57
tp58
a(I0
g57
tp59
a(I1
S'East'
p60
tp61
a(I0
g60
tp62
a(I1
g60
tp63
a(I0
S'North'
p64
tp65
a(I1
g60
tp66
a(I0
S'Stop'
p67
tp68
a(I1
g64
tp69
a(I0
g67
tp70
a(I1
g64
tp71
a(I0
g55
tp72
a(I1
g64
tp73
a(I0
g55
tp74
a(I1
g55
tp75
a(I0
g55
tp76
a(I1
g57
tp77
a(I0
g55
tp78
a(I1
g57
tp79
a(I0
g55
tp80
a(I1
g57
tp81
a(I0
g67
tp82
a(I1
g60
tp83
a(I0
g55
tp84
a(I1
g64
tp85
a(I0
g60
tp86
a(I1
g55
tp87
a(I0
g67
tp88
a(I1
g57
tp89
a(I0
g67
tp90
a(I1
g60
tp91
a(I0
g67
tp92
a(I1
g64
tp93
a(I0
g55
tp94
a(I1
g55
tp95
a(I0
g67
tp96
a(I1
g57
tp97
a(I0
g60
tp98
a(I1
g60
tp99
a(I0
g55
tp100
a(I1
g64
tp101
a(I0
g67
tp102
a(I1
g55
tp103
a(I0
g67
tp104
a(I1
g64
tp105
a(I0
g60
tp106
a(I1
g60
tp107
a(I0
g55
tp108
a(I1
g64
tp109
a(I0
g67
tp110
a(I1
g55
tp111
a(I0
g67
tp112
a(I1
g57
tp113
a(I0
g67
tp114
a(I1
g60
tp115
a(I0
g67
tp116
a(I1
g57
tp117
a(I0
g67
tp118
a(I1
g57
tp119
a(I0
g60
tp120
a(I1
g55
tp121
a(I0
g55
tp122
a(I1
g64
tp123
a(I0
g60
tp124
a(I1
g60
tp125
a(I0
g55
tp126
a(I1
g57
tp127
a(I0
g57
tp128
a(I1
g55
tp129
a(I0
g67
tp130
a(I1
g64
tp131
a(I0
g67
tp132
a(I1
g60
tp133
a(I0
g67
tp134
a(I1
g64
tp135
a(I0
g64
tp136
a(I1
g55
tp137
a(I0
g67
tp138
a(I1
g57
tp139
a(I0
g67
tp140
a(I1
g57
tp141
a(I0
g57
tp142
a(I1
g55
tp143
a(I0
g67
tp144
a(I1
g55
tp145
a(I0
g67
tp146
a(I1
g55
tp147
a(I0
g67
tp148
a(I1
g55
tp149
a(I0
g67
tp150
a(I1
g55
tp151
a(I0
g67
tp152
a(I1
g64
tp153
a(I0
g67
tp154
a(I1
g60
tp155
a(I0
g67
tp156
a(I1
g64
tp157
a(I0
g67
tp158
a(I1
g64
tp159
a(I0
g67
tp160
a(I1
g60
tp161
a(I0
g67
tp162
a(I1
g60
tp163
a(I0
g67
tp164
a(I1
g60
tp165
a(I0
g67
tp166
a(I1
g60
tp167
a(I0
g67
tp168
a(I1
g57
tp169
a(I0
g67
tp170
a(I1
g57
tp171
a(I0
g67
tp172
a(I1
g60
tp173
a(I0
g67
tp174
a(I1
g57
tp175
a(I0
g67
tp176
a(I1
g55
tp177
a(I0
g67
tp178
a(I1
g55
tp179
a(I0
g67
tp180
a(I1
g55
tp181
a(I0
g67
tp182
a(I1
g64
tp183
a(I0
g67
tp184
a(I1
g57
tp185
a(I0
g67
tp186
a(I1
g60
tp187
a(I0
g67
tp188
a(I1
g60
tp189
a(I0
g67
tp190
a(I1
g60
tp191
a(I0
g67
tp192
a(I1
g64
tp193
a(I0
g67
tp194
a(I1
g64
tp195
a(I0
g67
tp196
a(I1
g55
tp197
a(I0
g67
tp198
a(I1
g64
tp199
a(I0
g67
tp200
a(I1
g60
tp201
a(I0
g67
tp202
a(I1
g57
tp203
a(I0
g67
tp204
a(I1
g55
tp205
a(I0
g67
tp206
a(I1
g64
tp207
a(I0
g67
tp208
a(I1
g55
tp209
a(I0
g67
tp210
a(I1
g55
tp211
a(I0
g67
tp212
a(I1
g55
tp213
a(I0
g67
tp214
a(I1
g55
tp215
a(I0
g67
tp216
a(I1
g57
tp217
a(I0
g67
tp218
a(I1
g57
tp219
a(I0
g67
tp220
a(I1
g57
tp221
a(I0
g67
tp222
a(I1
g60
tp223
a(I0
g67
tp224
a(I1
g60
tp225
a(I0
g67
tp226
a(I1
g60
tp227
a(I0
g67
tp228
a(I1
g60
tp229
a(I0
g67
tp230
a(I1
g60
tp231
a(I0
g67
tp232
a(I1
g64
tp233
a(I0
g67
tp234
a(I1
g64
tp235
a(I0
g67
tp236
a(I1
g64
tp237
a(I0
g67
tp238
a(I1
g55
tp239
a(I0
g67
tp240
a(I1
g57
tp241
a(I0
g67
tp242
a(I1
g60
tp243
a(I0
g67
tp244
a(I1
g64
tp245
a(I0
g67
tp246
a(I1
g55
tp247
a(I0
g67
tp248
a(I1
g55
tp249
a(I0
g67
tp250
a(I1
g55
tp251
a(I0
g67
tp252
a(I1
g55
tp253
a(I0
g67
tp254
a(I1
g55
tp255
a(I0
g67
tp256
a(I1
g57
tp257
a(I0
g67
tp258
a(I1
g55
tp259
as.