(dp1
S'layout'
p2
(ilayout
Layout
p3
(dp4
S'capsules'
p5
(lp6
sS'numGhosts'
p7
I1
sS'food'
p8
(igame
Grid
p9
(dp10
S'CELLS_PER_INT'
p11
I30
sS'width'
p12
I7
sS'data'
p13
(lp14
(lp15
I00
aI00
aI00
aI00
aI00
aI00
aa(lp16
I00
aI01
aI00
aI00
aI01
aI00
aa(lp17
I00
aI00
aI00
aI00
aI00
aI00
aa(lp18
I00
aI00
aI01
aI00
aI00
aI00
aa(lp19
I00
aI00
aI00
aI00
aI00
aI00
aa(lp20
I00
aI01
aI00
aI00
aI01
aI00
aa(lp21
I00
aI00
aI00
aI00
aI00
aI00
aasS'height'
p22
I6
sbsS'agentPositions'
p23
(lp24
(I01
(I3
I4
tp25
tp26
a(I00
(I3
I1
ttp27
asg22
I6
sg12
I7
sS'walls'
p28
(igame
Grid
p29
(dp30
g11
I30
sg12
I7
sg13
(lp31
(lp32
I01
aI01
aI01
aI01
aI01
aI01
aa(lp33
I01
aI00
aI00
aI00
aI00
aI01
aa(lp34
I01
aI00
aI01
aI01
aI00
aI01
aa(lp35
I01
aI00
aI00
aI01
aI00
aI01
aa(lp36
I01
aI00
aI01
aI01
aI00
aI01
aa(lp37
I01
aI00
aI00
aI00
aI00
aI01
aa(lp38
I01
aI01
aI01
aI01
aI01
aI01
aasg22
I6
sbsS'totalFood'
p39
I5
sS'layoutText'
p40
(lp41
S'%%%%%%%'
p42
aS'%. P .%'
p43
aS'% %%% %'
p44
aS'% %.% %'
p45
aS'%. G .%'
p46
aS'%%%%%%%'
p47
asbsS'actions'
p48
(lp49
(I0
S'West'
p50
tp51
a(I0
g50
tp52
a(I0
S'South'
p53
tp54
a(I0
g53
tp55
a(I0
g53
tp56
a(I0
S'Stop'
p57
tp58
a(I0
S'East'
p59
tp60
a(I0
g57
tp61
a(I0
g57
tp62
a(I0
g50
tp63
a(I0
g59
tp64
a(I0
g50
tp65
a(I0
g59
tp66
a(I0
g50
tp67
a(I0
g59
tp68
a(I0
g59
tp69
a(I0
g57
tp70
a(I0
g50
tp71
a(I0
g57
tp72
a(I0
g59
tp73
a(I0
g59
tp74
a(I0
g59
tp75
a(I0
g57
tp76
a(I0
g57
tp77
a(I0
g57
tp78
a(I0
g57
tp79
a(I0
g57
tp80
a(I0
g57
tp81
a(I0
g50
tp82
a(I0
g50
tp83
a(I0
g50
tp84
a(I0
g50
tp85
a(I0
g57
tp86
a(I0
g57
tp87
a(I0
g57
tp88
a(I0
g57
tp89
a(I0
g57
tp90
a(I0
g57
tp91
a(I0
g57
tp92
a(I0
g57
tp93
a(I0
g57
tp94
a(I0
g57
tp95
a(I0
g57
tp96
a(I0
g57
tp97
a(I0
g57
tp98
a(I0
g57
tp99
a(I0
g57
tp100
a(I0
g57
tp101
a(I0
g57
tp102
a(I0
g57
tp103
a(I0
g57
tp104
a(I0
g57
tp105
a(I0
g57
tp106
a(I0
g57
tp107
a(I0
g57
tp108
a(I0
g57
tp109
a(I0
g57
tp110
a(I0
S'North'
p111
tp112
a(I0
g57
tp113
a(I0
g53
tp114
a(I0
g57
tp115
a(I0
g57
tp116
a(I0
g57
tp117
a(I0
g57
tp118
a(I0
g57
tp119
a(I0
g57
tp120
a(I0
g57
tp121
a(I0
g57
tp122
a(I0
g57
tp123
a(I0
g57
tp124
a(I0
g57
tp125
a(I0
g57
tp126
a(I0
g57
tp127
a(I0
g57
tp128
a(I0
g57
tp129
a(I0
g57
tp130
a(I0
g57
tp131
a(I0
g57
tp132
a(I0
g57
tp133
a(I0
g57
tp134
a(I0
g57
tp135
a(I0
g57
tp136
a(I0
g57
tp137
a(I0
g57
tp138
a(I0
g57
tp139
a(I0
g57
tp140
a(I0
g57
tp141
a(I0
g57
tp142
a(I0
g57
tp143
a(I0
g57
tp144
a(I0
g57
tp145
a(I0
g57
tp146
a(I0
g57
tp147
a(I0
g59
tp148
a(I0
g59
tp149
a(I0
g111
tp150
a(I0
g57
tp151
a(I0
g57
tp152
a(I0
g57
tp153
a(I0
g57
tp154
a(I0
g57
tp155
a(I0
g57
tp156
a(I0
g53
tp157
a(I0
g50
tp158
a(I0
g50
tp159
a(I0
g59
tp160
a(I0
g50
tp161
a(I0
g59
tp162
a(I0
g50
tp163
a(I0
g59
tp164
a(I0
g50
tp165
a(I0
g59
tp166
a(I0
g50
tp167
a(I0
g57
tp168
a(I0
g57
tp169
a(I0
g59
tp170
a(I0
g50
tp171
a(I0
g59
tp172
a(I0
g50
tp173
a(I0
g59
tp174
a(I0
g50
tp175
a(I0
g59
tp176
a(I0
g50
tp177
a(I0
g59
tp178
a(I0
g50
tp179
a(I0
g59
tp180
a(I0
g50
tp181
a(I0
g57
tp182
a(I0
g57
tp183
a(I0
g57
tp184
a(I0
g57
tp185
a(I0
g57
tp186
a(I0
g57
tp187
a(I0
g57
tp188
a(I0
g57
tp189
a(I0
g59
tp190
a(I0
g59
tp191
a(I0
g59
tp192
a(I0
g59
tp193
a(I0
g57
tp194
a(I0
g57
tp195
a(I0
g50
tp196
a(I0
g50
tp197
a(I0
g50
tp198
a(I0
g50
tp199
a(I0
g57
tp200
a(I0
g57
tp201
a(I0
g57
tp202
a(I0
g57
tp203
a(I0
g57
tp204
a(I0
g57
tp205
a(I0
g57
tp206
a(I0
g57
tp207
a(I0
g57
tp208
a(I0
g59
tp209
a(I0
g59
tp210
a(I0
g111
tp211
a(I0
g57
tp212
a(I0
g57
tp213
a(I0
g57
tp214
a(I0
g57
tp215
a(I0
g57
tp216
a(I0
g53
tp217
a(I0
g57
tp218
a(I0
g59
tp219
a(I0
g59
tp220
a(I0
g111
tp221
a(I0
g111
tp222
a(I0
g111
tp223
as.