(dp1
S'layout'
p2
(ilayout
Layout
p3
(dp4
S'capsules'
p5
(lp6
sS'numGhosts'
p7
I1
sS'food'
p8
(igame
Grid
p9
(dp10
S'CELLS_PER_INT'
p11
I30
sS'width'
p12
I9
sS'data'
p13
(lp14
(lp15
I00
aI00
aI00
aI00
aI00
aI00
aa(lp16
I00
aI01
aI00
aI00
aI01
aI00
aa(lp17
I00
aI00
aI00
aI00
aI00
aI00
aa(lp18
I00
aI00
aI00
aI00
aI00
aI00
aa(lp19
I00
aI00
aI00
aI00
aI00
aI00
aa(lp20
I00
aI00
aI00
aI00
aI00
aI00
aa(lp21
I00
aI00
aI00
aI00
aI00
aI00
aa(lp22
I00
aI01
aI00
aI00
aI00
aI00
aa(lp23
I00
aI00
aI00
aI00
aI00
aI00
aasS'height'
p24
I6
sbsS'agentPositions'
p25
(lp26
(I01
(I7
I4
tp27
tp28
a(I00
(I4
I2
tp29
tp30
asg24
I6
sg12
I9
sS'walls'
p31
(igame
Grid
p32
(dp33
g11
I30
sg12
I9
sg13
(lp34
(lp35
I01
aI01
aI01
aI01
aI01
aI01
aa(lp36
I01
aI00
aI00
aI00
aI00
aI01
aa(lp37
I01
aI00
aI00
aI00
aI00
aI01
aa(lp38
I01
aI00
aI01
aI01
aI00
aI01
aa(lp39
I01
aI00
aI00
aI01
aI00
aI01
aa(lp40
I01
aI00
aI01
aI01
aI00
aI01
aa(lp41
I01
aI00
aI00
aI00
aI00
aI01
aa(lp42
I01
aI00
aI00
aI00
aI00
aI01
aa(lp43
I01
aI01
aI01
aI01
aI01
aI01
aasg24
I6
sbsS'totalFood'
p44
I3
sS'layoutText'
p45
(lp46
S'%%%%%%%%%'
p47
aS'%.     P%'
p48
aS'%  %%%  %'
p49
aS'%  %G%  %'
p50
aS'%.     .%'
p51
aS'%%%%%%%%%'
p52
asbsS'actions'
p53
(lp54
(I0
S'South'
p55
tp56
a(I1
g55
tp57
a(I0
g55
tp58
a(I1
S'West'
p59
tp60
a(I0
g55
tp61
a(I1
g59
tp62
a(I0
g59
tp63
a(I1
S'North'
p64
tp65
a(I0
g59
tp66
a(I1
g64
tp67
a(I0
S'Stop'
p68
tp69
a(I1
g64
tp70
a(I0
g59
tp71
a(I1
g59
tp72
a(I0
g59
tp73
a(I1
g55
tp74
a(I0
g59
tp75
a(I1
g55
tp76
a(I0
g59
tp77
a(I1
S'East'
p78
tp79
a(I0
g68
tp80
a(I1
g64
tp81
a(I0
g68
tp82
a(I1
g64
tp83
a(I0
g68
tp84
a(I1
g59
tp85
a(I0
g68
tp86
a(I1
g55
tp87
a(I0
g68
tp88
a(I1
g78
tp89
a(I0
g68
tp90
a(I1
g64
tp91
a(I0
g68
tp92
a(I1
g78
tp93
a(I0
g68
tp94
a(I1
g78
tp95
a(I0
g68
tp96
a(I1
g78
tp97
a(I0
g68
tp98
a(I1
g78
tp99
a(I0
g68
tp100
a(I1
g78
tp101
a(I0
g68
tp102
a(I1
g55
tp103
a(I0
g68
tp104
a(I1
g59
tp105
a(I0
g68
tp106
a(I1
g64
tp107
a(I0
g68
tp108
a(I1
g59
tp109
a(I0
g68
tp110
a(I1
g59
tp111
a(I0
g68
tp112
a(I1
g59
tp113
a(I0
g68
tp114
a(I1
g59
tp115
a(I0
g68
tp116
a(I1
g55
tp117
a(I0
g68
tp118
a(I1
g59
tp119
a(I0
g68
tp120
a(I1
g64
tp121
a(I0
g68
tp122
a(I1
g78
tp123
a(I0
g68
tp124
a(I1
g78
tp125
a(I0
g68
tp126
a(I1
g78
tp127
a(I0
g68
tp128
a(I1
g78
tp129
a(I0
g68
tp130
a(I1
g78
tp131
a(I0
g68
tp132
a(I1
g55
tp133
a(I0
g68
tp134
a(I1
g55
tp135
a(I0
g68
tp136
a(I1
g78
tp137
a(I0
g68
tp138
a(I1
g64
tp139
a(I0
g68
tp140
a(I1
g59
tp141
a(I0
g68
tp142
a(I1
g64
tp143
a(I0
g68
tp144
a(I1
g78
tp145
a(I0
g68
tp146
a(I1
g55
tp147
a(I0
g68
tp148
a(I1
g59
tp149
a(I0
g68
tp150
a(I1
g64
tp151
a(I0
g68
tp152
a(I1
g78
tp153
a(I0
g68
tp154
a(I1
g55
tp155
a(I0
g68
tp156
a(I1
g55
tp157
a(I0
g68
tp158
a(I1
g59
tp159
a(I0
g68
tp160
a(I1
g64
tp161
a(I0
g68
tp162
a(I1
g78
tp163
a(I0
g68
tp164
a(I1
g64
tp165
a(I0
g68
tp166
a(I1
g59
tp167
a(I0
g68
tp168
a(I1
g59
tp169
a(I0
g68
tp170
a(I1
g59
tp171
a(I0
g68
tp172
a(I1
g59
tp173
a(I0
g68
tp174
a(I1
g59
tp175
a(I0
g68
tp176
a(I1
g55
tp177
a(I0
g68
tp178
a(I1
g59
tp179
a(I0
g68
tp180
a(I1
g64
tp181
a(I0
g68
tp182
a(I1
g78
tp183
a(I0
g68
tp184
a(I1
g78
tp185
a(I0
g68
tp186
a(I1
g78
tp187
a(I0
g68
tp188
a(I1
g78
tp189
a(I0
g68
tp190
a(I1
g78
tp191
a(I0
g68
tp192
a(I1
g78
tp193
a(I0
g68
tp194
a(I1
g55
tp195
a(I0
g68
tp196
a(I1
g55
tp197
a(I0
g68
tp198
a(I1
g55
tp199
a(I0
g68
tp200
a(I1
g59
tp201
a(I0
g68
tp202
a(I1
g59
tp203
a(I0
g68
tp204
a(I1
g59
tp205
a(I0
g68
tp206
a(I1
g64
tp207
a(I0
g68
tp208
a(I1
g55
tp209
a(I0
g68
tp210
a(I1
g78
tp211
a(I0
g68
tp212
a(I1
g78
tp213
a(I0
g68
tp214
a(I1
g64
tp215
a(I0
g68
tp216
a(I1
g78
tp217
a(I0
g68
tp218
a(I1
g64
tp219
a(I0
g68
tp220
a(I1
g64
tp221
a(I0
g68
tp222
a(I1
g59
tp223
a(I0
g68
tp224
a(I1
g59
tp225
a(I0
g68
tp226
a(I1
g59
tp227
a(I0
g68
tp228
a(I1
g59
tp229
a(I0
g68
tp230
a(I1
g59
tp231
a(I0
g68
tp232
a(I1
g55
tp233
a(I0
g64
tp234
a(I1
g59
tp235
a(I0
g68
tp236
a(I1
g64
tp237
a(I0
g68
tp238
a(I1
g78
tp239
a(I0
g68
tp240
a(I1
g78
tp241
a(I0
g68
tp242
a(I1
g78
tp243
a(I0
g68
tp244
a(I1
g78
tp245
a(I0
g68
tp246
a(I1
g78
tp247
a(I0
g68
tp248
a(I1
g78
tp249
a(I0
g68
tp250
a(I1
g55
tp251
a(I0
g68
tp252
a(I1
g55
tp253
a(I0
g68
tp254
a(I1
g55
tp255
a(I0
g68
tp256
a(I1
g59
tp257
a(I0
g68
tp258
a(I1
g64
tp259
a(I0
g68
tp260
a(I1
g78
tp261
a(I0
g78
tp262
a(I1
g55
tp263
a(I0
g59
tp264
a(I1
g59
tp265
a(I0
g68
tp266
a(I1
g59
tp267
a(I0
g68
tp268
a(I1
g59
tp269
a(I0
g68
tp270
a(I1
g59
tp271
a(I0
g68
tp272
a(I1
g59
tp273
a(I0
g68
tp274
a(I1
g64
tp275
a(I0
g68
tp276
a(I1
g59
tp277
as.