(dp1
S'layout'
p2
(ilayout
Layout
p3
(dp4
S'capsules'
p5
(lp6
sS'numGhosts'
p7
I1
sS'food'
p8
(igame
Grid
p9
(dp10
S'CELLS_PER_INT'
p11
I30
sS'width'
p12
I7
sS'data'
p13
(lp14
(lp15
I00
aI00
aI00
aI00
aI00
aI00
aa(lp16
I00
aI01
aI00
aI00
aI01
aI00
aa(lp17
I00
aI00
aI00
aI00
aI00
aI00
aa(lp18
I00
aI00
aI01
aI00
aI00
aI00
aa(lp19
I00
aI00
aI00
aI00
aI00
aI00
aa(lp20
I00
aI01
aI00
aI00
aI01
aI00
aa(lp21
I00
aI00
aI00
aI00
aI00
aI00
aasS'height'
p22
I6
sbsS'agentPositions'
p23
(lp24
(I01
(I3
I4
tp25
tp26
a(I00
(I3
I1
ttp27
asg22
I6
sg12
I7
sS'walls'
p28
(igame
Grid
p29
(dp30
g11
I30
sg12
I7
sg13
(lp31
(lp32
I01
aI01
aI01
aI01
aI01
aI01
aa(lp33
I01
aI00
aI00
aI00
aI00
aI01
aa(lp34
I01
aI00
aI01
aI01
aI00
aI01
aa(lp35
I01
aI00
aI00
aI01
aI00
aI01
aa(lp36
I01
aI00
aI01
aI01
aI00
aI01
aa(lp37
I01
aI00
aI00
aI00
aI00
aI01
aa(lp38
I01
aI01
aI01
aI01
aI01
aI01
aasg22
I6
sbsS'totalFood'
p39
I5
sS'layoutText'
p40
(lp41
S'%%%%%%%'
p42
aS'%. P .%'
p43
aS'% %%% %'
p44
aS'% %.% %'
p45
aS'%. G .%'
p46
aS'%%%%%%%'
p47
asbsS'actions'
p48
(lp49
(I0
S'Stop'
p50
tp51
a(I0
g50
tp52
a(I0
g50
tp53
a(I0
g50
tp54
a(I0
g50
tp55
a(I0
g50
tp56
a(I0
g50
tp57
a(I0
g50
tp58
a(I0
S'East'
p59
tp60
a(I0
g59
tp61
a(I0
g50
tp62
a(I0
g50
tp63
a(I0
g50
tp64
a(I0
g50
tp65
a(I0
g50
tp66
a(I0
g50
tp67
a(I0
g50
tp68
a(I0
g50
tp69
a(I0
g50
tp70
a(I0
g50
tp71
a(I0
g50
tp72
a(I0
g50
tp73
a(I0
g50
tp74
a(I0
g50
tp75
a(I0
g50
tp76
a(I0
g50
tp77
a(I0
g50
tp78
a(I0
g50
tp79
a(I0
g50
tp80
a(I0
g50
tp81
a(I0
g50
tp82
a(I0
g50
tp83
a(I0
g50
tp84
a(I0
g50
tp85
a(I0
g50
tp86
a(I0
g50
tp87
a(I0
g50
tp88
a(I0
g50
tp89
a(I0
g50
tp90
a(I0
g50
tp91
a(I0
g50
tp92
a(I0
g50
tp93
a(I0
g50
tp94
a(I0
g50
tp95
a(I0
g50
tp96
a(I0
g50
tp97
a(I0
S'West'
p98
tp99
a(I0
g98
tp100
a(I0
g98
tp101
a(I0
g98
tp102
a(I0
g50
tp103
a(I0
g50
tp104
a(I0
g50
tp105
a(I0
g50
tp106
a(I0
g50
tp107
a(I0
g50
tp108
a(I0
g50
tp109
a(I0
g50
tp110
a(I0
g50
tp111
a(I0
g50
tp112
a(I0
g50
tp113
a(I0
g59
tp114
a(I0
g59
tp115
a(I0
g59
tp116
a(I0
g59
tp117
a(I0
g50
tp118
a(I0
g50
tp119
a(I0
g50
tp120
a(I0
g50
tp121
a(I0
g50
tp122
a(I0
g50
tp123
a(I0
g50
tp124
a(I0
g50
tp125
a(I0
g50
tp126
a(I0
g50
tp127
a(I0
g50
tp128
a(I0
g50
tp129
a(I0
g50
tp130
a(I0
g50
tp131
a(I0
g50
tp132
a(I0
g50
tp133
a(I0
g50
tp134
a(I0
g50
tp135
a(I0
g50
tp136
a(I0
g50
tp137
a(I0
g50
tp138
a(I0
g50
tp139
a(I0
g50
tp140
a(I0
g50
tp141
a(I0
g50
tp142
a(I0
g98
tp143
a(I0
g98
tp144
a(I0
g98
tp145
a(I0
g98
tp146
a(I0
g50
tp147
a(I0
g50
tp148
a(I0
g50
tp149
a(I0
g50
tp150
a(I0
g50
tp151
a(I0
g50
tp152
a(I0
S'South'
p153
tp154
a(I0
g153
tp155
a(I0
g153
tp156
a(I0
g59
tp157
a(I0
g59
tp158
a(I0
g59
tp159
a(I0
g59
tp160
a(I0
g50
tp161
a(I0
g50
tp162
a(I0
g50
tp163
a(I0
g50
tp164
a(I0
g50
tp165
a(I0
g50
tp166
a(I0
g50
tp167
a(I0
g50
tp168
a(I0
S'North'
p169
tp170
a(I0
g169
tp171
a(I0
g169
tp172
a(I0
g50
tp173
a(I0
g50
tp174
a(I0
g50
tp175
a(I0
g50
tp176
a(I0
g50
tp177
a(I0
g50
tp178
a(I0
g50
tp179
a(I0
g50
tp180
a(I0
g98
tp181
a(I0
g98
tp182
a(I0
g98
tp183
a(I0
g98
tp184
a(I0
g50
tp185
a(I0
g50
tp186
a(I0
g50
tp187
a(I0
g153
tp188
a(I0
g153
tp189
a(I0
g153
tp190
a(I0
g50
tp191
a(I0
g50
tp192
a(I0
g50
tp193
a(I0
g50
tp194
a(I0
g50
tp195
a(I0
g50
tp196
a(I0
g50
tp197
a(I0
g50
tp198
a(I0
g50
tp199
a(I0
g50
tp200
a(I0
g50
tp201
a(I0
g50
tp202
a(I0
g50
tp203
a(I0
g50
tp204
a(I0
g50
tp205
a(I0
g50
tp206
a(I0
g50
tp207
a(I0
g50
tp208
a(I0
g50
tp209
a(I0
g50
tp210
a(I0
g50
tp211
a(I0
g50
tp212
a(I0
g50
tp213
a(I0
g59
tp214
a(I0
g98
tp215
a(I0
g50
tp216
a(I0
g50
tp217
a(I0
g50
tp218
a(I0
g50
tp219
a(I0
g50
tp220
a(I0
g50
tp221
a(I0
g59
tp222
a(I0
g59
tp223
a(I0
g59
tp224
a(I0
g59
tp225
a(I0
g50
tp226
a(I0
g50
tp227
a(I0
g50
tp228
a(I0
g50
tp229
a(I0
g50
tp230
a(I0
g50
tp231
a(I0
g50
tp232
a(I0
g98
tp233
a(I0
g98
tp234
a(I0
g98
tp235
a(I0
g98
tp236
a(I0
g50
tp237
a(I0
g50
tp238
a(I0
g50
tp239
a(I0
g50
tp240
a(I0
g50
tp241
a(I0
g50
tp242
a(I0
g50
tp243
a(I0
g59
tp244
a(I0
g59
tp245
a(I0
g59
tp246
a(I0
g59
tp247
a(I0
g169
tp248
a(I0
g169
tp249
a(I0
g169
tp250
a(I0
g50
tp251
a(I0
g50
tp252
a(I0
g50
tp253
a(I0
g50
tp254
a(I0
g50
tp255
a(I0
g50
tp256
a(I0
g50
tp257
a(I0
g50
tp258
a(I0
g50
tp259
a(I0
g50
tp260
a(I0
g50
tp261
a(I0
g50
tp262
a(I0
g50
tp263
a(I0
g50
tp264
a(I0
g50
tp265
a(I0
g50
tp266
a(I0
g50
tp267
a(I0
g50
tp268
a(I0
g50
tp269
a(I0
g50
tp270
a(I0
g50
tp271
a(I0
g50
tp272
a(I0
g50
tp273
a(I0
g50
tp274
a(I0
g50
tp275
a(I0
g50
tp276
a(I0
g50
tp277
a(I0
g50
tp278
a(I0
g98
tp279
a(I0
g98
tp280
a(I0
g98
tp281
a(I0
g98
tp282
a(I0
g50
tp283
a(I0
g50
tp284
a(I0
g153
tp285
a(I0
g153
tp286
a(I0
g153
tp287
a(I0
g59
tp288
a(I0
g59
tp289
a(I0
g169
tp290
as.