(dp1
S'layout'
p2
(ilayout
Layout
p3
(dp4
S'capsules'
p5
(lp6
sS'numGhosts'
p7
I1
sS'food'
p8
(igame
Grid
p9
(dp10
S'CELLS_PER_INT'
p11
I30
sS'width'
p12
I7
sS'data'
p13
(lp14
(lp15
I00
aI00
aI00
aI00
aI00
aI00
aI00
aa(lp16
I00
aI01
aI00
aI00
aI00
aI00
aI00
aa(lp17
I00
aI00
aI00
aI00
aI00
aI00
aI00
aa(lp18
I00
aI00
aI00
aI01
aI00
aI00
aI00
aa(lp19
I00
aI00
aI00
aI00
aI00
aI00
aI00
aa(lp20
I00
aI00
aI00
aI00
aI00
aI00
aI00
aa(lp21
I00
aI00
aI00
aI00
aI00
aI00
aI00
aasS'height'
p22
I7
sbsS'agentPositions'
p23
(lp24
(I01
(I2
I5
tp25
tp26
a(I00
(I3
I1
ttp27
asg22
I7
sg12
I7
sS'walls'
p28
(igame
Grid
p29
(dp30
g11
I30
sg12
I7
sg13
(lp31
(lp32
I01
aI01
aI01
aI01
aI01
aI01
aI01
aa(lp33
I01
aI00
aI00
aI00
aI00
aI00
aI01
aa(lp34
I01
aI00
aI01
aI01
aI01
aI00
aI01
aa(lp35
I01
aI00
aI01
aI00
aI01
aI00
aI01
aa(lp36
I01
aI00
aI01
aI00
aI01
aI00
aI01
aa(lp37
I01
aI00
aI00
aI00
aI00
aI00
aI01
aa(lp38
I01
aI01
aI01
aI01
aI01
aI01
aI01
aasg22
I7
sbsS'totalFood'
p39
I2
sS'layoutText'
p40
(lp41
S'%%%%%%%'
p42
aS'% P   %'
p43
aS'% %%% %'
p44
aS'% %.  %'
p45
aS'% %%% %'
p46
aS'%. G  %'
p47
aS'%%%%%%%'
p48
asbsS'actions'
p49
(lp50
(I0
S'East'
p51
tp52
a(I0
S'West'
p53
tp54
a(I0
g51
tp55
a(I0
S'Stop'
p56
tp57
a(I0
g53
tp58
a(I0
g56
tp59
a(I0
g51
tp60
a(I0
g51
tp61
a(I0
g51
tp62
a(I0
S'South'
p63
tp64
a(I0
g56
tp65
a(I0
S'North'
p66
tp67
a(I0
g63
tp68
a(I0
g66
tp69
a(I0
g63
tp70
a(I0
g66
tp71
a(I0
g63
tp72
a(I0
g63
tp73
a(I0
g53
tp74
a(I0
g53
tp75
a(I0
g51
tp76
a(I0
g53
tp77
a(I0
g51
tp78
a(I0
g56
tp79
a(I0
g51
tp80
a(I0
g56
tp81
a(I0
g56
tp82
a(I0
g53
tp83
a(I0
g51
tp84
a(I0
g56
tp85
a(I0
g56
tp86
a(I0
g56
tp87
a(I0
g56
tp88
a(I0
g56
tp89
a(I0
g56
tp90
a(I0
g53
tp91
a(I0
g56
tp92
a(I0
g56
tp93
a(I0
g56
tp94
a(I0
g56
tp95
a(I0
g56
tp96
a(I0
g56
tp97
a(I0
g56
tp98
a(I0
g56
tp99
a(I0
g56
tp100
a(I0
g56
tp101
a(I0
g56
tp102
a(I0
g53
tp103
a(I0
g51
tp104
a(I0
g51
tp105
a(I0
g53
tp106
a(I0
g56
tp107
a(I0
g56
tp108
a(I0
g56
tp109
a(I0
g56
tp110
a(I0
g56
tp111
a(I0
g53
tp112
a(I0
g51
tp113
a(I0
g53
tp114
a(I0
g51
tp115
a(I0
g53
tp116
a(I0
g51
tp117
a(I0
g53
tp118
a(I0
g51
tp119
a(I0
g53
tp120
a(I0
g51
tp121
a(I0
g56
tp122
a(I0
g53
tp123
a(I0
g51
tp124
a(I0
g56
tp125
a(I0
g53
tp126
a(I0
g51
tp127
a(I0
g53
tp128
a(I0
g51
tp129
a(I0
g56
tp130
a(I0
g51
tp131
a(I0
g56
tp132
a(I0
g56
tp133
a(I0
g56
tp134
a(I0
g56
tp135
a(I0
g56
tp136
a(I0
g56
tp137
a(I0
g56
tp138
a(I0
g56
tp139
a(I0
g56
tp140
a(I0
g56
tp141
a(I0
g56
tp142
a(I0
g56
tp143
a(I0
g56
tp144
a(I0
g56
tp145
a(I0
g56
tp146
a(I0
g56
tp147
a(I0
g53
tp148
a(I0
g56
tp149
a(I0
g56
tp150
a(I0
g56
tp151
a(I0
g56
tp152
a(I0
g56
tp153
a(I0
g56
tp154
a(I0
g56
tp155
a(I0
g56
tp156
a(I0
g56
tp157
a(I0
g56
tp158
a(I0
g56
tp159
a(I0
g56
tp160
a(I0
g56
tp161
a(I0
g56
tp162
a(I0
g51
tp163
a(I0
g56
tp164
a(I0
g56
tp165
a(I0
g56
tp166
a(I0
g66
tp167
a(I0
g66
tp168
a(I0
g53
tp169
a(I0
g53
tp170
a(I0
g53
tp171
a(I0
g53
tp172
a(I0
g63
tp173
a(I0
g66
tp174
a(I0
g51
tp175
a(I0
g56
tp176
a(I0
g56
tp177
a(I0
g56
tp178
a(I0
g56
tp179
a(I0
g56
tp180
a(I0
g56
tp181
a(I0
g53
tp182
a(I0
g63
tp183
a(I0
g56
tp184
a(I0
g63
tp185
a(I0
g56
tp186
a(I0
g56
tp187
a(I0
g66
tp188
a(I0
g56
tp189
a(I0
g56
tp190
a(I0
g56
tp191
a(I0
g56
tp192
a(I0
g56
tp193
a(I0
g56
tp194
a(I0
g56
tp195
a(I0
g56
tp196
a(I0
g56
tp197
a(I0
g56
tp198
a(I0
g56
tp199
a(I0
g56
tp200
a(I0
g63
tp201
a(I0
g56
tp202
a(I0
g56
tp203
a(I0
g56
tp204
a(I0
g56
tp205
a(I0
g56
tp206
a(I0
g56
tp207
a(I0
g56
tp208
a(I0
g56
tp209
a(I0
g56
tp210
a(I0
g56
tp211
a(I0
g56
tp212
a(I0
g56
tp213
a(I0
g56
tp214
a(I0
g66
tp215
a(I0
g56
tp216
a(I0
g56
tp217
a(I0
g56
tp218
a(I0
g56
tp219
a(I0
g56
tp220
a(I0
g56
tp221
a(I0
g56
tp222
a(I0
g56
tp223
a(I0
g56
tp224
a(I0
g56
tp225
a(I0
g56
tp226
a(I0
g56
tp227
a(I0
g56
tp228
a(I0
g56
tp229
a(I0
g56
tp230
a(I0
g56
tp231
a(I0
g56
tp232
a(I0
g56
tp233
a(I0
g56
tp234
a(I0
g56
tp235
a(I0
g56
tp236
a(I0
g56
tp237
a(I0
g56
tp238
a(I0
g56
tp239
a(I0
g56
tp240
a(I0
g56
tp241
a(I0
g56
tp242
a(I0
g56
tp243
a(I0
g56
tp244
a(I0
g56
tp245
a(I0
g56
tp246
a(I0
g56
tp247
a(I0
g56
tp248
a(I0
g56
tp249
a(I0
g56
tp250
a(I0
g56
tp251
a(I0
g56
tp252
a(I0
g56
tp253
a(I0
g56
tp254
a(I0
g56
tp255
a(I0
g56
tp256
a(I0
g66
tp257
a(I0
g51
tp258
a(I0
g53
tp259
a(I0
g51
tp260
a(I0
g53
tp261
a(I0
g51
tp262
a(I0
g53
tp263
a(I0
g63
tp264
a(I0
g66
tp265
a(I0
g51
tp266
a(I0
g56
tp267
a(I0
g51
tp268
a(I0
g53
tp269
a(I0
g53
tp270
a(I0
g63
tp271
a(I0
g66
tp272
a(I0
g51
tp273
a(I0
g51
tp274
a(I0
g53
tp275
a(I0
g53
tp276
a(I0
g63
tp277
a(I0
g66
tp278
a(I0
g56
tp279
a(I0
g51
tp280
a(I0
g51
tp281
a(I0
g53
tp282
a(I0
g53
tp283
a(I0
g63
tp284
a(I0
g66
tp285
a(I0
g51
tp286
a(I0
g53
tp287
a(I0
g51
tp288
a(I0
g53
tp289
a(I0
g63
tp290
a(I0
g66
tp291
a(I0
g51
tp292
a(I0
g56
tp293
a(I0
g56
tp294
a(I0
g56
tp295
a(I0
g56
tp296
a(I0
g56
tp297
a(I0
g56
tp298
a(I0
g56
tp299
a(I0
g56
tp300
a(I0
g56
tp301
a(I0
g56
tp302
a(I0
g56
tp303
a(I0
g53
tp304
a(I0
g51
tp305
a(I0
g53
tp306
a(I0
g51
tp307
a(I0
g53
tp308
a(I0
g51
tp309
a(I0
g56
tp310
a(I0
g56
tp311
a(I0
g56
tp312
a(I0
g56
tp313
a(I0
g56
tp314
a(I0
g53
tp315
a(I0
g51
tp316
a(I0
g56
tp317
a(I0
g56
tp318
a(I0
g53
tp319
a(I0
g63
tp320
a(I0
g66
tp321
a(I0
g51
tp322
a(I0
g51
tp323
a(I0
g53
tp324
a(I0
g53
tp325
a(I0
g63
tp326
a(I0
g66
tp327
a(I0
g51
tp328
a(I0
g53
tp329
a(I0
g63
tp330
a(I0
g66
tp331
a(I0
g51
tp332
a(I0
g51
tp333
a(I0
g53
tp334
a(I0
g53
tp335
a(I0
g63
tp336
a(I0
g56
tp337
a(I0
g66
tp338
a(I0
g51
tp339
a(I0
g56
tp340
a(I0
g56
tp341
a(I0
g56
tp342
a(I0
g56
tp343
a(I0
g56
tp344
a(I0
g56
tp345
a(I0
g56
tp346
a(I0
g56
tp347
a(I0
g56
tp348
a(I0
g53
tp349
a(I0
g63
tp350
a(I0
g66
tp351
a(I0
g51
tp352
a(I0
g56
tp353
a(I0
g56
tp354
a(I0
g56
tp355
a(I0
g56
tp356
a(I0
g56
tp357
a(I0
g56
tp358
a(I0
g56
tp359
a(I0
g53
tp360
a(I0
g63
tp361
a(I0
g66
tp362
a(I0
g51
tp363
a(I0
g56
tp364
a(I0
g56
tp365
a(I0
g56
tp366
a(I0
g51
tp367
a(I0
g53
tp368
a(I0
g53
tp369
a(I0
g63
tp370
a(I0
g66
tp371
a(I0
g51
tp372
a(I0
g51
tp373
a(I0
g53
tp374
a(I0
g56
tp375
a(I0
g53
tp376
a(I0
g63
tp377
a(I0
g66
tp378
a(I0
g51
tp379
a(I0
g51
tp380
a(I0
g53
tp381
a(I0
g53
tp382
a(I0
g63
tp383
a(I0
g66
tp384
a(I0
g51
tp385
a(I0
g51
tp386
a(I0
g53
tp387
a(I0
g53
tp388
a(I0
g63
tp389
a(I0
g66
tp390
a(I0
g51
tp391
a(I0
g56
tp392
a(I0
g56
tp393
a(I0
g56
tp394
a(I0
g56
tp395
a(I0
g51
tp396
a(I0
g53
tp397
a(I0
g53
tp398
a(I0
g63
tp399
a(I0
g66
tp400
a(I0
g51
tp401
a(I0
g51
tp402
a(I0
g53
tp403
a(I0
g53
tp404
a(I0
g63
tp405
a(I0
g56
tp406
a(I0
g66
tp407
a(I0
g51
tp408
a(I0
g51
tp409
a(I0
g53
tp410
a(I0
g53
tp411
a(I0
g51
tp412
a(I0
g51
tp413
a(I0
g53
tp414
a(I0
g53
tp415
a(I0
g63
tp416
a(I0
g66
tp417
a(I0
g56
tp418
a(I0
g51
tp419
a(I0
g51
tp420
a(I0
g53
tp421
a(I0
g53
tp422
a(I0
g63
tp423
a(I0
g56
tp424
a(I0
g56
tp425
a(I0
g56
tp426
a(I0
g56
tp427
a(I0
g56
tp428
a(I0
g56
tp429
a(I0
g56
tp430
a(I0
g56
tp431
a(I0
g56
tp432
a(I0
g56
tp433
a(I0
g56
tp434
a(I0
g66
tp435
a(I0
g51
tp436
a(I0
g51
tp437
a(I0
g53
tp438
a(I0
g53
tp439
a(I0
g63
tp440
a(I0
g66
tp441
a(I0
g51
tp442
a(I0
g51
tp443
a(I0
g53
tp444
a(I0
g53
tp445
a(I0
g63
tp446
a(I0
g66
tp447
a(I0
g56
tp448
a(I0
g56
tp449
a(I0
g51
tp450
a(I0
g56
tp451
a(I0
g53
tp452
a(I0
g51
tp453
a(I0
g51
tp454
a(I0
g53
tp455
a(I0
g53
tp456
a(I0
g56
tp457
a(I0
g63
tp458
a(I0
g66
tp459
a(I0
g51
tp460
a(I0
g51
tp461
a(I0
g53
tp462
a(I0
g53
tp463
a(I0
g63
tp464
a(I0
g66
tp465
a(I0
g51
tp466
a(I0
g51
tp467
a(I0
g53
tp468
a(I0
g53
tp469
a(I0
g63
tp470
a(I0
g66
tp471
a(I0
g51
tp472
a(I0
g56
tp473
a(I0
g51
tp474
a(I0
g53
tp475
a(I0
g53
tp476
a(I0
g63
tp477
a(I0
g66
tp478
a(I0
g51
tp479
a(I0
g51
tp480
a(I0
g53
tp481
a(I0
g53
tp482
a(I0
g63
tp483
a(I0
g66
tp484
a(I0
g51
tp485
a(I0
g51
tp486
a(I0
g53
tp487
a(I0
g53
tp488
a(I0
g63
tp489
a(I0
g66
tp490
a(I0
g63
tp491
a(I0
g63
tp492
a(I0
g66
tp493
a(I0
g56
tp494
a(I0
g56
tp495
a(I0
g56
tp496
a(I0
g56
tp497
a(I0
g56
tp498
a(I0
g56
tp499
a(I0
g56
tp500
a(I0
g56
tp501
a(I0
g56
tp502
a(I0
g66
tp503
a(I0
g51
tp504
a(I0
g51
tp505
a(I0
g53
tp506
a(I0
g53
tp507
a(I0
g63
tp508
a(I0
g66
tp509
a(I0
g51
tp510
a(I0
g51
tp511
a(I0
g53
tp512
a(I0
g53
tp513
a(I0
g63
tp514
a(I0
g66
tp515
a(I0
g51
tp516
a(I0
g51
tp517
a(I0
g53
tp518
a(I0
g53
tp519
a(I0
g63
tp520
a(I0
g66
tp521
a(I0
g51
tp522
a(I0
g51
tp523
a(I0
g53
tp524
a(I0
g53
tp525
a(I0
g63
tp526
a(I0
g66
tp527
a(I0
g51
tp528
a(I0
g51
tp529
a(I0
g53
tp530
a(I0
g51
tp531
a(I0
g53
tp532
a(I0
g53
tp533
a(I0
g63
tp534
a(I0
g66
tp535
a(I0
g51
tp536
a(I0
g51
tp537
a(I0
g53
tp538
a(I0
g53
tp539
a(I0
g63
tp540
a(I0
g66
tp541
a(I0
g56
tp542
a(I0
g51
tp543
a(I0
g51
tp544
a(I0
g53
tp545
a(I0
g53
tp546
a(I0
g63
tp547
a(I0
g66
tp548
a(I0
g51
tp549
a(I0
g51
tp550
a(I0
g53
tp551
a(I0
g53
tp552
a(I0
g63
tp553
a(I0
g66
tp554
a(I0
g51
tp555
a(I0
g56
tp556
a(I0
g51
tp557
a(I0
g53
tp558
a(I0
g53
tp559
a(I0
g63
tp560
a(I0
g66
tp561
a(I0
g51
tp562
a(I0
g51
tp563
a(I0
g53
tp564
a(I0
g53
tp565
a(I0
g51
tp566
a(I0
g56
tp567
a(I0
g51
tp568
a(I0
g53
tp569
a(I0
g53
tp570
a(I0
g63
tp571
a(I0
g63
tp572
a(I0
g66
tp573
a(I0
g56
tp574
a(I0
g56
tp575
a(I0
g56
tp576
a(I0
g56
tp577
a(I0
g66
tp578
a(I0
g63
tp579
a(I0
g66
tp580
a(I0
g51
tp581
a(I0
g56
tp582
a(I0
g56
tp583
a(I0
g56
tp584
a(I0
g56
tp585
a(I0
g51
tp586
a(I0
g53
tp587
a(I0
g53
tp588
a(I0
g63
tp589
a(I0
g66
tp590
a(I0
g51
tp591
a(I0
g51
tp592
a(I0
g53
tp593
a(I0
g53
tp594
a(I0
g63
tp595
a(I0
g66
tp596
a(I0
g51
tp597
a(I0
g51
tp598
a(I0
g53
tp599
a(I0
g53
tp600
a(I0
g63
tp601
a(I0
g66
tp602
a(I0
g51
tp603
a(I0
g56
tp604
a(I0
g51
tp605
a(I0
g53
tp606
a(I0
g53
tp607
a(I0
g51
tp608
a(I0
g56
tp609
a(I0
g51
tp610
a(I0
g53
tp611
a(I0
g53
tp612
a(I0
g63
tp613
a(I0
g66
tp614
a(I0
g51
tp615
a(I0
g51
tp616
a(I0
g53
tp617
a(I0
g53
tp618
a(I0
g63
tp619
a(I0
g66
tp620
a(I0
g51
tp621
a(I0
g51
tp622
a(I0
g53
tp623
a(I0
g53
tp624
a(I0
g56
tp625
a(I0
g63
tp626
a(I0
g66
tp627
a(I0
g51
tp628
a(I0
g51
tp629
a(I0
g53
tp630
a(I0
g53
tp631
a(I0
g63
tp632
a(I0
g56
tp633
a(I0
g66
tp634
a(I0
g51
tp635
a(I0
g56
tp636
a(I0
g56
tp637
a(I0
g56
tp638
a(I0
g56
tp639
a(I0
g56
tp640
a(I0
g53
tp641
a(I0
g51
tp642
a(I0
g56
tp643
a(I0
g56
tp644
a(I0
g56
tp645
a(I0
g56
tp646
a(I0
g56
tp647
a(I0
g56
tp648
a(I0
g51
tp649
a(I0
g53
tp650
a(I0
g53
tp651
a(I0
g56
tp652
a(I0
g63
tp653
a(I0
g66
tp654
a(I0
g51
tp655
a(I0
g51
tp656
a(I0
g53
tp657
a(I0
g53
tp658
a(I0
g63
tp659
a(I0
g66
tp660
a(I0
g51
tp661
a(I0
g51
tp662
a(I0
g53
tp663
a(I0
g53
tp664
a(I0
g63
tp665
a(I0
g66
tp666
a(I0
g51
tp667
a(I0
g51
tp668
a(I0
g53
tp669
a(I0
g53
tp670
a(I0
g63
tp671
a(I0
g66
tp672
a(I0
g51
tp673
a(I0
g56
tp674
a(I0
g51
tp675
a(I0
g53
tp676
a(I0
g53
tp677
a(I0
g63
tp678
a(I0
g66
tp679
a(I0
g51
tp680
a(I0
g56
tp681
a(I0
g56
tp682
a(I0
g56
tp683
a(I0
g51
tp684
a(I0
g53
tp685
a(I0
g53
tp686
a(I0
g63
tp687
a(I0
g66
tp688
a(I0
g51
tp689
a(I0
g51
tp690
a(I0
g53
tp691
a(I0
g53
tp692
a(I0
g63
tp693
a(I0
g66
tp694
a(I0
g51
tp695
a(I0
g51
tp696
a(I0
g53
tp697
a(I0
g53
tp698
a(I0
g63
tp699
a(I0
g66
tp700
a(I0
g51
tp701
a(I0
g51
tp702
a(I0
g53
tp703
a(I0
g53
tp704
a(I0
g63
tp705
a(I0
g66
tp706
a(I0
g51
tp707
a(I0
g51
tp708
a(I0
g53
tp709
a(I0
g53
tp710
a(I0
g63
tp711
a(I0
g63
tp712
a(I0
g56
tp713
a(I0
g66
tp714
a(I0
g66
tp715
a(I0
g51
tp716
a(I0
g51
tp717
a(I0
g53
tp718
a(I0
g53
tp719
a(I0
g63
tp720
a(I0
g66
tp721
a(I0
g51
tp722
a(I0
g51
tp723
a(I0
g53
tp724
a(I0
g53
tp725
a(I0
g56
tp726
a(I0
g63
tp727
a(I0
g66
tp728
a(I0
g51
tp729
a(I0
g51
tp730
a(I0
g53
tp731
a(I0
g53
tp732
a(I0
g63
tp733
a(I0
g66
tp734
a(I0
g51
tp735
a(I0
g51
tp736
a(I0
g53
tp737
a(I0
g53
tp738
a(I0
g63
tp739
a(I0
g66
tp740
a(I0
g51
tp741
a(I0
g51
tp742
a(I0
g53
tp743
a(I0
g53
tp744
a(I0
g63
tp745
a(I0
g66
tp746
a(I0
g51
tp747
a(I0
g56
tp748
a(I0
g56
tp749
a(I0
g56
tp750
a(I0
g51
tp751
a(I0
g53
tp752
a(I0
g53
tp753
a(I0
g63
tp754
a(I0
g66
tp755
a(I0
g51
tp756
a(I0
g51
tp757
a(I0
g56
tp758
a(I0
g53
tp759
a(I0
g53
tp760
a(I0
g63
tp761
a(I0
g66
tp762
a(I0
g51
tp763
a(I0
g56
tp764
a(I0
g56
tp765
a(I0
g51
tp766
a(I0
g53
tp767
a(I0
g53
tp768
a(I0
g63
tp769
a(I0
g66
tp770
a(I0
g51
tp771
a(I0
g51
tp772
a(I0
g53
tp773
a(I0
g53
tp774
a(I0
g63
tp775
a(I0
g66
tp776
a(I0
g51
tp777
a(I0
g51
tp778
a(I0
g53
tp779
a(I0
g53
tp780
a(I0
g51
tp781
a(I0
g53
tp782
a(I0
g63
tp783
a(I0
g66
tp784
a(I0
g51
tp785
a(I0
g51
tp786
a(I0
g53
tp787
a(I0
g53
tp788
a(I0
g56
tp789
a(I0
g63
tp790
a(I0
g66
tp791
a(I0
g56
tp792
a(I0
g56
tp793
a(I0
g51
tp794
a(I0
g51
tp795
a(I0
g53
tp796
a(I0
g53
tp797
a(I0
g63
tp798
a(I0
g56
tp799
a(I0
g66
tp800
a(I0
g51
tp801
a(I0
g56
tp802
a(I0
g56
tp803
a(I0
g51
tp804
a(I0
g53
tp805
a(I0
g53
tp806
a(I0
g63
tp807
a(I0
g66
tp808
a(I0
g51
tp809
a(I0
g56
tp810
a(I0
g51
tp811
a(I0
g53
tp812
a(I0
g53
tp813
a(I0
g63
tp814
a(I0
g66
tp815
a(I0
g51
tp816
a(I0
g51
tp817
a(I0
g53
tp818
a(I0
g53
tp819
a(I0
g63
tp820
a(I0
g63
tp821
a(I0
g56
tp822
a(I0
g56
tp823
a(I0
g56
tp824
a(I0
g56
tp825
a(I0
g56
tp826
a(I0
g56
tp827
a(I0
g56
tp828
a(I0
g56
tp829
a(I0
g56
tp830
a(I0
g56
tp831
a(I0
g56
tp832
a(I0
g56
tp833
a(I0
g56
tp834
a(I0
g56
tp835
a(I0
g56
tp836
a(I0
g56
tp837
a(I0
g56
tp838
a(I0
g56
tp839
a(I0
g56
tp840
a(I0
g56
tp841
a(I0
g56
tp842
a(I0
g56
tp843
a(I0
g56
tp844
a(I0
g56
tp845
a(I0
g56
tp846
a(I0
g56
tp847
a(I0
g56
tp848
a(I0
g56
tp849
a(I0
g56
tp850
a(I0
g56
tp851
a(I0
g66
tp852
a(I0
g56
tp853
a(I0
g56
tp854
a(I0
g56
tp855
a(I0
g56
tp856
a(I0
g56
tp857
a(I0
g56
tp858
a(I0
g56
tp859
a(I0
g56
tp860
a(I0
g56
tp861
a(I0
g56
tp862
a(I0
g56
tp863
a(I0
g56
tp864
a(I0
g56
tp865
a(I0
g56
tp866
a(I0
g56
tp867
a(I0
g56
tp868
a(I0
g56
tp869
a(I0
g56
tp870
a(I0
g56
tp871
a(I0
g56
tp872
a(I0
g66
tp873
a(I0
g63
tp874
a(I0
g56
tp875
a(I0
g56
tp876
a(I0
g56
tp877
a(I0
g56
tp878
a(I0
g66
tp879
a(I0
g56
tp880
a(I0
g56
tp881
a(I0
g51
tp882
a(I0
g51
tp883
a(I0
g53
tp884
a(I0
g53
tp885
a(I0
g63
tp886
a(I0
g66
tp887
a(I0
g51
tp888
a(I0
g56
tp889
a(I0
g56
tp890
a(I0
g51
tp891
a(I0
g53
tp892
a(I0
g53
tp893
a(I0
g63
tp894
a(I0
g56
tp895
a(I0
g56
tp896
a(I0
g56
tp897
a(I0
g56
tp898
a(I0
g56
tp899
a(I0
g56
tp900
a(I0
g66
tp901
a(I0
g51
tp902
a(I0
g51
tp903
a(I0
g53
tp904
a(I0
g53
tp905
a(I0
g63
tp906
a(I0
g66
tp907
a(I0
g56
tp908
a(I0
g56
tp909
a(I0
g56
tp910
a(I0
g56
tp911
a(I0
g56
tp912
a(I0
g63
tp913
a(I0
g66
tp914
a(I0
g51
tp915
a(I0
g51
tp916
a(I0
g53
tp917
a(I0
g53
tp918
a(I0
g51
tp919
a(I0
g51
tp920
a(I0
g53
tp921
a(I0
g53
tp922
a(I0
g63
tp923
a(I0
g56
tp924
a(I0
g66
tp925
a(I0
g56
tp926
a(I0
g51
tp927
a(I0
g51
tp928
a(I0
g53
tp929
a(I0
g53
tp930
a(I0
g63
tp931
a(I0
g66
tp932
a(I0
g63
tp933
a(I0
g63
tp934
a(I0
g56
tp935
a(I0
g66
tp936
a(I0
g66
tp937
a(I0
g51
tp938
a(I0
g56
tp939
a(I0
g56
tp940
a(I0
g56
tp941
a(I0
g56
tp942
a(I0
g56
tp943
a(I0
g51
tp944
a(I0
g53
tp945
a(I0
g53
tp946
a(I0
g63
tp947
a(I0
g66
tp948
a(I0
g51
tp949
a(I0
g56
tp950
a(I0
g56
tp951
as.