(dp1
S'layout'
p2
(ilayout
Layout
p3
(dp4
S'capsules'
p5
(lp6
sS'numGhosts'
p7
I1
sS'food'
p8
(igame
Grid
p9
(dp10
S'CELLS_PER_INT'
p11
I30
sS'width'
p12
I7
sS'data'
p13
(lp14
(lp15
I00
aI00
aI00
aI00
aI00
aI00
aI00
aa(lp16
I00
aI01
aI00
aI00
aI00
aI00
aI00
aa(lp17
I00
aI00
aI00
aI00
aI00
aI00
aI00
aa(lp18
I00
aI00
aI00
aI01
aI00
aI00
aI00
aa(lp19
I00
aI00
aI00
aI00
aI00
aI00
aI00
aa(lp20
I00
aI00
aI00
aI00
aI00
aI00
aI00
aa(lp21
I00
aI00
aI00
aI00
aI00
aI00
aI00
aasS'height'
p22
I7
sbsS'agentPositions'
p23
(lp24
(I01
(I2
I5
tp25
tp26
a(I00
(I3
I1
ttp27
asg22
I7
sg12
I7
sS'walls'
p28
(igame
Grid
p29
(dp30
g11
I30
sg12
I7
sg13
(lp31
(lp32
I01
aI01
aI01
aI01
aI01
aI01
aI01
aa(lp33
I01
aI00
aI00
aI00
aI00
aI00
aI01
aa(lp34
I01
aI00
aI01
aI01
aI01
aI00
aI01
aa(lp35
I01
aI00
aI01
aI00
aI01
aI00
aI01
aa(lp36
I01
aI00
aI01
aI00
aI01
aI00
aI01
aa(lp37
I01
aI00
aI00
aI00
aI00
aI00
aI01
aa(lp38
I01
aI01
aI01
aI01
aI01
aI01
aI01
aasg22
I7
sbsS'totalFood'
p39
I2
sS'layoutText'
p40
(lp41
S'%%%%%%%'
p42
aS'% P   %'
p43
aS'% %%% %'
p44
aS'% %.  %'
p45
aS'% %%% %'
p46
aS'%. G  %'
p47
aS'%%%%%%%'
p48
asbsS'actions'
p49
(lp50
(I0
S'Stop'
p51
tp52
a(I0
g51
tp53
a(I0
S'East'
p54
tp55
a(I0
S'West'
p56
tp57
a(I0
g51
tp58
a(I0
g51
tp59
a(I0
g56
tp60
a(I0
S'South'
p61
tp62
a(I0
S'North'
p63
tp64
a(I0
g61
tp65
a(I0
g61
tp66
a(I0
g63
tp67
a(I0
g63
tp68
a(I0
g61
tp69
a(I0
g61
tp70
a(I0
g63
tp71
a(I0
g63
tp72
a(I0
g61
tp73
a(I0
g61
tp74
a(I0
g63
tp75
a(I0
g63
tp76
a(I0
g61
tp77
a(I0
g61
tp78
a(I0
g63
tp79
a(I0
g63
tp80
a(I0
g61
tp81
a(I0
g61
tp82
a(I0
g63
tp83
a(I0
g63
tp84
a(I0
g51
tp85
a(I0
g61
tp86
a(I0
g61
tp87
a(I0
g63
tp88
a(I0
g51
tp89
a(I0
g63
tp90
a(I0
g61
tp91
a(I0
g61
tp92
a(I0
g63
tp93
a(I0
g63
tp94
a(I0
g61
tp95
a(I0
g61
tp96
a(I0
g63
tp97
a(I0
g63
tp98
a(I0
g61
tp99
a(I0
g61
tp100
a(I0
g63
tp101
a(I0
g63
tp102
a(I0
g61
tp103
a(I0
g61
tp104
a(I0
g63
tp105
a(I0
g63
tp106
a(I0
g61
tp107
a(I0
g61
tp108
a(I0
g63
tp109
a(I0
g51
tp110
a(I0
g61
tp111
a(I0
g61
tp112
a(I0
g51
tp113
a(I0
g51
tp114
a(I0
g51
tp115
a(I0
g51
tp116
a(I0
g51
tp117
a(I0
g51
tp118
a(I0
g51
tp119
a(I0
g51
tp120
a(I0
g51
tp121
a(I0
g51
tp122
a(I0
g51
tp123
a(I0
g51
tp124
a(I0
g51
tp125
a(I0
g51
tp126
a(I0
g51
tp127
a(I0
g61
tp128
a(I0
g54
tp129
a(I0
g56
tp130
a(I0
g51
tp131
a(I0
g51
tp132
a(I0
g51
tp133
a(I0
g51
tp134
a(I0
g51
tp135
a(I0
g51
tp136
a(I0
g51
tp137
a(I0
g51
tp138
a(I0
g51
tp139
a(I0
g54
tp140
a(I0
g56
tp141
a(I0
g51
tp142
a(I0
g51
tp143
a(I0
g51
tp144
a(I0
g51
tp145
a(I0
g51
tp146
a(I0
g51
tp147
a(I0
g51
tp148
a(I0
g51
tp149
a(I0
g63
tp150
a(I0
g63
tp151
a(I0
g51
tp152
a(I0
g51
tp153
a(I0
g51
tp154
a(I0
g51
tp155
a(I0
g51
tp156
a(I0
g51
tp157
a(I0
g51
tp158
a(I0
g51
tp159
a(I0
g51
tp160
a(I0
g51
tp161
a(I0
g51
tp162
a(I0
g51
tp163
a(I0
g51
tp164
a(I0
g51
tp165
a(I0
g51
tp166
a(I0
g51
tp167
a(I0
g51
tp168
a(I0
g51
tp169
a(I0
g51
tp170
a(I0
g51
tp171
a(I0
g51
tp172
a(I0
g61
tp173
a(I0
g61
tp174
a(I0
g51
tp175
a(I0
g51
tp176
a(I0
g51
tp177
a(I0
g51
tp178
a(I0
g51
tp179
a(I0
g51
tp180
a(I0
g51
tp181
a(I0
g51
tp182
a(I0
g51
tp183
a(I0
g51
tp184
a(I0
g51
tp185
a(I0
g51
tp186
a(I0
g51
tp187
a(I0
g51
tp188
a(I0
g51
tp189
a(I0
g51
tp190
a(I0
g51
tp191
a(I0
g63
tp192
a(I0
g63
tp193
a(I0
g51
tp194
a(I0
g51
tp195
a(I0
g51
tp196
a(I0
g51
tp197
a(I0
g51
tp198
a(I0
g51
tp199
a(I0
g51
tp200
a(I0
g51
tp201
a(I0
g51
tp202
a(I0
g51
tp203
a(I0
g51
tp204
a(I0
g51
tp205
a(I0
g51
tp206
a(I0
g51
tp207
a(I0
g51
tp208
a(I0
g51
tp209
a(I0
g51
tp210
a(I0
g51
tp211
a(I0
g51
tp212
a(I0
g51
tp213
a(I0
g51
tp214
a(I0
g51
tp215
a(I0
g51
tp216
a(I0
g51
tp217
a(I0
g51
tp218
a(I0
g51
tp219
a(I0
g51
tp220
a(I0
g51
tp221
a(I0
g51
tp222
a(I0
g61
tp223
a(I0
g51
tp224
a(I0
g51
tp225
a(I0
g51
tp226
a(I0
g51
tp227
a(I0
g51
tp228
a(I0
g61
tp229
a(I0
g54
tp230
a(I0
g56
tp231
a(I0
g54
tp232
a(I0
g56
tp233
a(I0
g54
tp234
a(I0
g56
tp235
a(I0
g54
tp236
a(I0
g56
tp237
a(I0
g51
tp238
a(I0
g51
tp239
a(I0
g54
tp240
a(I0
g56
tp241
a(I0
g54
tp242
a(I0
g56
tp243
a(I0
g54
tp244
a(I0
g56
tp245
a(I0
g54
tp246
a(I0
g56
tp247
a(I0
g54
tp248
a(I0
g56
tp249
a(I0
g54
tp250
a(I0
g56
tp251
a(I0
g54
tp252
a(I0
g56
tp253
a(I0
g54
tp254
a(I0
g56
tp255
a(I0
g54
tp256
a(I0
g56
tp257
a(I0
g54
tp258
a(I0
g56
tp259
a(I0
g63
tp260
a(I0
g63
tp261
a(I0
g63
tp262
a(I0
g51
tp263
a(I0
g51
tp264
a(I0
g51
tp265
a(I0
g51
tp266
a(I0
g51
tp267
a(I0
g51
tp268
a(I0
g51
tp269
a(I0
g51
tp270
a(I0
g51
tp271
a(I0
g51
tp272
a(I0
g51
tp273
a(I0
g61
tp274
a(I0
g51
tp275
a(I0
g51
tp276
a(I0
g51
tp277
a(I0
g51
tp278
a(I0
g51
tp279
a(I0
g51
tp280
a(I0
g51
tp281
a(I0
g51
tp282
a(I0
g51
tp283
a(I0
g51
tp284
a(I0
g51
tp285
a(I0
g51
tp286
a(I0
g51
tp287
a(I0
g51
tp288
a(I0
g51
tp289
a(I0
g51
tp290
a(I0
g51
tp291
a(I0
g51
tp292
a(I0
g51
tp293
a(I0
g51
tp294
a(I0
g51
tp295
a(I0
g51
tp296
a(I0
g51
tp297
a(I0
g51
tp298
a(I0
g51
tp299
a(I0
g51
tp300
a(I0
g51
tp301
a(I0
g51
tp302
a(I0
g51
tp303
a(I0
g51
tp304
a(I0
g61
tp305
a(I0
g51
tp306
a(I0
g51
tp307
a(I0
g51
tp308
a(I0
g51
tp309
a(I0
g51
tp310
a(I0
g51
tp311
a(I0
g51
tp312
a(I0
g51
tp313
a(I0
g51
tp314
a(I0
g51
tp315
a(I0
g51
tp316
a(I0
g51
tp317
a(I0
g51
tp318
a(I0
g51
tp319
a(I0
g51
tp320
a(I0
g51
tp321
a(I0
g51
tp322
a(I0
g51
tp323
a(I0
g51
tp324
a(I0
g51
tp325
a(I0
g51
tp326
a(I0
g51
tp327
a(I0
g51
tp328
a(I0
g51
tp329
a(I0
g51
tp330
a(I0
g51
tp331
a(I0
g51
tp332
a(I0
g51
tp333
a(I0
g51
tp334
a(I0
g51
tp335
a(I0
g51
tp336
a(I0
g51
tp337
a(I0
g51
tp338
a(I0
g51
tp339
a(I0
g51
tp340
a(I0
g51
tp341
a(I0
g51
tp342
a(I0
g51
tp343
a(I0
g51
tp344
a(I0
g51
tp345
a(I0
g51
tp346
a(I0
g51
tp347
a(I0
g51
tp348
a(I0
g51
tp349
a(I0
g51
tp350
a(I0
g51
tp351
a(I0
g51
tp352
a(I0
g63
tp353
a(I0
g63
tp354
a(I0
g51
tp355
a(I0
g51
tp356
a(I0
g51
tp357
a(I0
g51
tp358
a(I0
g51
tp359
a(I0
g51
tp360
a(I0
g51
tp361
a(I0
g51
tp362
a(I0
g51
tp363
a(I0
g51
tp364
a(I0
g51
tp365
a(I0
g51
tp366
a(I0
g51
tp367
a(I0
g51
tp368
a(I0
g51
tp369
a(I0
g51
tp370
a(I0
g51
tp371
a(I0
g51
tp372
a(I0
g51
tp373
a(I0
g51
tp374
a(I0
g51
tp375
a(I0
g51
tp376
a(I0
g51
tp377
a(I0
g51
tp378
a(I0
g51
tp379
a(I0
g51
tp380
a(I0
g51
tp381
a(I0
g51
tp382
a(I0
g51
tp383
a(I0
g51
tp384
a(I0
g51
tp385
a(I0
g51
tp386
a(I0
g51
tp387
a(I0
g51
tp388
a(I0
g51
tp389
a(I0
g51
tp390
a(I0
g51
tp391
a(I0
g51
tp392
a(I0
g51
tp393
a(I0
g51
tp394
a(I0
g51
tp395
a(I0
g51
tp396
a(I0
g51
tp397
a(I0
g51
tp398
a(I0
g51
tp399
a(I0
g51
tp400
a(I0
g51
tp401
a(I0
g51
tp402
a(I0
g51
tp403
a(I0
g51
tp404
a(I0
g51
tp405
a(I0
g51
tp406
a(I0
g51
tp407
a(I0
g51
tp408
a(I0
g51
tp409
a(I0
g51
tp410
a(I0
g51
tp411
a(I0
g51
tp412
a(I0
g51
tp413
a(I0
g51
tp414
a(I0
g51
tp415
a(I0
g51
tp416
a(I0
g51
tp417
a(I0
g51
tp418
a(I0
g51
tp419
a(I0
g51
tp420
a(I0
g51
tp421
a(I0
g51
tp422
a(I0
g51
tp423
a(I0
g51
tp424
a(I0
g51
tp425
a(I0
g51
tp426
a(I0
g51
tp427
a(I0
g51
tp428
a(I0
g51
tp429
a(I0
g63
tp430
a(I0
g51
tp431
a(I0
g51
tp432
a(I0
g51
tp433
a(I0
g51
tp434
a(I0
g51
tp435
a(I0
g51
tp436
a(I0
g51
tp437
a(I0
g51
tp438
a(I0
g51
tp439
a(I0
g51
tp440
a(I0
g51
tp441
a(I0
g51
tp442
a(I0
g51
tp443
a(I0
g51
tp444
a(I0
g51
tp445
a(I0
g51
tp446
a(I0
g51
tp447
a(I0
g51
tp448
a(I0
g51
tp449
a(I0
g51
tp450
a(I0
g51
tp451
a(I0
g51
tp452
a(I0
g51
tp453
a(I0
g51
tp454
a(I0
g51
tp455
a(I0
g51
tp456
a(I0
g61
tp457
a(I0
g51
tp458
a(I0
g51
tp459
a(I0
g51
tp460
a(I0
g51
tp461
a(I0
g51
tp462
a(I0
g51
tp463
a(I0
g51
tp464
a(I0
g51
tp465
a(I0
g51
tp466
a(I0
g51
tp467
a(I0
g51
tp468
a(I0
g51
tp469
a(I0
g51
tp470
a(I0
g51
tp471
a(I0
g51
tp472
a(I0
g51
tp473
a(I0
g51
tp474
a(I0
g51
tp475
a(I0
g61
tp476
a(I0
g51
tp477
a(I0
g51
tp478
a(I0
g51
tp479
a(I0
g51
tp480
a(I0
g51
tp481
a(I0
g51
tp482
a(I0
g51
tp483
a(I0
g51
tp484
a(I0
g51
tp485
a(I0
g51
tp486
a(I0
g51
tp487
a(I0
g51
tp488
a(I0
g51
tp489
a(I0
g51
tp490
a(I0
g51
tp491
a(I0
g51
tp492
a(I0
g51
tp493
a(I0
g51
tp494
a(I0
g51
tp495
a(I0
g51
tp496
a(I0
g51
tp497
a(I0
g51
tp498
a(I0
g51
tp499
a(I0
g51
tp500
a(I0
g51
tp501
a(I0
g51
tp502
a(I0
g51
tp503
a(I0
g51
tp504
a(I0
g51
tp505
a(I0
g51
tp506
a(I0
g51
tp507
a(I0
g51
tp508
a(I0
g51
tp509
a(I0
g51
tp510
a(I0
g51
tp511
a(I0
g51
tp512
a(I0
g51
tp513
a(I0
g51
tp514
a(I0
g51
tp515
a(I0
g51
tp516
a(I0
g51
tp517
a(I0
g51
tp518
a(I0
g51
tp519
a(I0
g51
tp520
a(I0
g51
tp521
a(I0
g51
tp522
a(I0
g51
tp523
a(I0
g51
tp524
a(I0
g51
tp525
a(I0
g51
tp526
a(I0
g51
tp527
a(I0
g51
tp528
a(I0
g51
tp529
a(I0
g51
tp530
a(I0
g51
tp531
a(I0
g63
tp532
a(I0
g63
tp533
a(I0
g51
tp534
a(I0
g51
tp535
a(I0
g51
tp536
a(I0
g54
tp537
a(I0
g56
tp538
a(I0
g54
tp539
a(I0
g56
tp540
a(I0
g61
tp541
a(I0
g63
tp542
a(I0
g54
tp543
a(I0
g54
tp544
a(I0
g56
tp545
a(I0
g56
tp546
a(I0
g54
tp547
a(I0
g56
tp548
a(I0
g54
tp549
a(I0
g56
tp550
a(I0
g54
tp551
a(I0
g51
tp552
a(I0
g56
tp553
a(I0
g54
tp554
a(I0
g56
tp555
a(I0
g54
tp556
a(I0
g56
tp557
a(I0
g61
tp558
a(I0
g51
tp559
a(I0
g51
tp560
a(I0
g51
tp561
a(I0
g51
tp562
a(I0
g63
tp563
a(I0
g51
tp564
a(I0
g51
tp565
a(I0
g51
tp566
a(I0
g51
tp567
a(I0
g51
tp568
a(I0
g51
tp569
a(I0
g51
tp570
a(I0
g51
tp571
a(I0
g51
tp572
a(I0
g51
tp573
a(I0
g51
tp574
a(I0
g51
tp575
a(I0
g51
tp576
a(I0
g51
tp577
a(I0
g51
tp578
a(I0
g54
tp579
a(I0
g51
tp580
a(I0
g56
tp581
a(I0
g51
tp582
a(I0
g54
tp583
a(I0
g56
tp584
a(I0
g54
tp585
a(I0
g56
tp586
a(I0
g54
tp587
a(I0
g56
tp588
a(I0
g51
tp589
a(I0
g54
tp590
a(I0
g51
tp591
a(I0
g51
tp592
a(I0
g51
tp593
a(I0
g51
tp594
a(I0
g51
tp595
a(I0
g51
tp596
a(I0
g51
tp597
a(I0
g51
tp598
a(I0
g51
tp599
a(I0
g56
tp600
a(I0
g54
tp601
a(I0
g56
tp602
a(I0
g54
tp603
a(I0
g56
tp604
a(I0
g54
tp605
a(I0
g56
tp606
a(I0
g54
tp607
a(I0
g51
tp608
a(I0
g51
tp609
a(I0
g56
tp610
a(I0
g54
tp611
a(I0
g56
tp612
a(I0
g51
tp613
a(I0
g51
tp614
a(I0
g54
tp615
a(I0
g56
tp616
a(I0
g54
tp617
a(I0
g56
tp618
a(I0
g54
tp619
a(I0
g56
tp620
a(I0
g54
tp621
a(I0
g56
tp622
a(I0
g54
tp623
a(I0
g56
tp624
a(I0
g54
tp625
a(I0
g56
tp626
a(I0
g54
tp627
a(I0
g56
tp628
a(I0
g54
tp629
a(I0
g56
tp630
a(I0
g54
tp631
a(I0
g56
tp632
a(I0
g54
tp633
a(I0
g56
tp634
a(I0
g54
tp635
a(I0
g56
tp636
a(I0
g54
tp637
a(I0
g56
tp638
a(I0
g54
tp639
a(I0
g56
tp640
a(I0
g54
tp641
a(I0
g56
tp642
a(I0
g54
tp643
a(I0
g56
tp644
a(I0
g54
tp645
a(I0
g56
tp646
a(I0
g54
tp647
a(I0
g56
tp648
a(I0
g54
tp649
a(I0
g56
tp650
a(I0
g54
tp651
a(I0
g56
tp652
a(I0
g54
tp653
a(I0
g56
tp654
a(I0
g54
tp655
a(I0
g56
tp656
a(I0
g54
tp657
a(I0
g56
tp658
a(I0
g54
tp659
a(I0
g56
tp660
a(I0
g54
tp661
a(I0
g56
tp662
a(I0
g54
tp663
a(I0
g56
tp664
a(I0
g54
tp665
a(I0
g56
tp666
a(I0
g51
tp667
a(I0
g51
tp668
a(I0
g54
tp669
a(I0
g56
tp670
a(I0
g54
tp671
a(I0
g56
tp672
a(I0
g54
tp673
a(I0
g56
tp674
a(I0
g54
tp675
a(I0
g56
tp676
a(I0
g51
tp677
a(I0
g51
tp678
a(I0
g54
tp679
a(I0
g56
tp680
a(I0
g54
tp681
a(I0
g56
tp682
a(I0
g54
tp683
a(I0
g56
tp684
a(I0
g54
tp685
a(I0
g51
tp686
a(I0
g56
tp687
a(I0
g54
tp688
a(I0
g56
tp689
a(I0
g54
tp690
a(I0
g56
tp691
a(I0
g54
tp692
a(I0
g56
tp693
a(I0
g54
tp694
a(I0
g56
tp695
a(I0
g54
tp696
a(I0
g56
tp697
a(I0
g54
tp698
a(I0
g56
tp699
a(I0
g54
tp700
a(I0
g56
tp701
a(I0
g54
tp702
a(I0
g56
tp703
a(I0
g54
tp704
a(I0
g56
tp705
a(I0
g54
tp706
a(I0
g56
tp707
a(I0
g54
tp708
a(I0
g56
tp709
a(I0
g54
tp710
a(I0
g56
tp711
a(I0
g54
tp712
a(I0
g56
tp713
a(I0
g54
tp714
a(I0
g51
tp715
a(I0
g51
tp716
a(I0
g54
tp717
a(I0
g56
tp718
a(I0
g56
tp719
a(I0
g61
tp720
a(I0
g51
tp721
a(I0
g51
tp722
a(I0
g51
tp723
a(I0
g51
tp724
a(I0
g51
tp725
a(I0
g51
tp726
a(I0
g61
tp727
a(I0
g51
tp728
a(I0
g51
tp729
a(I0
g51
tp730
a(I0
g51
tp731
a(I0
g51
tp732
a(I0
g51
tp733
a(I0
g51
tp734
a(I0
g51
tp735
a(I0
g51
tp736
a(I0
g51
tp737
a(I0
g51
tp738
a(I0
g51
tp739
a(I0
g51
tp740
a(I0
g51
tp741
a(I0
g51
tp742
a(I0
g51
tp743
a(I0
g51
tp744
a(I0
g51
tp745
a(I0
g51
tp746
a(I0
g51
tp747
a(I0
g51
tp748
a(I0
g51
tp749
a(I0
g51
tp750
a(I0
g51
tp751
a(I0
g51
tp752
a(I0
g51
tp753
a(I0
g51
tp754
a(I0
g51
tp755
a(I0
g51
tp756
a(I0
g51
tp757
a(I0
g51
tp758
a(I0
g51
tp759
a(I0
g51
tp760
a(I0
g51
tp761
a(I0
g51
tp762
a(I0
g51
tp763
a(I0
g51
tp764
a(I0
g51
tp765
a(I0
g51
tp766
a(I0
g51
tp767
a(I0
g51
tp768
a(I0
g51
tp769
a(I0
g51
tp770
a(I0
g51
tp771
a(I0
g51
tp772
a(I0
g51
tp773
a(I0
g51
tp774
a(I0
g61
tp775
a(I0
g63
tp776
a(I0
g51
tp777
a(I0
g51
tp778
a(I0
g61
tp779
a(I0
g51
tp780
a(I0
g51
tp781
a(I0
g51
tp782
a(I0
g51
tp783
a(I0
g51
tp784
a(I0
g63
tp785
a(I0
g61
tp786
a(I0
g63
tp787
a(I0
g63
tp788
a(I0
g63
tp789
a(I0
g54
tp790
a(I0
g54
tp791
a(I0
g56
tp792
a(I0
g56
tp793
a(I0
g61
tp794
a(I0
g51
tp795
a(I0
g51
tp796
a(I0
g51
tp797
a(I0
g51
tp798
a(I0
g51
tp799
a(I0
g51
tp800
a(I0
g51
tp801
a(I0
g51
tp802
a(I0
g51
tp803
a(I0
g51
tp804
a(I0
g63
tp805
a(I0
g61
tp806
a(I0
g51
tp807
a(I0
g51
tp808
a(I0
g51
tp809
a(I0
g63
tp810
a(I0
g54
tp811
a(I0
g51
tp812
a(I0
g51
tp813
a(I0
g51
tp814
a(I0
g51
tp815
a(I0
g51
tp816
a(I0
g51
tp817
a(I0
g54
tp818
a(I0
g56
tp819
a(I0
g56
tp820
a(I0
g61
tp821
a(I0
g63
tp822
a(I0
g54
tp823
a(I0
g54
tp824
a(I0
g56
tp825
a(I0
g56
tp826
a(I0
g61
tp827
a(I0
g63
tp828
a(I0
g61
tp829
a(I0
g63
tp830
a(I0
g54
tp831
a(I0
g54
tp832
a(I0
g56
tp833
a(I0
g56
tp834
a(I0
g54
tp835
a(I0
g51
tp836
a(I0
g51
tp837
a(I0
g51
tp838
a(I0
g54
tp839
a(I0
g56
tp840
a(I0
g56
tp841
a(I0
g61
tp842
a(I0
g63
tp843
a(I0
g51
tp844
a(I0
g54
tp845
a(I0
g54
tp846
a(I0
g56
tp847
a(I0
g56
tp848
a(I0
g61
tp849
a(I0
g63
tp850
a(I0
g54
tp851
a(I0
g54
tp852
a(I0
g56
tp853
a(I0
g56
tp854
a(I0
g61
tp855
a(I0
g63
tp856
a(I0
g54
tp857
a(I0
g54
tp858
a(I0
g56
tp859
a(I0
g56
tp860
a(I0
g61
tp861
a(I0
g63
tp862
a(I0
g54
tp863
a(I0
g54
tp864
a(I0
g56
tp865
a(I0
g56
tp866
a(I0
g61
tp867
a(I0
g63
tp868
a(I0
g54
tp869
a(I0
g54
tp870
a(I0
g56
tp871
a(I0
g56
tp872
a(I0
g61
tp873
a(I0
g63
tp874
a(I0
g54
tp875
a(I0
g54
tp876
a(I0
g56
tp877
a(I0
g56
tp878
a(I0
g61
tp879
a(I0
g63
tp880
a(I0
g54
tp881
a(I0
g54
tp882
a(I0
g56
tp883
a(I0
g56
tp884
a(I0
g61
tp885
a(I0
g63
tp886
a(I0
g51
tp887
a(I0
g61
tp888
a(I0
g61
tp889
a(I0
g63
tp890
a(I0
g63
tp891
a(I0
g61
tp892
a(I0
g63
tp893
a(I0
g54
tp894
a(I0
g54
tp895
a(I0
g56
tp896
a(I0
g56
tp897
a(I0
g61
tp898
a(I0
g51
tp899
a(I0
g51
tp900
a(I0
g63
tp901
a(I0
g54
tp902
a(I0
g54
tp903
a(I0
g56
tp904
a(I0
g56
tp905
a(I0
g61
tp906
a(I0
g63
tp907
a(I0
g54
tp908
a(I0
g54
tp909
a(I0
g56
tp910
a(I0
g56
tp911
a(I0
g61
tp912
a(I0
g63
tp913
a(I0
g51
tp914
a(I0
g54
tp915
a(I0
g54
tp916
a(I0
g56
tp917
a(I0
g56
tp918
a(I0
g61
tp919
a(I0
g63
tp920
a(I0
g54
tp921
a(I0
g54
tp922
a(I0
g56
tp923
a(I0
g56
tp924
a(I0
g61
tp925
a(I0
g63
tp926
a(I0
g54
tp927
a(I0
g54
tp928
a(I0
g56
tp929
a(I0
g56
tp930
a(I0
g61
tp931
a(I0
g63
tp932
a(I0
g54
tp933
a(I0
g54
tp934
a(I0
g56
tp935
a(I0
g56
tp936
a(I0
g61
tp937
a(I0
g63
tp938
a(I0
g54
tp939
a(I0
g54
tp940
a(I0
g56
tp941
a(I0
g56
tp942
a(I0
g61
tp943
a(I0
g63
tp944
a(I0
g54
tp945
a(I0
g54
tp946
a(I0
g56
tp947
a(I0
g56
tp948
a(I0
g51
tp949
a(I0
g61
tp950
a(I0
g63
tp951
a(I0
g54
tp952
a(I0
g54
tp953
a(I0
g56
tp954
a(I0
g56
tp955
a(I0
g61
tp956
a(I0
g63
tp957
a(I0
g54
tp958
a(I0
g54
tp959
a(I0
g54
tp960
a(I0
g56
tp961
a(I0
g56
tp962
a(I0
g56
tp963
a(I0
g61
tp964
a(I0
g63
tp965
a(I0
g54
tp966
a(I0
g54
tp967
a(I0
g56
tp968
a(I0
g56
tp969
a(I0
g61
tp970
a(I0
g63
tp971
a(I0
g54
tp972
a(I0
g54
tp973
a(I0
g56
tp974
a(I0
g56
tp975
a(I0
g61
tp976
a(I0
g63
tp977
a(I0
g54
tp978
a(I0
g54
tp979
a(I0
g56
tp980
a(I0
g56
tp981
a(I0
g61
tp982
a(I0
g63
tp983
a(I0
g54
tp984
a(I0
g54
tp985
a(I0
g56
tp986
a(I0
g56
tp987
a(I0
g61
tp988
a(I0
g63
tp989
a(I0
g54
tp990
a(I0
g51
tp991
a(I0
g51
tp992
a(I0
g54
tp993
a(I0
g56
tp994
a(I0
g56
tp995
a(I0
g54
tp996
a(I0
g51
tp997
a(I0
g51
tp998
a(I0
g51
tp999
a(I0
g56
tp1000
a(I0
g54
tp1001
a(I0
g51
tp1002
a(I0
g51
tp1003
a(I0
g54
tp1004
a(I0
g56
tp1005
a(I0
g56
tp1006
a(I0
g61
tp1007
a(I0
g63
tp1008
a(I0
g54
tp1009
a(I0
g51
tp1010
a(I0
g51
tp1011
a(I0
g51
tp1012
a(I0
g51
tp1013
a(I0
g51
tp1014
a(I0
g51
tp1015
a(I0
g51
tp1016
a(I0
g51
tp1017
a(I0
g51
tp1018
a(I0
g51
tp1019
a(I0
g51
tp1020
a(I0
g51
tp1021
a(I0
g51
tp1022
a(I0
g51
tp1023
a(I0
g51
tp1024
a(I0
g51
tp1025
a(I0
g56
tp1026
a(I0
g54
tp1027
a(I0
g56
tp1028
a(I0
g54
tp1029
a(I0
g56
tp1030
a(I0
g54
tp1031
a(I0
g56
tp1032
a(I0
g54
tp1033
a(I0
g56
tp1034
a(I0
g54
tp1035
a(I0
g51
tp1036
a(I0
g56
tp1037
a(I0
g54
tp1038
a(I0
g56
tp1039
a(I0
g51
tp1040
a(I0
g54
tp1041
a(I0
g56
tp1042
a(I0
g54
tp1043
a(I0
g56
tp1044
a(I0
g54
tp1045
a(I0
g56
tp1046
a(I0
g54
tp1047
a(I0
g56
tp1048
a(I0
g54
tp1049
a(I0
g56
tp1050
a(I0
g54
tp1051
a(I0
g56
tp1052
a(I0
g61
tp1053
a(I0
g51
tp1054
a(I0
g51
tp1055
a(I0
g51
tp1056
a(I0
g63
tp1057
a(I0
g51
tp1058
a(I0
g51
tp1059
a(I0
g54
tp1060
a(I0
g56
tp1061
a(I0
g54
tp1062
a(I0
g56
tp1063
as.