(dp1
S'layout'
p2
(ilayout
Layout
p3
(dp4
S'capsules'
p5
(lp6
sS'numGhosts'
p7
I1
sS'food'
p8
(igame
Grid
p9
(dp10
S'CELLS_PER_INT'
p11
I30
sS'width'
p12
I11
sS'data'
p13
(lp14
(lp15
I00
aI00
aI00
aI00
aI00
aI00
aa(lp16
I00
aI01
aI00
aI00
aI01
aI00
aa(lp17
I00
aI00
aI00
aI00
aI00
aI00
aa(lp18
I00
aI00
aI00
aI00
aI00
aI00
aa(lp19
I00
aI00
aI00
aI00
aI00
aI00
aa(lp20
I00
aI00
aI00
aI00
aI00
aI00
aa(lp21
I00
aI00
aI00
aI00
aI00
aI00
aa(lp22
I00
aI00
aI00
aI00
aI00
aI00
aa(lp23
I00
aI00
aI00
aI00
aI00
aI00
aa(lp24
I00
aI01
aI00
aI00
aI00
aI00
aa(lp25
I00
aI00
aI00
aI00
aI00
aI00
aasS'height'
p26
I6
sbsS'agentPositions'
p27
(lp28
(I01
(I9
I4
tp29
tp30
a(I00
(I5
I2
tp31
tp32
asg26
I6
sg12
I11
sS'walls'
p33
(igame
Grid
p34
(dp35
g11
I30
sg12
I11
sg13
(lp36
(lp37
I01
aI01
aI01
aI01
aI01
aI01
aa(lp38
I01
aI00
aI00
aI00
aI00
aI01
aa(lp39
I01
aI00
aI00
aI00
aI00
aI01
aa(lp40
I01
aI00
aI00
aI00
aI00
aI01
aa(lp41
I01
aI00
aI01
aI01
aI00
aI01
aa(lp42
I01
aI00
aI00
aI01
aI00
aI01
aa(lp43
I01
aI00
aI01
aI01
aI00
aI01
aa(lp44
I01
aI00
aI00
aI00
aI00
aI01
aa(lp45
I01
aI00
aI00
aI00
aI00
aI01
aa(lp46
I01
aI00
aI00
aI00
aI00
aI01
aa(lp47
I01
aI01
aI01
aI01
aI01
aI01
aasg26
I6
sbsS'totalFood'
p48
I3
sS'layoutText'
p49
(lp50
S'%%%%%%%%%%%'
p51
aS'%.       P%'
p52
aS'%   %%%   %'
p53
aS'%   %G%   %'
p54
aS'%.       .%'
p55
aS'%%%%%%%%%%%'
p56
asbsS'actions'
p57
(lp58
(I0
S'South'
p59
tp60
a(I1
g59
tp61
a(I0
S'North'
p62
tp63
a(I1
S'West'
p64
tp65
a(I0
g64
tp66
a(I1
g64
tp67
a(I0
g59
tp68
a(I1
g64
tp69
a(I0
g64
tp70
a(I1
g62
tp71
a(I0
S'Stop'
p72
tp73
a(I1
g64
tp74
a(I0
g72
tp75
a(I1
g62
tp76
a(I0
g72
tp77
a(I1
g62
tp78
a(I0
g72
tp79
a(I1
S'East'
p80
tp81
a(I0
g72
tp82
a(I1
g80
tp83
a(I0
g80
tp84
a(I1
g59
tp85
a(I0
g64
tp86
a(I1
g59
tp87
a(I0
g72
tp88
a(I1
g59
tp89
a(I0
g72
tp90
a(I1
g64
tp91
a(I0
g72
tp92
a(I1
g62
tp93
a(I0
g72
tp94
a(I1
g64
tp95
a(I0
g72
tp96
a(I1
g62
tp97
a(I0
g72
tp98
a(I1
g62
tp99
a(I0
g72
tp100
a(I1
g80
tp101
a(I0
g72
tp102
a(I1
g59
tp103
a(I0
g72
tp104
a(I1
g59
tp105
a(I0
g72
tp106
a(I1
g80
tp107
a(I0
g72
tp108
a(I1
g62
tp109
a(I0
g72
tp110
a(I1
g62
tp111
a(I0
g72
tp112
a(I1
g64
tp113
a(I0
g72
tp114
a(I1
g59
tp115
a(I0
g72
tp116
a(I1
g80
tp117
a(I0
g72
tp118
a(I1
g59
tp119
a(I0
g72
tp120
a(I1
g59
tp121
a(I0
g72
tp122
a(I1
g80
tp123
a(I0
g72
tp124
a(I1
g80
tp125
a(I0
g72
tp126
a(I1
g80
tp127
a(I0
g72
tp128
a(I1
g80
tp129
a(I0
g72
tp130
a(I1
g80
tp131
a(I0
g72
tp132
a(I1
g62
tp133
a(I0
g72
tp134
a(I1
g80
tp135
a(I0
g72
tp136
a(I1
g59
tp137
a(I0
g72
tp138
a(I1
g64
tp139
a(I0
g72
tp140
a(I1
g64
tp141
a(I0
g72
tp142
a(I1
g64
tp143
a(I0
g72
tp144
a(I1
g64
tp145
a(I0
g72
tp146
a(I1
g62
tp147
a(I0
g72
tp148
a(I1
g59
tp149
a(I0
g72
tp150
a(I1
g64
tp151
a(I0
g72
tp152
a(I1
g64
tp153
a(I0
g72
tp154
a(I1
g64
tp155
a(I0
g72
tp156
a(I1
g64
tp157
a(I0
g72
tp158
a(I1
g62
tp159
a(I0
g72
tp160
a(I1
g62
tp161
a(I0
g72
tp162
a(I1
g62
tp163
a(I0
g72
tp164
a(I1
g80
tp165
a(I0
g72
tp166
a(I1
g59
tp167
a(I0
g72
tp168
a(I1
g80
tp169
a(I0
g72
tp170
a(I1
g62
tp171
a(I0
g72
tp172
a(I1
g80
tp173
a(I0
g72
tp174
a(I1
g80
tp175
a(I0
g72
tp176
a(I1
g80
tp177
a(I0
g72
tp178
a(I1
g80
tp179
a(I0
g72
tp180
a(I1
g80
tp181
a(I0
g72
tp182
a(I1
g80
tp183
a(I0
g72
tp184
a(I1
g59
tp185
a(I0
g72
tp186
a(I1
g59
tp187
a(I0
g72
tp188
a(I1
g59
tp189
a(I0
g72
tp190
a(I1
g64
tp191
a(I0
g72
tp192
a(I1
g64
tp193
a(I0
g72
tp194
a(I1
g62
tp195
a(I0
g72
tp196
a(I1
g80
tp197
a(I0
g72
tp198
a(I1
g62
tp199
a(I0
g72
tp200
a(I1
g80
tp201
a(I0
g72
tp202
a(I1
g59
tp203
a(I0
g72
tp204
a(I1
g64
tp205
a(I0
g72
tp206
a(I1
g59
tp207
a(I0
g72
tp208
a(I1
g80
tp209
a(I0
g72
tp210
a(I1
g62
tp211
a(I0
g72
tp212
a(I1
g62
tp213
a(I0
g72
tp214
a(I1
g64
tp215
a(I0
g72
tp216
a(I1
g59
tp217
a(I0
g72
tp218
a(I1
g80
tp219
a(I0
g80
tp220
a(I1
g59
tp221
a(I0
g64
tp222
a(I1
g64
tp223
a(I0
g72
tp224
a(I1
g64
tp225
a(I0
g72
tp226
a(I1
g62
tp227
a(I0
g72
tp228
a(I1
g80
tp229
a(I0
g72
tp230
a(I1
g59
tp231
a(I0
g72
tp232
a(I1
g64
tp233
a(I0
g72
tp234
a(I1
g64
tp235
a(I0
g72
tp236
a(I1
g64
tp237
a(I0
g62
tp238
a(I1
g64
tp239
a(I0
g64
tp240
a(I1
g64
tp241
a(I0
g64
tp242
a(I1
g64
tp243
a(I0
g64
tp244
a(I1
g64
tp245
a(I0
g64
tp246
a(I1
g62
tp247
a(I0
g64
tp248
a(I1
g62
tp249
a(I0
g64
tp250
a(I1
g62
tp251
as.