(dp1
S'layout'
p2
(ilayout
Layout
p3
(dp4
S'capsules'
p5
(lp6
sS'numGhosts'
p7
I1
sS'food'
p8
(igame
Grid
p9
(dp10
S'CELLS_PER_INT'
p11
I30
sS'width'
p12
I7
sS'data'
p13
(lp14
(lp15
I00
aI00
aI00
aI00
aI00
aI00
aI00
aa(lp16
I00
aI01
aI00
aI00
aI00
aI00
aI00
aa(lp17
I00
aI00
aI00
aI00
aI00
aI00
aI00
aa(lp18
I00
aI00
aI00
aI01
aI00
aI00
aI00
aa(lp19
I00
aI00
aI00
aI00
aI00
aI00
aI00
aa(lp20
I00
aI00
aI00
aI00
aI00
aI00
aI00
aa(lp21
I00
aI00
aI00
aI00
aI00
aI00
aI00
aasS'height'
p22
I7
sbsS'agentPositions'
p23
(lp24
(I01
(I2
I5
tp25
tp26
a(I00
(I3
I1
ttp27
asg22
I7
sg12
I7
sS'walls'
p28
(igame
Grid
p29
(dp30
g11
I30
sg12
I7
sg13
(lp31
(lp32
I01
aI01
aI01
aI01
aI01
aI01
aI01
aa(lp33
I01
aI00
aI00
aI00
aI00
aI00
aI01
aa(lp34
I01
aI00
aI01
aI01
aI01
aI00
aI01
aa(lp35
I01
aI00
aI01
aI00
aI01
aI00
aI01
aa(lp36
I01
aI00
aI01
aI00
aI01
aI00
aI01
aa(lp37
I01
aI00
aI00
aI00
aI00
aI00
aI01
aa(lp38
I01
aI01
aI01
aI01
aI01
aI01
aI01
aasg22
I7
sbsS'totalFood'
p39
I2
sS'layoutText'
p40
(lp41
S'%%%%%%%'
p42
aS'% P   %'
p43
aS'% %%% %'
p44
aS'% %.  %'
p45
aS'% %%% %'
p46
aS'%. G  %'
p47
aS'%%%%%%%'
p48
asbsS'actions'
p49
(lp50
(I0
S'Stop'
p51
tp52
a(I0
g51
tp53
a(I0
S'West'
p54
tp55
a(I0
S'South'
p56
tp57
a(I0
g56
tp58
a(I0
g56
tp59
a(I0
g56
tp60
a(I0
S'East'
p61
tp62
a(I0
g61
tp63
a(I0
g54
tp64
a(I0
g54
tp65
a(I0
g61
tp66
a(I0
g61
tp67
a(I0
g61
tp68
a(I0
g54
tp69
a(I0
g54
tp70
a(I0
g51
tp71
a(I0
g61
tp72
a(I0
g54
tp73
a(I0
g54
tp74
a(I0
S'North'
p75
tp76
a(I0
g56
tp77
a(I0
g61
tp78
a(I0
g61
tp79
a(I0
g51
tp80
a(I0
g54
tp81
a(I0
g54
tp82
a(I0
g75
tp83
a(I0
g75
tp84
a(I0
g75
tp85
a(I0
g75
tp86
a(I0
g61
tp87
a(I0
g61
tp88
a(I0
g51
tp89
a(I0
g51
tp90
a(I0
g51
tp91
a(I0
g51
tp92
a(I0
g51
tp93
a(I0
g51
tp94
a(I0
g51
tp95
a(I0
g51
tp96
a(I0
g51
tp97
a(I0
g51
tp98
a(I0
g51
tp99
a(I0
g51
tp100
a(I0
g51
tp101
a(I0
g61
tp102
a(I0
g54
tp103
a(I0
g54
tp104
a(I0
g61
tp105
a(I0
g61
tp106
a(I0
g54
tp107
a(I0
g54
tp108
a(I0
g61
tp109
a(I0
g61
tp110
a(I0
g54
tp111
a(I0
g54
tp112
a(I0
g61
tp113
a(I0
g61
tp114
a(I0
g54
tp115
a(I0
g54
tp116
a(I0
g61
tp117
a(I0
g61
tp118
a(I0
g54
tp119
a(I0
g51
tp120
a(I0
g51
tp121
a(I0
g51
tp122
a(I0
g51
tp123
a(I0
g51
tp124
a(I0
g54
tp125
a(I0
g54
tp126
a(I0
g56
tp127
a(I0
g75
tp128
a(I0
g61
tp129
a(I0
g61
tp130
a(I0
g51
tp131
a(I0
g54
tp132
a(I0
g61
tp133
a(I0
g54
tp134
a(I0
g54
tp135
a(I0
g56
tp136
a(I0
g75
tp137
a(I0
g61
tp138
a(I0
g61
tp139
a(I0
g54
tp140
a(I0
g51
tp141
a(I0
g51
tp142
a(I0
g51
tp143
a(I0
g51
tp144
a(I0
g54
tp145
a(I0
g56
tp146
a(I0
g75
tp147
a(I0
g61
tp148
a(I0
g61
tp149
a(I0
g61
tp150
a(I0
g61
tp151
a(I0
g54
tp152
a(I0
g54
tp153
a(I0
g61
tp154
a(I0
g61
tp155
a(I0
g54
tp156
a(I0
g54
tp157
a(I0
g61
tp158
a(I0
g61
tp159
a(I0
g54
tp160
a(I0
g51
tp161
a(I0
g54
tp162
a(I0
g61
tp163
a(I0
g61
tp164
a(I0
g54
tp165
a(I0
g54
tp166
a(I0
g61
tp167
a(I0
g61
tp168
a(I0
g54
tp169
a(I0
g54
tp170
a(I0
g61
tp171
a(I0
g61
tp172
a(I0
g54
tp173
a(I0
g54
tp174
a(I0
g61
tp175
a(I0
g61
tp176
a(I0
g54
tp177
a(I0
g54
tp178
a(I0
g51
tp179
a(I0
g51
tp180
a(I0
g51
tp181
a(I0
g51
tp182
a(I0
g51
tp183
a(I0
g61
tp184
a(I0
g61
tp185
a(I0
g54
tp186
a(I0
g54
tp187
a(I0
g61
tp188
a(I0
g51
tp189
a(I0
g51
tp190
a(I0
g51
tp191
a(I0
g61
tp192
a(I0
g54
tp193
a(I0
g54
tp194
a(I0
g61
tp195
a(I0
g61
tp196
a(I0
g54
tp197
a(I0
g54
tp198
a(I0
g61
tp199
a(I0
g61
tp200
a(I0
g54
tp201
a(I0
g54
tp202
a(I0
g61
tp203
a(I0
g61
tp204
a(I0
g54
tp205
a(I0
g54
tp206
a(I0
g51
tp207
a(I0
g51
tp208
a(I0
g61
tp209
a(I0
g61
tp210
a(I0
g54
tp211
a(I0
g54
tp212
a(I0
g51
tp213
a(I0
g61
tp214
a(I0
g61
tp215
a(I0
g51
tp216
a(I0
g54
tp217
a(I0
g54
tp218
a(I0
g54
tp219
a(I0
g51
tp220
a(I0
g51
tp221
a(I0
g51
tp222
a(I0
g51
tp223
a(I0
g51
tp224
a(I0
g54
tp225
a(I0
g51
tp226
a(I0
g61
tp227
a(I0
g54
tp228
a(I0
g51
tp229
a(I0
g56
tp230
a(I0
g56
tp231
a(I0
g56
tp232
a(I0
g75
tp233
a(I0
g56
tp234
a(I0
g56
tp235
a(I0
g61
tp236
a(I0
g61
tp237
a(I0
g54
tp238
a(I0
g54
tp239
a(I0
g75
tp240
a(I0
g75
tp241
a(I0
g56
tp242
a(I0
g56
tp243
a(I0
g51
tp244
a(I0
g51
tp245
a(I0
g75
tp246
a(I0
g75
tp247
a(I0
g56
tp248
a(I0
g56
tp249
a(I0
g61
tp250
a(I0
g51
tp251
a(I0
g61
tp252
a(I0
g54
tp253
a(I0
g54
tp254
a(I0
g75
tp255
a(I0
g51
tp256
a(I0
g75
tp257
a(I0
g56
tp258
a(I0
g56
tp259
a(I0
g61
tp260
a(I0
g51
tp261
a(I0
g61
tp262
a(I0
g61
tp263
a(I0
g51
tp264
a(I0
g51
tp265
a(I0
g54
tp266
a(I0
g54
tp267
a(I0
g51
tp268
a(I0
g51
tp269
a(I0
g61
tp270
a(I0
g61
tp271
a(I0
g54
tp272
a(I0
g54
tp273
a(I0
g61
tp274
a(I0
g54
tp275
a(I0
g61
tp276
a(I0
g61
tp277
a(I0
g54
tp278
a(I0
g54
tp279
a(I0
g61
tp280
a(I0
g54
tp281
a(I0
g54
tp282
a(I0
g51
tp283
a(I0
g75
tp284
a(I0
g75
tp285
a(I0
g75
tp286
a(I0
g56
tp287
a(I0
g56
tp288
a(I0
g56
tp289
a(I0
g61
tp290
a(I0
g51
tp291
a(I0
g51
tp292
a(I0
g61
tp293
a(I0
g61
tp294
a(I0
g54
tp295
a(I0
g54
tp296
a(I0
g61
tp297
a(I0
g61
tp298
a(I0
g54
tp299
a(I0
g54
tp300
a(I0
g61
tp301
a(I0
g54
tp302
a(I0
g51
tp303
a(I0
g54
tp304
a(I0
g51
tp305
a(I0
g75
tp306
a(I0
g75
tp307
a(I0
g56
tp308
a(I0
g51
tp309
a(I0
g56
tp310
a(I0
g51
tp311
a(I0
g51
tp312
a(I0
g61
tp313
a(I0
g61
tp314
a(I0
g54
tp315
a(I0
g54
tp316
a(I0
g75
tp317
a(I0
g75
tp318
a(I0
g56
tp319
a(I0
g56
tp320
a(I0
g51
tp321
a(I0
g61
tp322
a(I0
g51
tp323
a(I0
g61
tp324
a(I0
g54
tp325
a(I0
g54
tp326
a(I0
g75
tp327
a(I0
g75
tp328
a(I0
g75
tp329
a(I0
g56
tp330
a(I0
g56
tp331
a(I0
g75
tp332
a(I0
g56
tp333
a(I0
g56
tp334
a(I0
g61
tp335
a(I0
g54
tp336
a(I0
g75
tp337
a(I0
g75
tp338
a(I0
g56
tp339
a(I0
g56
tp340
a(I0
g61
tp341
a(I0
g61
tp342
a(I0
g54
tp343
a(I0
g54
tp344
a(I0
g75
tp345
a(I0
g75
tp346
a(I0
g56
tp347
a(I0
g75
tp348
a(I0
g56
tp349
a(I0
g56
tp350
a(I0
g61
tp351
a(I0
g51
tp352
a(I0
g51
tp353
a(I0
g61
tp354
a(I0
g54
tp355
a(I0
g61
tp356
a(I0
g61
tp357
a(I0
g54
tp358
a(I0
g51
tp359
a(I0
g51
tp360
a(I0
g51
tp361
a(I0
g54
tp362
a(I0
g54
tp363
a(I0
g75
tp364
a(I0
g51
tp365
a(I0
g51
tp366
a(I0
g51
tp367
a(I0
g75
tp368
a(I0
g75
tp369
a(I0
g51
tp370
a(I0
g75
tp371
a(I0
g51
tp372
a(I0
g61
tp373
a(I0
g54
tp374
a(I0
g61
tp375
a(I0
g54
tp376
a(I0
g61
tp377
a(I0
g54
tp378
a(I0
g56
tp379
a(I0
g51
tp380
a(I0
g51
tp381
a(I0
g51
tp382
a(I0
g51
tp383
a(I0
g51
tp384
a(I0
g51
tp385
a(I0
g51
tp386
a(I0
g51
tp387
a(I0
g75
tp388
a(I0
g61
tp389
a(I0
g54
tp390
a(I0
g61
tp391
a(I0
g51
tp392
a(I0
g51
tp393
a(I0
g51
tp394
a(I0
g54
tp395
a(I0
g61
tp396
a(I0
g54
tp397
a(I0
g61
tp398
a(I0
g51
tp399
a(I0
g51
tp400
a(I0
g51
tp401
a(I0
g61
tp402
a(I0
g61
tp403
a(I0
g51
tp404
a(I0
g51
tp405
a(I0
g51
tp406
a(I0
g51
tp407
a(I0
g51
tp408
a(I0
g51
tp409
a(I0
g51
tp410
a(I0
g51
tp411
a(I0
g54
tp412
a(I0
g54
tp413
a(I0
g51
tp414
a(I0
g51
tp415
a(I0
g61
tp416
a(I0
g61
tp417
a(I0
g51
tp418
a(I0
g51
tp419
a(I0
g54
tp420
a(I0
g54
tp421
a(I0
g61
tp422
a(I0
g61
tp423
a(I0
g54
tp424
a(I0
g54
tp425
a(I0
g54
tp426
a(I0
g61
tp427
a(I0
g54
tp428
a(I0
g61
tp429
a(I0
g54
tp430
a(I0
g61
tp431
a(I0
g54
tp432
a(I0
g51
tp433
a(I0
g61
tp434
a(I0
g54
tp435
a(I0
g61
tp436
a(I0
g61
tp437
a(I0
g61
tp438
a(I0
g54
tp439
a(I0
g51
tp440
a(I0
g54
tp441
a(I0
g54
tp442
a(I0
g56
tp443
a(I0
g75
tp444
a(I0
g51
tp445
a(I0
g56
tp446
a(I0
g56
tp447
a(I0
g51
tp448
a(I0
g51
tp449
a(I0
g51
tp450
a(I0
g51
tp451
a(I0
g51
tp452
a(I0
g51
tp453
a(I0
g51
tp454
a(I0
g51
tp455
a(I0
g51
tp456
a(I0
g51
tp457
a(I0
g51
tp458
a(I0
g51
tp459
a(I0
g51
tp460
a(I0
g56
tp461
a(I0
g56
tp462
a(I0
g51
tp463
a(I0
g75
tp464
a(I0
g75
tp465
a(I0
g56
tp466
a(I0
g56
tp467
a(I0
g75
tp468
a(I0
g56
tp469
a(I0
g75
tp470
a(I0
g75
tp471
a(I0
g56
tp472
a(I0
g75
tp473
a(I0
g56
tp474
a(I0
g51
tp475
a(I0
g75
tp476
a(I0
g56
tp477
a(I0
g56
tp478
a(I0
g61
tp479
a(I0
g61
tp480
a(I0
g51
tp481
a(I0
g51
tp482
a(I0
g54
tp483
a(I0
g61
tp484
a(I0
g51
tp485
a(I0
g61
tp486
a(I0
g54
tp487
a(I0
g51
tp488
a(I0
g51
tp489
a(I0
g51
tp490
a(I0
g61
tp491
a(I0
g51
tp492
a(I0
g61
tp493
a(I0
g54
tp494
a(I0
g54
tp495
a(I0
g61
tp496
a(I0
g51
tp497
a(I0
g51
tp498
a(I0
g51
tp499
a(I0
g61
tp500
a(I0
g75
tp501
a(I0
g51
tp502
a(I0
g51
tp503
a(I0
g75
tp504
a(I0
g54
tp505
a(I0
g54
tp506
as.