(dp1
S'layout'
p2
(ilayout
Layout
p3
(dp4
S'capsules'
p5
(lp6
sS'numGhosts'
p7
I1
sS'food'
p8
(igame
Grid
p9
(dp10
S'CELLS_PER_INT'
p11
I30
sS'width'
p12
I7
sS'data'
p13
(lp14
(lp15
I00
aI00
aI00
aI00
aI00
aI00
aI00
aa(lp16
I00
aI01
aI00
aI00
aI00
aI00
aI00
aa(lp17
I00
aI00
aI00
aI00
aI00
aI00
aI00
aa(lp18
I00
aI00
aI00
aI01
aI00
aI00
aI00
aa(lp19
I00
aI00
aI00
aI00
aI00
aI00
aI00
aa(lp20
I00
aI00
aI00
aI00
aI00
aI00
aI00
aa(lp21
I00
aI00
aI00
aI00
aI00
aI00
aI00
aasS'height'
p22
I7
sbsS'agentPositions'
p23
(lp24
(I01
(I2
I5
tp25
tp26
a(I00
(I3
I1
ttp27
asg22
I7
sg12
I7
sS'walls'
p28
(igame
Grid
p29
(dp30
g11
I30
sg12
I7
sg13
(lp31
(lp32
I01
aI01
aI01
aI01
aI01
aI01
aI01
aa(lp33
I01
aI00
aI00
aI00
aI00
aI00
aI01
aa(lp34
I01
aI00
aI01
aI01
aI01
aI00
aI01
aa(lp35
I01
aI00
aI01
aI00
aI01
aI00
aI01
aa(lp36
I01
aI00
aI01
aI00
aI01
aI00
aI01
aa(lp37
I01
aI00
aI00
aI00
aI00
aI00
aI01
aa(lp38
I01
aI01
aI01
aI01
aI01
aI01
aI01
aasg22
I7
sbsS'totalFood'
p39
I2
sS'layoutText'
p40
(lp41
S'%%%%%%%'
p42
aS'% P   %'
p43
aS'% %%% %'
p44
aS'% %.  %'
p45
aS'% %%% %'
p46
aS'%. G  %'
p47
aS'%%%%%%%'
p48
asbsS'actions'
p49
(lp50
(I0
S'West'
p51
tp52
a(I0
S'East'
p53
tp54
a(I0
g53
tp55
a(I0
g53
tp56
a(I0
g53
tp57
a(I0
g51
tp58
a(I0
g51
tp59
a(I0
S'Stop'
p60
tp61
a(I0
g53
tp62
a(I0
g53
tp63
a(I0
S'South'
p64
tp65
a(I0
g64
tp66
a(I0
g60
tp67
a(I0
g51
tp68
a(I0
g51
tp69
a(I0
g53
tp70
a(I0
g53
tp71
a(I0
g51
tp72
a(I0
g51
tp73
a(I0
g53
tp74
a(I0
g53
tp75
a(I0
g51
tp76
a(I0
g51
tp77
a(I0
g53
tp78
a(I0
g53
tp79
a(I0
g51
tp80
a(I0
g51
tp81
a(I0
g53
tp82
a(I0
g53
tp83
a(I0
g51
tp84
a(I0
g51
tp85
a(I0
g53
tp86
a(I0
g53
tp87
a(I0
g51
tp88
a(I0
g51
tp89
a(I0
g53
tp90
a(I0
g53
tp91
a(I0
g51
tp92
a(I0
g51
tp93
a(I0
g53
tp94
a(I0
g53
tp95
a(I0
g51
tp96
a(I0
g51
tp97
a(I0
g53
tp98
a(I0
g53
tp99
a(I0
g51
tp100
a(I0
g51
tp101
a(I0
g53
tp102
a(I0
g53
tp103
a(I0
g51
tp104
a(I0
g51
tp105
a(I0
g53
tp106
a(I0
g53
tp107
a(I0
g51
tp108
a(I0
g51
tp109
a(I0
g53
tp110
a(I0
g53
tp111
a(I0
g51
tp112
a(I0
g51
tp113
a(I0
g53
tp114
a(I0
g53
tp115
a(I0
g51
tp116
a(I0
g51
tp117
a(I0
g53
tp118
a(I0
g51
tp119
a(I0
g53
tp120
a(I0
g60
tp121
a(I0
g53
tp122
a(I0
g60
tp123
a(I0
g60
tp124
a(I0
g51
tp125
a(I0
g51
tp126
a(I0
g60
tp127
a(I0
g60
tp128
a(I0
g53
tp129
a(I0
g53
tp130
a(I0
g51
tp131
a(I0
g51
tp132
a(I0
g53
tp133
a(I0
g51
tp134
a(I0
g53
tp135
a(I0
g51
tp136
a(I0
g53
tp137
a(I0
g53
tp138
a(I0
g51
tp139
a(I0
g51
tp140
a(I0
g53
tp141
a(I0
g53
tp142
a(I0
g51
tp143
a(I0
g51
tp144
a(I0
g53
tp145
a(I0
g51
tp146
a(I0
g53
tp147
a(I0
g51
tp148
a(I0
g53
tp149
a(I0
g51
tp150
a(I0
g53
tp151
a(I0
g51
tp152
a(I0
g53
tp153
a(I0
g51
tp154
a(I0
g53
tp155
a(I0
g53
tp156
a(I0
g60
tp157
a(I0
g60
tp158
a(I0
g51
tp159
a(I0
g60
tp160
a(I0
g60
tp161
a(I0
g60
tp162
a(I0
g60
tp163
a(I0
g60
tp164
a(I0
g60
tp165
a(I0
g60
tp166
a(I0
g51
tp167
a(I0
g53
tp168
a(I0
g53
tp169
a(I0
g51
tp170
a(I0
g60
tp171
a(I0
g60
tp172
a(I0
g60
tp173
a(I0
g51
tp174
a(I0
g53
tp175
a(I0
g51
tp176
a(I0
g53
tp177
a(I0
g51
tp178
a(I0
g53
tp179
a(I0
g51
tp180
a(I0
g53
tp181
a(I0
g60
tp182
a(I0
g51
tp183
a(I0
g53
tp184
a(I0
g51
tp185
a(I0
g53
tp186
a(I0
g51
tp187
a(I0
g53
tp188
a(I0
g51
tp189
a(I0
g53
tp190
a(I0
g51
tp191
a(I0
g53
tp192
a(I0
g51
tp193
a(I0
g53
tp194
a(I0
g51
tp195
a(I0
g53
tp196
a(I0
g60
tp197
a(I0
g60
tp198
a(I0
g53
tp199
a(I0
g60
tp200
a(I0
g60
tp201
a(I0
g60
tp202
a(I0
g60
tp203
a(I0
g60
tp204
a(I0
g51
tp205
a(I0
g51
tp206
a(I0
g53
tp207
a(I0
g51
tp208
a(I0
g53
tp209
a(I0
g51
tp210
a(I0
g53
tp211
a(I0
g53
tp212
a(I0
g60
tp213
a(I0
g60
tp214
a(I0
g60
tp215
a(I0
g60
tp216
a(I0
g60
tp217
a(I0
g60
tp218
a(I0
g60
tp219
a(I0
g60
tp220
a(I0
g60
tp221
a(I0
g60
tp222
a(I0
g60
tp223
a(I0
g60
tp224
a(I0
g60
tp225
a(I0
g51
tp226
a(I0
g51
tp227
a(I0
g53
tp228
a(I0
g60
tp229
a(I0
g60
tp230
a(I0
g51
tp231
a(I0
g53
tp232
a(I0
g53
tp233
a(I0
g51
tp234
a(I0
g53
tp235
a(I0
g60
tp236
a(I0
g60
tp237
a(I0
g51
tp238
a(I0
g51
tp239
a(I0
g53
tp240
a(I0
g53
tp241
a(I0
g51
tp242
a(I0
g51
tp243
a(I0
g60
tp244
a(I0
g53
tp245
a(I0
g53
tp246
a(I0
g51
tp247
a(I0
g51
tp248
a(I0
g60
tp249
a(I0
g53
tp250
a(I0
g51
tp251
a(I0
g53
tp252
a(I0
g51
tp253
a(I0
g53
tp254
a(I0
g51
tp255
a(I0
g53
tp256
a(I0
g51
tp257
a(I0
g60
tp258
a(I0
g60
tp259
a(I0
g53
tp260
a(I0
g60
tp261
a(I0
g60
tp262
a(I0
g51
tp263
a(I0
g53
tp264
a(I0
g53
tp265
a(I0
S'North'
p266
tp267
a(I0
g60
tp268
a(I0
g60
tp269
a(I0
g60
tp270
a(I0
g60
tp271
a(I0
g266
tp272
a(I0
g51
tp273
a(I0
g51
tp274
a(I0
g51
tp275
a(I0
g51
tp276
a(I0
g60
tp277
a(I0
g60
tp278
a(I0
g60
tp279
a(I0
g60
tp280
a(I0
g60
tp281
a(I0
g60
tp282
a(I0
g60
tp283
a(I0
g60
tp284
a(I0
g60
tp285
a(I0
g60
tp286
a(I0
g60
tp287
a(I0
g60
tp288
a(I0
g60
tp289
a(I0
g60
tp290
a(I0
g60
tp291
a(I0
g60
tp292
a(I0
g60
tp293
a(I0
g60
tp294
a(I0
g60
tp295
a(I0
g60
tp296
a(I0
g60
tp297
a(I0
g60
tp298
a(I0
g60
tp299
a(I0
g60
tp300
a(I0
g60
tp301
a(I0
g60
tp302
a(I0
g60
tp303
a(I0
g60
tp304
a(I0
g60
tp305
a(I0
g60
tp306
a(I0
g60
tp307
a(I0
g60
tp308
a(I0
g60
tp309
a(I0
g60
tp310
a(I0
g60
tp311
a(I0
g60
tp312
a(I0
g60
tp313
a(I0
g60
tp314
a(I0
g60
tp315
a(I0
g60
tp316
a(I0
g60
tp317
a(I0
g60
tp318
a(I0
g53
tp319
a(I0
g51
tp320
a(I0
g60
tp321
a(I0
g60
tp322
a(I0
g60
tp323
a(I0
g60
tp324
a(I0
g60
tp325
a(I0
g60
tp326
a(I0
g60
tp327
a(I0
g60
tp328
a(I0
g60
tp329
a(I0
g60
tp330
a(I0
g60
tp331
a(I0
g60
tp332
a(I0
g60
tp333
a(I0
g60
tp334
a(I0
g60
tp335
a(I0
g60
tp336
a(I0
g60
tp337
a(I0
g60
tp338
a(I0
g53
tp339
a(I0
g51
tp340
a(I0
g53
tp341
a(I0
g51
tp342
a(I0
g53
tp343
a(I0
g51
tp344
a(I0
g53
tp345
a(I0
g51
tp346
a(I0
g53
tp347
a(I0
g51
tp348
a(I0
g53
tp349
a(I0
g51
tp350
a(I0
g53
tp351
a(I0
g51
tp352
a(I0
g53
tp353
a(I0
g51
tp354
a(I0
g53
tp355
a(I0
g51
tp356
a(I0
g53
tp357
a(I0
g51
tp358
a(I0
g53
tp359
a(I0
g51
tp360
a(I0
g53
tp361
a(I0
g51
tp362
a(I0
g60
tp363
a(I0
g60
tp364
a(I0
g53
tp365
a(I0
g51
tp366
a(I0
g53
tp367
a(I0
g51
tp368
a(I0
g53
tp369
a(I0
g51
tp370
a(I0
g53
tp371
a(I0
g51
tp372
a(I0
g53
tp373
a(I0
g51
tp374
a(I0
g53
tp375
a(I0
g51
tp376
a(I0
g53
tp377
a(I0
g51
tp378
a(I0
g53
tp379
a(I0
g51
tp380
a(I0
g53
tp381
a(I0
g51
tp382
a(I0
g53
tp383
a(I0
g51
tp384
a(I0
g53
tp385
a(I0
g51
tp386
a(I0
g53
tp387
a(I0
g53
tp388
a(I0
g51
tp389
a(I0
g53
tp390
a(I0
g51
tp391
a(I0
g51
tp392
a(I0
g53
tp393
a(I0
g51
tp394
a(I0
g53
tp395
a(I0
g51
tp396
a(I0
g60
tp397
a(I0
g60
tp398
a(I0
g60
tp399
a(I0
g60
tp400
a(I0
g60
tp401
a(I0
g60
tp402
a(I0
g60
tp403
a(I0
g60
tp404
a(I0
g60
tp405
a(I0
g64
tp406
a(I0
g60
tp407
a(I0
g60
tp408
a(I0
g60
tp409
a(I0
g60
tp410
a(I0
g266
tp411
a(I0
g53
tp412
a(I0
g53
tp413
a(I0
g51
tp414
a(I0
g51
tp415
a(I0
g60
tp416
a(I0
g60
tp417
a(I0
g60
tp418
a(I0
g60
tp419
a(I0
g60
tp420
a(I0
g60
tp421
a(I0
g60
tp422
a(I0
g60
tp423
a(I0
g60
tp424
a(I0
g60
tp425
a(I0
g60
tp426
a(I0
g60
tp427
a(I0
g60
tp428
a(I0
g60
tp429
a(I0
g60
tp430
a(I0
g53
tp431
a(I0
g51
tp432
a(I0
g60
tp433
a(I0
g60
tp434
a(I0
g60
tp435
a(I0
g60
tp436
a(I0
g60
tp437
a(I0
g60
tp438
a(I0
g60
tp439
a(I0
g60
tp440
a(I0
g60
tp441
a(I0
g60
tp442
a(I0
g60
tp443
a(I0
g60
tp444
a(I0
g60
tp445
a(I0
g60
tp446
a(I0
g60
tp447
a(I0
g60
tp448
a(I0
g60
tp449
a(I0
g60
tp450
a(I0
g60
tp451
a(I0
g60
tp452
a(I0
g60
tp453
a(I0
g60
tp454
a(I0
g60
tp455
a(I0
g60
tp456
a(I0
g53
tp457
a(I0
g51
tp458
a(I0
g60
tp459
a(I0
g60
tp460
a(I0
g60
tp461
a(I0
g60
tp462
a(I0
g60
tp463
a(I0
g60
tp464
a(I0
g64
tp465
a(I0
g266
tp466
a(I0
g60
tp467
a(I0
g60
tp468
a(I0
g60
tp469
a(I0
g60
tp470
a(I0
g60
tp471
a(I0
g60
tp472
a(I0
g60
tp473
a(I0
g60
tp474
a(I0
g60
tp475
a(I0
g60
tp476
a(I0
g60
tp477
a(I0
g60
tp478
a(I0
g60
tp479
a(I0
g60
tp480
a(I0
g60
tp481
a(I0
g60
tp482
a(I0
g60
tp483
a(I0
g60
tp484
a(I0
g60
tp485
a(I0
g60
tp486
a(I0
g60
tp487
a(I0
g60
tp488
a(I0
g60
tp489
a(I0
g60
tp490
a(I0
g60
tp491
a(I0
g60
tp492
a(I0
g60
tp493
a(I0
g60
tp494
a(I0
g60
tp495
a(I0
g60
tp496
a(I0
g60
tp497
a(I0
g60
tp498
a(I0
g60
tp499
a(I0
g60
tp500
a(I0
g60
tp501
a(I0
g60
tp502
a(I0
g60
tp503
a(I0
g60
tp504
a(I0
g60
tp505
a(I0
g53
tp506
a(I0
g51
tp507
a(I0
g60
tp508
a(I0
g60
tp509
a(I0
g60
tp510
a(I0
g60
tp511
a(I0
g60
tp512
a(I0
g60
tp513
a(I0
g60
tp514
a(I0
g60
tp515
a(I0
g60
tp516
a(I0
g60
tp517
a(I0
g60
tp518
a(I0
g60
tp519
a(I0
g60
tp520
a(I0
g60
tp521
a(I0
g60
tp522
a(I0
g60
tp523
a(I0
g60
tp524
a(I0
g60
tp525
a(I0
g60
tp526
a(I0
g60
tp527
a(I0
g60
tp528
a(I0
g60
tp529
a(I0
g60
tp530
a(I0
g60
tp531
a(I0
g64
tp532
a(I0
g60
tp533
a(I0
g60
tp534
a(I0
g60
tp535
a(I0
g60
tp536
a(I0
g60
tp537
a(I0
g60
tp538
a(I0
g60
tp539
a(I0
g64
tp540
a(I0
g266
tp541
a(I0
g60
tp542
a(I0
g60
tp543
a(I0
g60
tp544
a(I0
g60
tp545
a(I0
g60
tp546
a(I0
g60
tp547
a(I0
g60
tp548
a(I0
g60
tp549
a(I0
g60
tp550
a(I0
g60
tp551
a(I0
g60
tp552
a(I0
g60
tp553
a(I0
g60
tp554
a(I0
g60
tp555
a(I0
g266
tp556
a(I0
g60
tp557
a(I0
g60
tp558
a(I0
g60
tp559
a(I0
g60
tp560
a(I0
g60
tp561
a(I0
g53
tp562
a(I0
g51
tp563
a(I0
g60
tp564
a(I0
g60
tp565
a(I0
g60
tp566
a(I0
g60
tp567
a(I0
g60
tp568
a(I0
g60
tp569
a(I0
g60
tp570
a(I0
g60
tp571
a(I0
g60
tp572
a(I0
g60
tp573
a(I0
g60
tp574
a(I0
g60
tp575
a(I0
g60
tp576
a(I0
g60
tp577
a(I0
g60
tp578
a(I0
g60
tp579
a(I0
g60
tp580
a(I0
g60
tp581
a(I0
g60
tp582
a(I0
g60
tp583
a(I0
g60
tp584
a(I0
g60
tp585
a(I0
g60
tp586
a(I0
g60
tp587
a(I0
g60
tp588
a(I0
g60
tp589
a(I0
g60
tp590
a(I0
g60
tp591
a(I0
g60
tp592
a(I0
g53
tp593
a(I0
g51
tp594
a(I0
g60
tp595
a(I0
g60
tp596
a(I0
g60
tp597
a(I0
g60
tp598
a(I0
g60
tp599
a(I0
g60
tp600
a(I0
g60
tp601
a(I0
g60
tp602
a(I0
g60
tp603
a(I0
g60
tp604
a(I0
g60
tp605
a(I0
g60
tp606
a(I0
g60
tp607
a(I0
g60
tp608
a(I0
g53
tp609
a(I0
g51
tp610
a(I0
g60
tp611
a(I0
g60
tp612
a(I0
g60
tp613
a(I0
g60
tp614
a(I0
g60
tp615
a(I0
g60
tp616
a(I0
g60
tp617
a(I0
g60
tp618
a(I0
g60
tp619
a(I0
g60
tp620
a(I0
g60
tp621
a(I0
g60
tp622
a(I0
g60
tp623
a(I0
g60
tp624
a(I0
g60
tp625
a(I0
g60
tp626
a(I0
g60
tp627
a(I0
g60
tp628
a(I0
g60
tp629
a(I0
g60
tp630
a(I0
g60
tp631
a(I0
g60
tp632
a(I0
g60
tp633
a(I0
g60
tp634
a(I0
g60
tp635
a(I0
g60
tp636
a(I0
g60
tp637
a(I0
g60
tp638
a(I0
g60
tp639
a(I0
g60
tp640
a(I0
g60
tp641
a(I0
g60
tp642
a(I0
g60
tp643
a(I0
g60
tp644
a(I0
g60
tp645
a(I0
g60
tp646
a(I0
g60
tp647
a(I0
g60
tp648
a(I0
g60
tp649
a(I0
g60
tp650
a(I0
g60
tp651
a(I0
g60
tp652
a(I0
g60
tp653
a(I0
g60
tp654
a(I0
g60
tp655
a(I0
g60
tp656
a(I0
g60
tp657
a(I0
g60
tp658
a(I0
g60
tp659
a(I0
g64
tp660
a(I0
g60
tp661
a(I0
g60
tp662
a(I0
g60
tp663
a(I0
g60
tp664
a(I0
g60
tp665
a(I0
g60
tp666
a(I0
g60
tp667
a(I0
g60
tp668
a(I0
g60
tp669
a(I0
g60
tp670
a(I0
g60
tp671
a(I0
g60
tp672
a(I0
g60
tp673
a(I0
g60
tp674
a(I0
g60
tp675
a(I0
g60
tp676
a(I0
g266
tp677
a(I0
g60
tp678
a(I0
g60
tp679
a(I0
g60
tp680
a(I0
g60
tp681
a(I0
g53
tp682
a(I0
g51
tp683
a(I0
g60
tp684
a(I0
g60
tp685
a(I0
g60
tp686
a(I0
g60
tp687
a(I0
g60
tp688
a(I0
g60
tp689
a(I0
g60
tp690
a(I0
g60
tp691
a(I0
g60
tp692
a(I0
g60
tp693
a(I0
g60
tp694
a(I0
g60
tp695
a(I0
g60
tp696
a(I0
g60
tp697
a(I0
g60
tp698
a(I0
g60
tp699
a(I0
g60
tp700
a(I0
g60
tp701
a(I0
g60
tp702
a(I0
g60
tp703
a(I0
g60
tp704
a(I0
g60
tp705
a(I0
g60
tp706
a(I0
g60
tp707
a(I0
g60
tp708
a(I0
g60
tp709
a(I0
g60
tp710
a(I0
g60
tp711
a(I0
g60
tp712
a(I0
g60
tp713
a(I0
g60
tp714
a(I0
g60
tp715
a(I0
g60
tp716
a(I0
g60
tp717
a(I0
g60
tp718
a(I0
g60
tp719
a(I0
g60
tp720
a(I0
g53
tp721
a(I0
g51
tp722
a(I0
g60
tp723
a(I0
g60
tp724
a(I0
g60
tp725
a(I0
g60
tp726
a(I0
g60
tp727
a(I0
g60
tp728
a(I0
g60
tp729
a(I0
g60
tp730
a(I0
g60
tp731
a(I0
g60
tp732
a(I0
g60
tp733
a(I0
g60
tp734
a(I0
g60
tp735
a(I0
g60
tp736
a(I0
g60
tp737
a(I0
g60
tp738
a(I0
g60
tp739
a(I0
g60
tp740
a(I0
g60
tp741
a(I0
g60
tp742
a(I0
g60
tp743
a(I0
g60
tp744
a(I0
g60
tp745
a(I0
g60
tp746
a(I0
g64
tp747
a(I0
g60
tp748
a(I0
g60
tp749
a(I0
g60
tp750
a(I0
g60
tp751
a(I0
g60
tp752
a(I0
g60
tp753
a(I0
g60
tp754
a(I0
g60
tp755
a(I0
g60
tp756
a(I0
g60
tp757
a(I0
g60
tp758
a(I0
g60
tp759
a(I0
g60
tp760
a(I0
g60
tp761
a(I0
g60
tp762
a(I0
g60
tp763
a(I0
g60
tp764
a(I0
g60
tp765
a(I0
g266
tp766
a(I0
g60
tp767
a(I0
g60
tp768
a(I0
g60
tp769
a(I0
g60
tp770
a(I0
g60
tp771
a(I0
g60
tp772
a(I0
g60
tp773
a(I0
g60
tp774
a(I0
g64
tp775
a(I0
g60
tp776
a(I0
g60
tp777
a(I0
g60
tp778
a(I0
g60
tp779
a(I0
g60
tp780
a(I0
g64
tp781
a(I0
g60
tp782
a(I0
g60
tp783
a(I0
g64
tp784
a(I0
g60
tp785
a(I0
g60
tp786
a(I0
g60
tp787
a(I0
g60
tp788
a(I0
g60
tp789
a(I0
g60
tp790
a(I0
g60
tp791
a(I0
g60
tp792
a(I0
g60
tp793
a(I0
g60
tp794
a(I0
g60
tp795
a(I0
g60
tp796
a(I0
g60
tp797
a(I0
g60
tp798
a(I0
g60
tp799
a(I0
g60
tp800
a(I0
g60
tp801
a(I0
g60
tp802
a(I0
g60
tp803
a(I0
g60
tp804
a(I0
g64
tp805
as.