(dp1
S'layout'
p2
(ilayout
Layout
p3
(dp4
S'capsules'
p5
(lp6
sS'numGhosts'
p7
I1
sS'food'
p8
(igame
Grid
p9
(dp10
S'CELLS_PER_INT'
p11
I30
sS'width'
p12
I7
sS'data'
p13
(lp14
(lp15
I00
aI00
aI00
aI00
aI00
aI00
aI00
aa(lp16
I00
aI01
aI00
aI00
aI00
aI00
aI00
aa(lp17
I00
aI00
aI00
aI00
aI00
aI00
aI00
aa(lp18
I00
aI00
aI00
aI01
aI00
aI00
aI00
aa(lp19
I00
aI00
aI00
aI00
aI00
aI00
aI00
aa(lp20
I00
aI00
aI00
aI00
aI00
aI00
aI00
aa(lp21
I00
aI00
aI00
aI00
aI00
aI00
aI00
aasS'height'
p22
I7
sbsS'agentPositions'
p23
(lp24
(I01
(I2
I5
tp25
tp26
a(I00
(I3
I1
ttp27
asg22
I7
sg12
I7
sS'walls'
p28
(igame
Grid
p29
(dp30
g11
I30
sg12
I7
sg13
(lp31
(lp32
I01
aI01
aI01
aI01
aI01
aI01
aI01
aa(lp33
I01
aI00
aI00
aI00
aI00
aI00
aI01
aa(lp34
I01
aI00
aI01
aI01
aI01
aI00
aI01
aa(lp35
I01
aI00
aI01
aI00
aI01
aI00
aI01
aa(lp36
I01
aI00
aI01
aI00
aI01
aI00
aI01
aa(lp37
I01
aI00
aI00
aI00
aI00
aI00
aI01
aa(lp38
I01
aI01
aI01
aI01
aI01
aI01
aI01
aasg22
I7
sbsS'totalFood'
p39
I2
sS'layoutText'
p40
(lp41
S'%%%%%%%'
p42
aS'% P   %'
p43
aS'% %%% %'
p44
aS'% %.  %'
p45
aS'% %%% %'
p46
aS'%. G  %'
p47
aS'%%%%%%%'
p48
asbsS'actions'
p49
(lp50
(I0
S'West'
p51
tp52
a(I0
S'Stop'
p53
tp54
a(I0
S'South'
p55
tp56
a(I0
S'North'
p57
tp58
a(I0
g55
tp59
a(I0
g55
tp60
a(I0
g55
tp61
a(I0
g55
tp62
a(I0
S'East'
p63
tp64
a(I0
g63
tp65
a(I0
g51
tp66
a(I0
g51
tp67
a(I0
g63
tp68
a(I0
g63
tp69
a(I0
g63
tp70
a(I0
g51
tp71
a(I0
g51
tp72
a(I0
g53
tp73
a(I0
g53
tp74
a(I0
g53
tp75
a(I0
g53
tp76
a(I0
g51
tp77
a(I0
g57
tp78
a(I0
g53
tp79
a(I0
g55
tp80
a(I0
g57
tp81
a(I0
g57
tp82
a(I0
g57
tp83
a(I0
g57
tp84
a(I0
g53
tp85
a(I0
g63
tp86
a(I0
g51
tp87
a(I0
g55
tp88
a(I0
g55
tp89
a(I0
g55
tp90
a(I0
g55
tp91
a(I0
g63
tp92
a(I0
g53
tp93
a(I0
g53
tp94
a(I0
g53
tp95
a(I0
g53
tp96
a(I0
g63
tp97
a(I0
g51
tp98
a(I0
g63
tp99
a(I0
g63
tp100
a(I0
g51
tp101
a(I0
g51
tp102
a(I0
g63
tp103
a(I0
g63
tp104
a(I0
g51
tp105
a(I0
g51
tp106
a(I0
g63
tp107
a(I0
g63
tp108
a(I0
g51
tp109
a(I0
g51
tp110
a(I0
g63
tp111
a(I0
g63
tp112
a(I0
g51
tp113
a(I0
g51
tp114
a(I0
g53
tp115
a(I0
g53
tp116
a(I0
g53
tp117
a(I0
g51
tp118
a(I0
g57
tp119
a(I0
g55
tp120
a(I0
g53
tp121
a(I0
g63
tp122
a(I0
g63
tp123
a(I0
g51
tp124
a(I0
g53
tp125
a(I0
g51
tp126
a(I0
g57
tp127
a(I0
g57
tp128
a(I0
g53
tp129
a(I0
g53
tp130
a(I0
g57
tp131
a(I0
g57
tp132
a(I0
g63
tp133
a(I0
g63
tp134
a(I0
g51
tp135
a(I0
g51
tp136
a(I0
g55
tp137
a(I0
g57
tp138
a(I0
g63
tp139
a(I0
g63
tp140
a(I0
g51
tp141
a(I0
g63
tp142
a(I0
g51
tp143
a(I0
g53
tp144
a(I0
g51
tp145
a(I0
g55
tp146
a(I0
g57
tp147
a(I0
g63
tp148
a(I0
g63
tp149
a(I0
g51
tp150
a(I0
g63
tp151
a(I0
g63
tp152
a(I0
g51
tp153
a(I0
g53
tp154
a(I0
g53
tp155
a(I0
g53
tp156
a(I0
g53
tp157
a(I0
g53
tp158
a(I0
g53
tp159
a(I0
g53
tp160
a(I0
g53
tp161
a(I0
g53
tp162
a(I0
g51
tp163
a(I0
g51
tp164
a(I0
g55
tp165
a(I0
g57
tp166
a(I0
g63
tp167
a(I0
g63
tp168
a(I0
g51
tp169
a(I0
g51
tp170
a(I0
g55
tp171
a(I0
g57
tp172
a(I0
g63
tp173
a(I0
g63
tp174
a(I0
g51
tp175
a(I0
g53
tp176
a(I0
g63
tp177
a(I0
g53
tp178
a(I0
g51
tp179
a(I0
g63
tp180
a(I0
g53
tp181
a(I0
g63
tp182
a(I0
g63
tp183
a(I0
g51
tp184
a(I0
g51
tp185
a(I0
g53
tp186
a(I0
g53
tp187
a(I0
g53
tp188
a(I0
g53
tp189
a(I0
g53
tp190
a(I0
g53
tp191
a(I0
g53
tp192
a(I0
g53
tp193
a(I0
g53
tp194
a(I0
g53
tp195
a(I0
g63
tp196
a(I0
g63
tp197
a(I0
g51
tp198
a(I0
g51
tp199
a(I0
g63
tp200
a(I0
g63
tp201
a(I0
g51
tp202
a(I0
g51
tp203
a(I0
g63
tp204
a(I0
g63
tp205
a(I0
g51
tp206
a(I0
g51
tp207
a(I0
g63
tp208
a(I0
g63
tp209
a(I0
g51
tp210
a(I0
g51
tp211
a(I0
g63
tp212
a(I0
g63
tp213
a(I0
g51
tp214
a(I0
g51
tp215
a(I0
g63
tp216
a(I0
g53
tp217
a(I0
g53
tp218
a(I0
g53
tp219
a(I0
g63
tp220
a(I0
g51
tp221
a(I0
g51
tp222
a(I0
g63
tp223
a(I0
g51
tp224
a(I0
g63
tp225
a(I0
g63
tp226
a(I0
g53
tp227
a(I0
g51
tp228
a(I0
g51
tp229
a(I0
g63
tp230
a(I0
g63
tp231
a(I0
g51
tp232
a(I0
g51
tp233
a(I0
g63
tp234
a(I0
g51
tp235
a(I0
g51
tp236
a(I0
g53
tp237
a(I0
g53
tp238
a(I0
g51
tp239
a(I0
g53
tp240
a(I0
g55
tp241
a(I0
g55
tp242
a(I0
g55
tp243
a(I0
g55
tp244
a(I0
g63
tp245
a(I0
g63
tp246
a(I0
g51
tp247
a(I0
g51
tp248
a(I0
g57
tp249
a(I0
g55
tp250
a(I0
g53
tp251
a(I0
g53
tp252
a(I0
g53
tp253
a(I0
g63
tp254
a(I0
g63
tp255
a(I0
g63
tp256
a(I0
g51
tp257
a(I0
g51
tp258
a(I0
g63
tp259
a(I0
g63
tp260
a(I0
g51
tp261
a(I0
g51
tp262
a(I0
g63
tp263
a(I0
g63
tp264
a(I0
g51
tp265
a(I0
g51
tp266
a(I0
g51
tp267
a(I0
g57
tp268
a(I0
g57
tp269
a(I0
g57
tp270
a(I0
g57
tp271
a(I0
g53
tp272
a(I0
g53
tp273
a(I0
g53
tp274
a(I0
g53
tp275
a(I0
g53
tp276
a(I0
g53
tp277
a(I0
g53
tp278
a(I0
g53
tp279
a(I0
g53
tp280
a(I0
g53
tp281
a(I0
g53
tp282
a(I0
g53
tp283
a(I0
g53
tp284
a(I0
g53
tp285
a(I0
g53
tp286
a(I0
g53
tp287
a(I0
g63
tp288
a(I0
g63
tp289
a(I0
g53
tp290
a(I0
g63
tp291
a(I0
g53
tp292
a(I0
g51
tp293
a(I0
g63
tp294
a(I0
g63
tp295
a(I0
g51
tp296
a(I0
g51
tp297
a(I0
g63
tp298
a(I0
g51
tp299
a(I0
g51
tp300
a(I0
g53
tp301
a(I0
g51
tp302
a(I0
g53
tp303
a(I0
g53
tp304
a(I0
g53
tp305
a(I0
g63
tp306
a(I0
g51
tp307
a(I0
g63
tp308
a(I0
g51
tp309
a(I0
g53
tp310
a(I0
g53
tp311
a(I0
g55
tp312
a(I0
g55
tp313
a(I0
g55
tp314
a(I0
g57
tp315
a(I0
g57
tp316
a(I0
g55
tp317
a(I0
g55
tp318
a(I0
g57
tp319
a(I0
g55
tp320
a(I0
g57
tp321
a(I0
g55
tp322
a(I0
g55
tp323
a(I0
g63
tp324
a(I0
g63
tp325
a(I0
g51
tp326
a(I0
g51
tp327
a(I0
g57
tp328
a(I0
g53
tp329
a(I0
g53
tp330
a(I0
g53
tp331
a(I0
g53
tp332
a(I0
g55
tp333
a(I0
g63
tp334
a(I0
g63
tp335
a(I0
g51
tp336
a(I0
g63
tp337
a(I0
g51
tp338
a(I0
g53
tp339
a(I0
g51
tp340
a(I0
g63
tp341
a(I0
g51
tp342
a(I0
g63
tp343
a(I0
g53
tp344
a(I0
g53
tp345
a(I0
g53
tp346
a(I0
g63
tp347
a(I0
g51
tp348
a(I0
g51
tp349
a(I0
g57
tp350
a(I0
g57
tp351
a(I0
g55
tp352
a(I0
g55
tp353
a(I0
g63
tp354
a(I0
g63
tp355
a(I0
g51
tp356
a(I0
g53
tp357
a(I0
g51
tp358
a(I0
g57
tp359
a(I0
g57
tp360
a(I0
g55
tp361
a(I0
g57
tp362
a(I0
g55
tp363
a(I0
g55
tp364
a(I0
g63
tp365
a(I0
g63
tp366
a(I0
g51
tp367
a(I0
g63
tp368
a(I0
g63
tp369
a(I0
g51
tp370
a(I0
g51
tp371
a(I0
g51
tp372
a(I0
g57
tp373
a(I0
g57
tp374
a(I0
g55
tp375
a(I0
g57
tp376
a(I0
g57
tp377
a(I0
g57
tp378
a(I0
g53
tp379
a(I0
g53
tp380
a(I0
g63
tp381
a(I0
g51
tp382
a(I0
g55
tp383
a(I0
g55
tp384
a(I0
g55
tp385
a(I0
g55
tp386
a(I0
g63
tp387
a(I0
g51
tp388
a(I0
g63
tp389
a(I0
g53
tp390
a(I0
g53
tp391
a(I0
g53
tp392
a(I0
g53
tp393
a(I0
g53
tp394
a(I0
g63
tp395
a(I0
g51
tp396
a(I0
g51
tp397
a(I0
g57
tp398
a(I0
g57
tp399
a(I0
g57
tp400
a(I0
g55
tp401
a(I0
g55
tp402
a(I0
g57
tp403
a(I0
g57
tp404
a(I0
g55
tp405
a(I0
g55
tp406
a(I0
g57
tp407
a(I0
g57
tp408
a(I0
g55
tp409
a(I0
g53
tp410
a(I0
g53
tp411
a(I0
g55
tp412
a(I0
g55
tp413
a(I0
g63
tp414
a(I0
g53
tp415
a(I0
g53
tp416
a(I0
g53
tp417
a(I0
g53
tp418
a(I0
g53
tp419
a(I0
g53
tp420
a(I0
g53
tp421
a(I0
g53
tp422
a(I0
g53
tp423
a(I0
g53
tp424
a(I0
g63
tp425
a(I0
g53
tp426
a(I0
g51
tp427
a(I0
g63
tp428
a(I0
g63
tp429
a(I0
g51
tp430
a(I0
g51
tp431
a(I0
g53
tp432
a(I0
g63
tp433
a(I0
g63
tp434
a(I0
g53
tp435
a(I0
g53
tp436
a(I0
g53
tp437
a(I0
g51
tp438
a(I0
g51
tp439
a(I0
g53
tp440
a(I0
g51
tp441
a(I0
g57
tp442
a(I0
g57
tp443
a(I0
g57
tp444
a(I0
g57
tp445
a(I0
g53
tp446
a(I0
g53
tp447
a(I0
g53
tp448
a(I0
g55
tp449
a(I0
g55
tp450
a(I0
g57
tp451
a(I0
g57
tp452
a(I0
g55
tp453
a(I0
g55
tp454
a(I0
g57
tp455
a(I0
g55
tp456
a(I0
g57
tp457
a(I0
g57
tp458
a(I0
g55
tp459
a(I0
g55
tp460
a(I0
g57
tp461
a(I0
g53
tp462
a(I0
g57
tp463
a(I0
g53
tp464
a(I0
g55
tp465
a(I0
g55
tp466
a(I0
g57
tp467
a(I0
g55
tp468
a(I0
g55
tp469
a(I0
g55
tp470
a(I0
g53
tp471
a(I0
g53
tp472
a(I0
g53
tp473
a(I0
g57
tp474
a(I0
g55
tp475
a(I0
g53
tp476
a(I0
g53
tp477
a(I0
g53
tp478
a(I0
g53
tp479
a(I0
g53
tp480
a(I0
g57
tp481
a(I0
g53
tp482
a(I0
g53
tp483
a(I0
g53
tp484
a(I0
g53
tp485
a(I0
g53
tp486
a(I0
g53
tp487
a(I0
g57
tp488
a(I0
g57
tp489
a(I0
g55
tp490
a(I0
g55
tp491
a(I0
g57
tp492
a(I0
g53
tp493
a(I0
g57
tp494
a(I0
g55
tp495
a(I0
g55
tp496
a(I0
g57
tp497
a(I0
g57
tp498
a(I0
g55
tp499
a(I0
g55
tp500
a(I0
g57
tp501
a(I0
g55
tp502
a(I0
g53
tp503
a(I0
g57
tp504
a(I0
g57
tp505
a(I0
g53
tp506
a(I0
g55
tp507
a(I0
g55
tp508
a(I0
g57
tp509
a(I0
g57
tp510
a(I0
g53
tp511
a(I0
g57
tp512
a(I0
g55
tp513
a(I0
g55
tp514
a(I0
g55
tp515
a(I0
g55
tp516
a(I0
g63
tp517
a(I0
g63
tp518
a(I0
g51
tp519
a(I0
g63
tp520
a(I0
g63
tp521
a(I0
g51
tp522
a(I0
g53
tp523
a(I0
g53
tp524
a(I0
g51
tp525
a(I0
g63
tp526
a(I0
g63
tp527
a(I0
g53
tp528
a(I0
g53
tp529
a(I0
g53
tp530
a(I0
g53
tp531
a(I0
g53
tp532
a(I0
g63
tp533
a(I0
g51
tp534
a(I0
g51
tp535
a(I0
g53
tp536
a(I0
g53
tp537
a(I0
g53
tp538
a(I0
g53
tp539
a(I0
g51
tp540
a(I0
g63
tp541
a(I0
g63
tp542
a(I0
g51
tp543
a(I0
g51
tp544
a(I0
g51
tp545
a(I0
g57
tp546
a(I0
g57
tp547
a(I0
g55
tp548
a(I0
g57
tp549
a(I0
g57
tp550
a(I0
g55
tp551
a(I0
g55
tp552
a(I0
g57
tp553
a(I0
g55
tp554
a(I0
g55
tp555
a(I0
g63
tp556
a(I0
g63
tp557
a(I0
g51
tp558
a(I0
g51
tp559
a(I0
g57
tp560
a(I0
g57
tp561
a(I0
g55
tp562
a(I0
g53
tp563
a(I0
g55
tp564
a(I0
g63
tp565
a(I0
g63
tp566
a(I0
g51
tp567
a(I0
g51
tp568
a(I0
g57
tp569
a(I0
g57
tp570
a(I0
g57
tp571
a(I0
g55
tp572
a(I0
g55
tp573
a(I0
g55
tp574
a(I0
g63
tp575
a(I0
g53
tp576
a(I0
g51
tp577
a(I0
g57
tp578
a(I0
g57
tp579
a(I0
g55
tp580
a(I0
g55
tp581
a(I0
g63
tp582
a(I0
g53
tp583
a(I0
g53
tp584
a(I0
g53
tp585
a(I0
g53
tp586
a(I0
g63
tp587
a(I0
g63
tp588
a(I0
g51
tp589
a(I0
g53
tp590
a(I0
g51
tp591
a(I0
g63
tp592
a(I0
g63
tp593
a(I0
g51
tp594
a(I0
g51
tp595
a(I0
g63
tp596
a(I0
g63
tp597
a(I0
g51
tp598
a(I0
g51
tp599
a(I0
g63
tp600
a(I0
g63
tp601
a(I0
g51
tp602
a(I0
g51
tp603
a(I0
g63
tp604
a(I0
g63
tp605
a(I0
g51
tp606
a(I0
g51
tp607
a(I0
g63
tp608
a(I0
g63
tp609
a(I0
g51
tp610
a(I0
g51
tp611
a(I0
g53
tp612
a(I0
g51
tp613
a(I0
g63
tp614
a(I0
g53
tp615
a(I0
g51
tp616
a(I0
g53
tp617
a(I0
g63
tp618
a(I0
g53
tp619
a(I0
g53
tp620
a(I0
g53
tp621
a(I0
g53
tp622
a(I0
g53
tp623
a(I0
g63
tp624
a(I0
g63
tp625
a(I0
g51
tp626
a(I0
g51
tp627
a(I0
g63
tp628
a(I0
g63
tp629
a(I0
g51
tp630
a(I0
g51
tp631
a(I0
g51
tp632
a(I0
g57
tp633
a(I0
g55
tp634
a(I0
g53
tp635
a(I0
g63
tp636
a(I0
g53
tp637
a(I0
g53
tp638
a(I0
g53
tp639
a(I0
g53
tp640
a(I0
g51
tp641
a(I0
g57
tp642
a(I0
g57
tp643
a(I0
g55
tp644
a(I0
g55
tp645
a(I0
g63
tp646
a(I0
g53
tp647
a(I0
g53
tp648
a(I0
g63
tp649
a(I0
g63
tp650
a(I0
g51
tp651
a(I0
g51
tp652
a(I0
g63
tp653
a(I0
g63
tp654
a(I0
g51
tp655
a(I0
g51
tp656
a(I0
g63
tp657
a(I0
g63
tp658
a(I0
g51
tp659
a(I0
g51
tp660
a(I0
g63
tp661
a(I0
g51
tp662
a(I0
g63
tp663
a(I0
g63
tp664
a(I0
g51
tp665
a(I0
g51
tp666
a(I0
g63
tp667
a(I0
g63
tp668
a(I0
g51
tp669
a(I0
g51
tp670
a(I0
g63
tp671
a(I0
g63
tp672
a(I0
g51
tp673
a(I0
g51
tp674
a(I0
g63
tp675
a(I0
g63
tp676
a(I0
g51
tp677
a(I0
g53
tp678
a(I0
g51
tp679
a(I0
g63
tp680
a(I0
g51
tp681
a(I0
g51
tp682
a(I0
g57
tp683
a(I0
g57
tp684
a(I0
g55
tp685
a(I0
g57
tp686
a(I0
g57
tp687
a(I0
g55
tp688
a(I0
g55
tp689
a(I0
g57
tp690
a(I0
g55
tp691
a(I0
g57
tp692
a(I0
g57
tp693
a(I0
g53
tp694
a(I0
g53
tp695
a(I0
g55
tp696
a(I0
g55
tp697
a(I0
g57
tp698
a(I0
g55
tp699
a(I0
g55
tp700
a(I0
g57
tp701
a(I0
g55
tp702
a(I0
g63
tp703
a(I0
g51
tp704
a(I0
g63
tp705
a(I0
g63
tp706
a(I0
g51
tp707
a(I0
g53
tp708
a(I0
g51
tp709
a(I0
g57
tp710
a(I0
g57
tp711
a(I0
g55
tp712
a(I0
g55
tp713
a(I0
g63
tp714
a(I0
g63
tp715
a(I0
g51
tp716
a(I0
g51
tp717
a(I0
g53
tp718
a(I0
g57
tp719
a(I0
g57
tp720
a(I0
g55
tp721
a(I0
g57
tp722
a(I0
g55
tp723
a(I0
g55
tp724
a(I0
g63
tp725
a(I0
g63
tp726
a(I0
g51
tp727
a(I0
g51
tp728
a(I0
g57
tp729
a(I0
g57
tp730
a(I0
g55
tp731
a(I0
g55
tp732
a(I0
g63
tp733
a(I0
g63
tp734
a(I0
g63
tp735
a(I0
g51
tp736
a(I0
g53
tp737
a(I0
g53
tp738
a(I0
g51
tp739
a(I0
g63
tp740
a(I0
g63
tp741
a(I0
g51
tp742
a(I0
g51
tp743
a(I0
g51
tp744
a(I0
g57
tp745
a(I0
g57
tp746
a(I0
g57
tp747
a(I0
g53
tp748
a(I0
g53
tp749
a(I0
g55
tp750
a(I0
g55
tp751
a(I0
g55
tp752
a(I0
g63
tp753
a(I0
g63
tp754
a(I0
g51
tp755
a(I0
g51
tp756
a(I0
g57
tp757
a(I0
g57
tp758
a(I0
g57
tp759
a(I0
g55
tp760
a(I0
g53
tp761
a(I0
g53
tp762
a(I0
g55
tp763
a(I0
g53
tp764
a(I0
g57
tp765
a(I0
g57
tp766
a(I0
g55
tp767
a(I0
g55
tp768
a(I0
g57
tp769
a(I0
g57
tp770
a(I0
g55
tp771
a(I0
g55
tp772
a(I0
g57
tp773
a(I0
g53
tp774
a(I0
g57
tp775
a(I0
g57
tp776
a(I0
g55
tp777
a(I0
g55
tp778
a(I0
g57
tp779
a(I0
g55
tp780
a(I0
g55
tp781
a(I0
g57
tp782
a(I0
g57
tp783
a(I0
g55
tp784
a(I0
g55
tp785
a(I0
g55
tp786
a(I0
g63
tp787
a(I0
g53
tp788
a(I0
g53
tp789
a(I0
g53
tp790
a(I0
g53
tp791
a(I0
g53
tp792
a(I0
g63
tp793
a(I0
g51
tp794
a(I0
g51
tp795
a(I0
g57
tp796
a(I0
g55
tp797
a(I0
g63
tp798
a(I0
g63
tp799
a(I0
g51
tp800
a(I0
g63
tp801
a(I0
g51
tp802
a(I0
g51
tp803
a(I0
g57
tp804
a(I0
g57
tp805
a(I0
g57
tp806
a(I0
g53
tp807
a(I0
g57
tp808
a(I0
g55
tp809
a(I0
g57
tp810
a(I0
g55
tp811
a(I0
g55
tp812
a(I0
g57
tp813
a(I0
g55
tp814
a(I0
g55
tp815
a(I0
g53
tp816
a(I0
g53
tp817
a(I0
g55
tp818
a(I0
g53
tp819
a(I0
g63
tp820
a(I0
g63
tp821
a(I0
g51
tp822
a(I0
g51
tp823
a(I0
g57
tp824
a(I0
g55
tp825
a(I0
g63
tp826
a(I0
g53
tp827
a(I0
g53
tp828
a(I0
g51
tp829
a(I0
g63
tp830
a(I0
g51
tp831
a(I0
g63
tp832
a(I0
g51
tp833
a(I0
g63
tp834
a(I0
g53
tp835
a(I0
g53
tp836
a(I0
g53
tp837
a(I0
g51
tp838
a(I0
g63
tp839
a(I0
g51
tp840
a(I0
g53
tp841
a(I0
g63
tp842
a(I0
g51
tp843
a(I0
g63
tp844
a(I0
g53
tp845
a(I0
g53
tp846
a(I0
g53
tp847
a(I0
g51
tp848
a(I0
g63
tp849
a(I0
g53
tp850
a(I0
g53
tp851
a(I0
g63
tp852
a(I0
g63
tp853
a(I0
g51
tp854
a(I0
g51
tp855
a(I0
g63
tp856
a(I0
g63
tp857
a(I0
g51
tp858
a(I0
g63
tp859
a(I0
g53
tp860
a(I0
g53
tp861
a(I0
g51
tp862
a(I0
g51
tp863
a(I0
g63
tp864
a(I0
g63
tp865
a(I0
g51
tp866
a(I0
g51
tp867
a(I0
g63
tp868
a(I0
g63
tp869
a(I0
g51
tp870
a(I0
g51
tp871
a(I0
g63
tp872
a(I0
g63
tp873
a(I0
g51
tp874
a(I0
g51
tp875
a(I0
g63
tp876
a(I0
g63
tp877
a(I0
g51
tp878
a(I0
g51
tp879
a(I0
g63
tp880
a(I0
g63
tp881
a(I0
g51
tp882
a(I0
g53
tp883
a(I0
g53
tp884
a(I0
g53
tp885
a(I0
g51
tp886
a(I0
g53
tp887
a(I0
g63
tp888
a(I0
g63
tp889
as.