(dp1
S'layout'
p2
(ilayout
Layout
p3
(dp4
S'capsules'
p5
(lp6
sS'numGhosts'
p7
I1
sS'food'
p8
(igame
Grid
p9
(dp10
S'CELLS_PER_INT'
p11
I30
sS'width'
p12
I7
sS'data'
p13
(lp14
(lp15
I00
aI00
aI00
aI00
aI00
aI00
aI00
aa(lp16
I00
aI01
aI00
aI00
aI00
aI00
aI00
aa(lp17
I00
aI00
aI00
aI00
aI00
aI00
aI00
aa(lp18
I00
aI00
aI00
aI01
aI00
aI00
aI00
aa(lp19
I00
aI00
aI00
aI00
aI00
aI00
aI00
aa(lp20
I00
aI00
aI00
aI00
aI00
aI00
aI00
aa(lp21
I00
aI00
aI00
aI00
aI00
aI00
aI00
aasS'height'
p22
I7
sbsS'agentPositions'
p23
(lp24
(I01
(I2
I5
tp25
tp26
a(I00
(I3
I1
ttp27
asg22
I7
sg12
I7
sS'walls'
p28
(igame
Grid
p29
(dp30
g11
I30
sg12
I7
sg13
(lp31
(lp32
I01
aI01
aI01
aI01
aI01
aI01
aI01
aa(lp33
I01
aI00
aI00
aI00
aI00
aI00
aI01
aa(lp34
I01
aI00
aI01
aI01
aI01
aI00
aI01
aa(lp35
I01
aI00
aI01
aI00
aI01
aI00
aI01
aa(lp36
I01
aI00
aI01
aI00
aI01
aI00
aI01
aa(lp37
I01
aI00
aI00
aI00
aI00
aI00
aI01
aa(lp38
I01
aI01
aI01
aI01
aI01
aI01
aI01
aasg22
I7
sbsS'totalFood'
p39
I2
sS'layoutText'
p40
(lp41
S'%%%%%%%'
p42
aS'% P   %'
p43
aS'% %%% %'
p44
aS'% %.  %'
p45
aS'% %%% %'
p46
aS'%. G  %'
p47
aS'%%%%%%%'
p48
asbsS'actions'
p49
(lp50
(I0
S'East'
p51
tp52
a(I0
S'West'
p53
tp54
a(I0
S'Stop'
p55
tp56
a(I0
g51
tp57
a(I0
g53
tp58
a(I0
g51
tp59
a(I0
g53
tp60
a(I0
g53
tp61
a(I0
g51
tp62
a(I0
g53
tp63
a(I0
g51
tp64
a(I0
g55
tp65
a(I0
g51
tp66
a(I0
g53
tp67
a(I0
g55
tp68
a(I0
g51
tp69
a(I0
g53
tp70
a(I0
g55
tp71
a(I0
g55
tp72
a(I0
g51
tp73
a(I0
g51
tp74
a(I0
g51
tp75
a(I0
S'South'
p76
tp77
a(I0
S'North'
p78
tp79
a(I0
g76
tp80
a(I0
g76
tp81
a(I0
g55
tp82
a(I0
g55
tp83
a(I0
g53
tp84
a(I0
g53
tp85
a(I0
g51
tp86
a(I0
g51
tp87
a(I0
g55
tp88
a(I0
g76
tp89
a(I0
g78
tp90
a(I0
g53
tp91
a(I0
g51
tp92
a(I0
g76
tp93
a(I0
g78
tp94
a(I0
g53
tp95
a(I0
g51
tp96
a(I0
g76
tp97
a(I0
g78
tp98
a(I0
g53
tp99
a(I0
g51
tp100
a(I0
g76
tp101
a(I0
g78
tp102
a(I0
g53
tp103
a(I0
g51
tp104
a(I0
g55
tp105
a(I0
g55
tp106
a(I0
g55
tp107
a(I0
g78
tp108
a(I0
g78
tp109
a(I0
g53
tp110
a(I0
g55
tp111
a(I0
g53
tp112
a(I0
g55
tp113
a(I0
g53
tp114
a(I0
g51
tp115
a(I0
g55
tp116
a(I0
g51
tp117
a(I0
g53
tp118
a(I0
g53
tp119
a(I0
g51
tp120
a(I0
g51
tp121
a(I0
g53
tp122
a(I0
g55
tp123
a(I0
g53
tp124
a(I0
g51
tp125
a(I0
g51
tp126
a(I0
g53
tp127
a(I0
g53
tp128
a(I0
g51
tp129
a(I0
g51
tp130
a(I0
g53
tp131
a(I0
g55
tp132
a(I0
g55
tp133
a(I0
g55
tp134
a(I0
g53
tp135
a(I0
g55
tp136
a(I0
g53
tp137
a(I0
g76
tp138
a(I0
g55
tp139
a(I0
g76
tp140
a(I0
g78
tp141
a(I0
g78
tp142
a(I0
g55
tp143
a(I0
g55
tp144
a(I0
g76
tp145
a(I0
g76
tp146
a(I0
g78
tp147
a(I0
g78
tp148
a(I0
g76
tp149
a(I0
g76
tp150
a(I0
g78
tp151
a(I0
g78
tp152
a(I0
g76
tp153
a(I0
g55
tp154
a(I0
g76
tp155
a(I0
g78
tp156
a(I0
g78
tp157
a(I0
g76
tp158
a(I0
g55
tp159
a(I0
g55
tp160
a(I0
g78
tp161
a(I0
g76
tp162
a(I0
g55
tp163
a(I0
g55
tp164
a(I0
g76
tp165
a(I0
g78
tp166
a(I0
g78
tp167
a(I0
g76
tp168
a(I0
g55
tp169
a(I0
g55
tp170
a(I0
g55
tp171
a(I0
g55
tp172
a(I0
g55
tp173
a(I0
g55
tp174
a(I0
g55
tp175
a(I0
g76
tp176
a(I0
g78
tp177
a(I0
g78
tp178
a(I0
g76
tp179
a(I0
g78
tp180
a(I0
g76
tp181
a(I0
g76
tp182
a(I0
g78
tp183
a(I0
g55
tp184
a(I0
g78
tp185
a(I0
g76
tp186
a(I0
g76
tp187
a(I0
g55
tp188
a(I0
g78
tp189
a(I0
g78
tp190
a(I0
g76
tp191
a(I0
g55
tp192
a(I0
g55
tp193
a(I0
g76
tp194
a(I0
g78
tp195
a(I0
g78
tp196
a(I0
g76
tp197
a(I0
g55
tp198
a(I0
g55
tp199
a(I0
g76
tp200
a(I0
g78
tp201
a(I0
g55
tp202
a(I0
g78
tp203
a(I0
g55
tp204
a(I0
g55
tp205
a(I0
g76
tp206
a(I0
g76
tp207
a(I0
g78
tp208
a(I0
g78
tp209
a(I0
g76
tp210
a(I0
g76
tp211
a(I0
g76
tp212
a(I0
g78
tp213
a(I0
g78
tp214
a(I0
g76
tp215
a(I0
g76
tp216
a(I0
g78
tp217
a(I0
g78
tp218
a(I0
g76
tp219
a(I0
g76
tp220
a(I0
g78
tp221
a(I0
g78
tp222
a(I0
g76
tp223
a(I0
g76
tp224
a(I0
g78
tp225
a(I0
g78
tp226
a(I0
g78
tp227
a(I0
g76
tp228
a(I0
g76
tp229
a(I0
g78
tp230
a(I0
g78
tp231
a(I0
g76
tp232
a(I0
g55
tp233
a(I0
g55
tp234
a(I0
g55
tp235
a(I0
g55
tp236
a(I0
g76
tp237
a(I0
g78
tp238
a(I0
g76
tp239
a(I0
g78
tp240
a(I0
g78
tp241
a(I0
g76
tp242
a(I0
g78
tp243
a(I0
g76
tp244
a(I0
g55
tp245
a(I0
g55
tp246
a(I0
g55
tp247
a(I0
g55
tp248
a(I0
g55
tp249
a(I0
g55
tp250
a(I0
g55
tp251
a(I0
g55
tp252
a(I0
g55
tp253
a(I0
g55
tp254
a(I0
g55
tp255
a(I0
g55
tp256
a(I0
g78
tp257
a(I0
g55
tp258
a(I0
g55
tp259
a(I0
g55
tp260
a(I0
g55
tp261
a(I0
g55
tp262
a(I0
g76
tp263
a(I0
g55
tp264
a(I0
g55
tp265
a(I0
g55
tp266
a(I0
g55
tp267
a(I0
g55
tp268
a(I0
g55
tp269
a(I0
g55
tp270
a(I0
g55
tp271
a(I0
g55
tp272
a(I0
g55
tp273
a(I0
g55
tp274
a(I0
g76
tp275
a(I0
g76
tp276
a(I0
g78
tp277
a(I0
g78
tp278
a(I0
g76
tp279
a(I0
g76
tp280
a(I0
g78
tp281
a(I0
g78
tp282
a(I0
g76
tp283
a(I0
g76
tp284
a(I0
g78
tp285
a(I0
g78
tp286
a(I0
g78
tp287
a(I0
g55
tp288
a(I0
g55
tp289
a(I0
g55
tp290
a(I0
g55
tp291
a(I0
g55
tp292
a(I0
g76
tp293
a(I0
g55
tp294
a(I0
g55
tp295
a(I0
g55
tp296
a(I0
g55
tp297
a(I0
g55
tp298
a(I0
g55
tp299
a(I0
g55
tp300
a(I0
g55
tp301
a(I0
g55
tp302
a(I0
g55
tp303
a(I0
g55
tp304
a(I0
g55
tp305
a(I0
g55
tp306
a(I0
g55
tp307
a(I0
g55
tp308
a(I0
g55
tp309
a(I0
g55
tp310
a(I0
g76
tp311
a(I0
g76
tp312
a(I0
g78
tp313
a(I0
g78
tp314
a(I0
g78
tp315
a(I0
g55
tp316
a(I0
g55
tp317
a(I0
g55
tp318
a(I0
g55
tp319
a(I0
g55
tp320
a(I0
g55
tp321
a(I0
g55
tp322
a(I0
g55
tp323
a(I0
g55
tp324
a(I0
g55
tp325
a(I0
g55
tp326
a(I0
g55
tp327
a(I0
g55
tp328
a(I0
g55
tp329
a(I0
g51
tp330
a(I0
g53
tp331
a(I0
g51
tp332
a(I0
g53
tp333
a(I0
g51
tp334
a(I0
g53
tp335
a(I0
g51
tp336
a(I0
g53
tp337
a(I0
g51
tp338
a(I0
g53
tp339
a(I0
g55
tp340
a(I0
g55
tp341
a(I0
g55
tp342
a(I0
g55
tp343
a(I0
g55
tp344
a(I0
g55
tp345
a(I0
g55
tp346
a(I0
g76
tp347
a(I0
g76
tp348
a(I0
g78
tp349
a(I0
g78
tp350
a(I0
g76
tp351
a(I0
g76
tp352
a(I0
g78
tp353
a(I0
g78
tp354
a(I0
g55
tp355
a(I0
g76
tp356
a(I0
g76
tp357
a(I0
g78
tp358
a(I0
g78
tp359
a(I0
g55
tp360
a(I0
g55
tp361
a(I0
g55
tp362
a(I0
g76
tp363
a(I0
g76
tp364
a(I0
g76
tp365
a(I0
g55
tp366
a(I0
g78
tp367
a(I0
g78
tp368
a(I0
g78
tp369
a(I0
g76
tp370
a(I0
g76
tp371
a(I0
g78
tp372
a(I0
g76
tp373
a(I0
g78
tp374
a(I0
g78
tp375
a(I0
g76
tp376
a(I0
g55
tp377
a(I0
g76
tp378
a(I0
g78
tp379
a(I0
g78
tp380
a(I0
g76
tp381
a(I0
g76
tp382
a(I0
g78
tp383
a(I0
g78
tp384
a(I0
g51
tp385
a(I0
g51
tp386
a(I0
g55
tp387
a(I0
g55
tp388
a(I0
g55
tp389
a(I0
g55
tp390
a(I0
g55
tp391
a(I0
g55
tp392
a(I0
g55
tp393
a(I0
g55
tp394
a(I0
g55
tp395
a(I0
g53
tp396
a(I0
g53
tp397
a(I0
g51
tp398
a(I0
g53
tp399
a(I0
g51
tp400
a(I0
g53
tp401
a(I0
g51
tp402
a(I0
g53
tp403
a(I0
g55
tp404
a(I0
g55
tp405
a(I0
g55
tp406
a(I0
g55
tp407
a(I0
g55
tp408
a(I0
g55
tp409
a(I0
g55
tp410
a(I0
g55
tp411
a(I0
g55
tp412
a(I0
g55
tp413
a(I0
g76
tp414
a(I0
g76
tp415
a(I0
g78
tp416
a(I0
g78
tp417
a(I0
g51
tp418
a(I0
g51
tp419
a(I0
g55
tp420
a(I0
g53
tp421
a(I0
g53
tp422
a(I0
g55
tp423
a(I0
g76
tp424
a(I0
g78
tp425
a(I0
g76
tp426
a(I0
g76
tp427
a(I0
g78
tp428
a(I0
g78
tp429
a(I0
g76
tp430
a(I0
g76
tp431
a(I0
g78
tp432
a(I0
g78
tp433
a(I0
g76
tp434
a(I0
g76
tp435
a(I0
g78
tp436
a(I0
g78
tp437
a(I0
g76
tp438
a(I0
g76
tp439
a(I0
g78
tp440
a(I0
g78
tp441
a(I0
g76
tp442
a(I0
g76
tp443
a(I0
g78
tp444
a(I0
g78
tp445
a(I0
g76
tp446
a(I0
g76
tp447
a(I0
g76
tp448
a(I0
g78
tp449
a(I0
g78
tp450
a(I0
g78
tp451
a(I0
g76
tp452
a(I0
g55
tp453
a(I0
g76
tp454
a(I0
g78
tp455
a(I0
g78
tp456
a(I0
g76
tp457
a(I0
g76
tp458
a(I0
g78
tp459
a(I0
g78
tp460
a(I0
g76
tp461
a(I0
g76
tp462
a(I0
g78
tp463
a(I0
g78
tp464
a(I0
g76
tp465
a(I0
g76
tp466
a(I0
g78
tp467
a(I0
g78
tp468
a(I0
g76
tp469
a(I0
g76
tp470
a(I0
g78
tp471
a(I0
g78
tp472
a(I0
g76
tp473
a(I0
g76
tp474
a(I0
g78
tp475
a(I0
g78
tp476
a(I0
g76
tp477
a(I0
g76
tp478
a(I0
g78
tp479
a(I0
g78
tp480
a(I0
g76
tp481
a(I0
g76
tp482
a(I0
g78
tp483
a(I0
g78
tp484
a(I0
g76
tp485
a(I0
g76
tp486
a(I0
g78
tp487
a(I0
g78
tp488
a(I0
g76
tp489
a(I0
g78
tp490
a(I0
g76
tp491
a(I0
g76
tp492
a(I0
g78
tp493
a(I0
g78
tp494
a(I0
g76
tp495
a(I0
g76
tp496
a(I0
g78
tp497
a(I0
g78
tp498
a(I0
g76
tp499
a(I0
g76
tp500
a(I0
g78
tp501
a(I0
g78
tp502
a(I0
g76
tp503
a(I0
g76
tp504
a(I0
g78
tp505
a(I0
g78
tp506
a(I0
g76
tp507
a(I0
g76
tp508
a(I0
g78
tp509
a(I0
g78
tp510
a(I0
g76
tp511
a(I0
g76
tp512
a(I0
g78
tp513
a(I0
g78
tp514
a(I0
g76
tp515
a(I0
g55
tp516
a(I0
g55
tp517
a(I0
g76
tp518
a(I0
g78
tp519
a(I0
g78
tp520
a(I0
g76
tp521
a(I0
g76
tp522
a(I0
g78
tp523
a(I0
g78
tp524
a(I0
g76
tp525
a(I0
g76
tp526
a(I0
g78
tp527
a(I0
g78
tp528
a(I0
g76
tp529
a(I0
g55
tp530
a(I0
g76
tp531
a(I0
g78
tp532
a(I0
g55
tp533
a(I0
g78
tp534
a(I0
g76
tp535
a(I0
g76
tp536
a(I0
g78
tp537
a(I0
g78
tp538
a(I0
g76
tp539
a(I0
g76
tp540
a(I0
g78
tp541
a(I0
g55
tp542
a(I0
g76
tp543
a(I0
g78
tp544
a(I0
g78
tp545
a(I0
g76
tp546
as.