(dp1
S'layout'
p2
(ilayout
Layout
p3
(dp4
S'capsules'
p5
(lp6
sS'numGhosts'
p7
I1
sS'food'
p8
(igame
Grid
p9
(dp10
S'CELLS_PER_INT'
p11
I30
sS'width'
p12
I7
sS'data'
p13
(lp14
(lp15
I00
aI00
aI00
aI00
aI00
aI00
aI00
aa(lp16
I00
aI01
aI00
aI00
aI00
aI00
aI00
aa(lp17
I00
aI00
aI00
aI00
aI00
aI00
aI00
aa(lp18
I00
aI00
aI00
aI01
aI00
aI00
aI00
aa(lp19
I00
aI00
aI00
aI00
aI00
aI00
aI00
aa(lp20
I00
aI00
aI00
aI00
aI00
aI00
aI00
aa(lp21
I00
aI00
aI00
aI00
aI00
aI00
aI00
aasS'height'
p22
I7
sbsS'agentPositions'
p23
(lp24
(I01
(I2
I5
tp25
tp26
a(I00
(I3
I1
ttp27
asg22
I7
sg12
I7
sS'walls'
p28
(igame
Grid
p29
(dp30
g11
I30
sg12
I7
sg13
(lp31
(lp32
I01
aI01
aI01
aI01
aI01
aI01
aI01
aa(lp33
I01
aI00
aI00
aI00
aI00
aI00
aI01
aa(lp34
I01
aI00
aI01
aI01
aI01
aI00
aI01
aa(lp35
I01
aI00
aI01
aI00
aI01
aI00
aI01
aa(lp36
I01
aI00
aI01
aI00
aI01
aI00
aI01
aa(lp37
I01
aI00
aI00
aI00
aI00
aI00
aI01
aa(lp38
I01
aI01
aI01
aI01
aI01
aI01
aI01
aasg22
I7
sbsS'totalFood'
p39
I2
sS'layoutText'
p40
(lp41
S'%%%%%%%'
p42
aS'% P   %'
p43
aS'% %%% %'
p44
aS'% %.  %'
p45
aS'% %%% %'
p46
aS'%. G  %'
p47
aS'%%%%%%%'
p48
asbsS'actions'
p49
(lp50
(I0
S'East'
p51
tp52
a(I0
g51
tp53
a(I0
S'West'
p54
tp55
a(I0
g54
tp56
a(I0
S'Stop'
p57
tp58
a(I0
g54
tp59
a(I0
S'South'
p60
tp61
a(I0
g60
tp62
a(I0
g60
tp63
a(I0
g60
tp64
a(I0
g57
tp65
a(I0
g51
tp66
a(I0
g54
tp67
a(I0
g57
tp68
a(I0
g57
tp69
a(I0
g57
tp70
a(I0
g57
tp71
a(I0
g51
tp72
a(I0
g54
tp73
a(I0
g57
tp74
a(I0
g51
tp75
a(I0
g54
tp76
a(I0
g51
tp77
a(I0
g54
tp78
a(I0
g51
tp79
a(I0
g57
tp80
a(I0
g51
tp81
a(I0
g57
tp82
a(I0
g57
tp83
a(I0
g57
tp84
a(I0
g57
tp85
a(I0
g54
tp86
a(I0
g54
tp87
a(I0
g51
tp88
a(I0
g57
tp89
a(I0
g54
tp90
a(I0
g51
tp91
a(I0
g54
tp92
a(I0
g51
tp93
a(I0
g54
tp94
a(I0
g51
tp95
a(I0
g54
tp96
a(I0
g51
tp97
a(I0
g51
tp98
a(I0
g54
tp99
a(I0
g51
tp100
a(I0
g51
tp101
a(I0
g54
tp102
a(I0
g54
tp103
a(I0
g51
tp104
a(I0
g54
tp105
a(I0
g51
tp106
a(I0
g51
tp107
a(I0
g54
tp108
a(I0
g54
tp109
a(I0
g57
tp110
a(I0
g51
tp111
a(I0
g54
tp112
a(I0
g54
tp113
a(I0
S'North'
p114
tp115
a(I0
g57
tp116
a(I0
g57
tp117
a(I0
g57
tp118
a(I0
g57
tp119
a(I0
g57
tp120
a(I0
g114
tp121
a(I0
g114
tp122
a(I0
g114
tp123
a(I0
g51
tp124
a(I0
g57
tp125
a(I0
g57
tp126
a(I0
g57
tp127
a(I0
g51
tp128
a(I0
g57
tp129
a(I0
g51
tp130
a(I0
g54
tp131
a(I0
g54
tp132
a(I0
g51
tp133
a(I0
g57
tp134
a(I0
g51
tp135
a(I0
g54
tp136
a(I0
g54
tp137
a(I0
g51
tp138
a(I0
g51
tp139
a(I0
g54
tp140
a(I0
g57
tp141
a(I0
g54
tp142
a(I0
g51
tp143
a(I0
g51
tp144
a(I0
g54
tp145
a(I0
g54
tp146
a(I0
g51
tp147
a(I0
g54
tp148
a(I0
g54
tp149
a(I0
g60
tp150
a(I0
g114
tp151
a(I0
g57
tp152
a(I0
g57
tp153
a(I0
g57
tp154
a(I0
g57
tp155
a(I0
g51
tp156
a(I0
g57
tp157
a(I0
g57
tp158
a(I0
g51
tp159
a(I0
g54
tp160
a(I0
g54
tp161
a(I0
g60
tp162
a(I0
g114
tp163
a(I0
g60
tp164
a(I0
g57
tp165
a(I0
g57
tp166
a(I0
g57
tp167
a(I0
g114
tp168
a(I0
g60
tp169
a(I0
g57
tp170
a(I0
g114
tp171
a(I0
g51
tp172
a(I0
g51
tp173
a(I0
g54
tp174
a(I0
g57
tp175
a(I0
g57
tp176
a(I0
g54
tp177
a(I0
g60
tp178
a(I0
g114
tp179
a(I0
g51
tp180
a(I0
g51
tp181
a(I0
g54
tp182
a(I0
g54
tp183
a(I0
g60
tp184
a(I0
g114
tp185
a(I0
g51
tp186
a(I0
g51
tp187
a(I0
g51
tp188
a(I0
g57
tp189
a(I0
g57
tp190
a(I0
g57
tp191
a(I0
g57
tp192
a(I0
g57
tp193
a(I0
g57
tp194
a(I0
g57
tp195
a(I0
g57
tp196
a(I0
g51
tp197
a(I0
g54
tp198
a(I0
g54
tp199
a(I0
g54
tp200
a(I0
g54
tp201
a(I0
g60
tp202
a(I0
g114
tp203
a(I0
g51
tp204
a(I0
g51
tp205
a(I0
g54
tp206
a(I0
g51
tp207
a(I0
g54
tp208
a(I0
g57
tp209
a(I0
g57
tp210
a(I0
g57
tp211
a(I0
g57
tp212
a(I0
g54
tp213
a(I0
g57
tp214
a(I0
g60
tp215
a(I0
g114
tp216
a(I0
g60
tp217
a(I0
g114
tp218
a(I0
g60
tp219
a(I0
g114
tp220
a(I0
g60
tp221
a(I0
g114
tp222
a(I0
g60
tp223
a(I0
g114
tp224
a(I0
g51
tp225
a(I0
g51
tp226
a(I0
g57
tp227
a(I0
g57
tp228
a(I0
g57
tp229
a(I0
g57
tp230
a(I0
g54
tp231
a(I0
g57
tp232
a(I0
g57
tp233
a(I0
g57
tp234
a(I0
g57
tp235
a(I0
g57
tp236
a(I0
g54
tp237
a(I0
g60
tp238
a(I0
g60
tp239
a(I0
g114
tp240
a(I0
g114
tp241
a(I0
g60
tp242
a(I0
g114
tp243
a(I0
g60
tp244
a(I0
g114
tp245
a(I0
g51
tp246
a(I0
g54
tp247
a(I0
g57
tp248
a(I0
g57
tp249
a(I0
g57
tp250
a(I0
g57
tp251
a(I0
g57
tp252
a(I0
g57
tp253
a(I0
g57
tp254
a(I0
g57
tp255
a(I0
g51
tp256
a(I0
g54
tp257
a(I0
g51
tp258
a(I0
g54
tp259
a(I0
g51
tp260
a(I0
g54
tp261
a(I0
g51
tp262
a(I0
g51
tp263
a(I0
g57
tp264
a(I0
g51
tp265
a(I0
g51
tp266
a(I0
g54
tp267
a(I0
g54
tp268
a(I0
g54
tp269
a(I0
g51
tp270
a(I0
g51
tp271
a(I0
g54
tp272
a(I0
g51
tp273
a(I0
g51
tp274
a(I0
g54
tp275
a(I0
g54
tp276
a(I0
g51
tp277
a(I0
g51
tp278
a(I0
g54
tp279
a(I0
g54
tp280
a(I0
g57
tp281
a(I0
g51
tp282
a(I0
g51
tp283
a(I0
g54
tp284
a(I0
g54
tp285
a(I0
g51
tp286
a(I0
g54
tp287
a(I0
g54
tp288
a(I0
g51
tp289
a(I0
g57
tp290
a(I0
g54
tp291
a(I0
g54
tp292
a(I0
g60
tp293
a(I0
g114
tp294
a(I0
g57
tp295
a(I0
g60
tp296
a(I0
g60
tp297
a(I0
g114
tp298
a(I0
g57
tp299
a(I0
g57
tp300
a(I0
g60
tp301
a(I0
g114
tp302
a(I0
g114
tp303
a(I0
g60
tp304
a(I0
g114
tp305
a(I0
g51
tp306
a(I0
g51
tp307
a(I0
g57
tp308
a(I0
g57
tp309
a(I0
g54
tp310
a(I0
g51
tp311
a(I0
g57
tp312
a(I0
g57
tp313
a(I0
g57
tp314
a(I0
g57
tp315
a(I0
g54
tp316
a(I0
g57
tp317
a(I0
g57
tp318
a(I0
g57
tp319
a(I0
g54
tp320
a(I0
g57
tp321
a(I0
g57
tp322
a(I0
g60
tp323
a(I0
g114
tp324
a(I0
g51
tp325
a(I0
g51
tp326
a(I0
g57
tp327
a(I0
g57
tp328
a(I0
g57
tp329
a(I0
g57
tp330
a(I0
g57
tp331
a(I0
g57
tp332
a(I0
g57
tp333
a(I0
g57
tp334
a(I0
g57
tp335
a(I0
g57
tp336
as.