(dp1
S'layout'
p2
(ilayout
Layout
p3
(dp4
S'capsules'
p5
(lp6
sS'numGhosts'
p7
I1
sS'food'
p8
(igame
Grid
p9
(dp10
S'CELLS_PER_INT'
p11
I30
sS'width'
p12
I7
sS'data'
p13
(lp14
(lp15
I00
aI00
aI00
aI00
aI00
aI00
aa(lp16
I00
aI01
aI00
aI00
aI01
aI00
aa(lp17
I00
aI00
aI00
aI00
aI00
aI00
aa(lp18
I00
aI00
aI01
aI00
aI00
aI00
aa(lp19
I00
aI00
aI00
aI00
aI00
aI00
aa(lp20
I00
aI01
aI00
aI00
aI01
aI00
aa(lp21
I00
aI00
aI00
aI00
aI00
aI00
aasS'height'
p22
I6
sbsS'agentPositions'
p23
(lp24
(I01
(I3
I4
tp25
tp26
a(I00
(I3
I1
ttp27
asg22
I6
sg12
I7
sS'walls'
p28
(igame
Grid
p29
(dp30
g11
I30
sg12
I7
sg13
(lp31
(lp32
I01
aI01
aI01
aI01
aI01
aI01
aa(lp33
I01
aI00
aI00
aI00
aI00
aI01
aa(lp34
I01
aI00
aI01
aI01
aI00
aI01
aa(lp35
I01
aI00
aI00
aI01
aI00
aI01
aa(lp36
I01
aI00
aI01
aI01
aI00
aI01
aa(lp37
I01
aI00
aI00
aI00
aI00
aI01
aa(lp38
I01
aI01
aI01
aI01
aI01
aI01
aasg22
I6
sbsS'totalFood'
p39
I5
sS'layoutText'
p40
(lp41
S'%%%%%%%'
p42
aS'%. P .%'
p43
aS'% %%% %'
p44
aS'% %.% %'
p45
aS'%. G .%'
p46
aS'%%%%%%%'
p47
asbsS'actions'
p48
(lp49
(I0
S'East'
p50
tp51
a(I0
g50
tp52
a(I0
S'South'
p53
tp54
a(I0
S'Stop'
p55
tp56
a(I0
S'North'
p57
tp58
a(I0
g53
tp59
a(I0
g57
tp60
a(I0
g53
tp61
a(I0
g57
tp62
a(I0
g55
tp63
a(I0
S'West'
p64
tp65
a(I0
g55
tp66
a(I0
g55
tp67
a(I0
g64
tp68
a(I0
g50
tp69
a(I0
g64
tp70
a(I0
g64
tp71
a(I0
g50
tp72
a(I0
g64
tp73
a(I0
g64
tp74
a(I0
g53
tp75
a(I0
g57
tp76
a(I0
g50
tp77
a(I0
g64
tp78
a(I0
g50
tp79
a(I0
g55
tp80
a(I0
g64
tp81
a(I0
g50
tp82
a(I0
g64
tp83
a(I0
g50
tp84
a(I0
g55
tp85
a(I0
g55
tp86
a(I0
g64
tp87
a(I0
g50
tp88
a(I0
g64
tp89
a(I0
g50
tp90
a(I0
g64
tp91
a(I0
g50
tp92
a(I0
g50
tp93
a(I0
g55
tp94
a(I0
g50
tp95
a(I0
g64
tp96
a(I0
g64
tp97
a(I0
g50
tp98
a(I0
g50
tp99
a(I0
g64
tp100
a(I0
g64
tp101
a(I0
g50
tp102
a(I0
g50
tp103
a(I0
g64
tp104
a(I0
g64
tp105
a(I0
g50
tp106
a(I0
g50
tp107
a(I0
g64
tp108
a(I0
g64
tp109
a(I0
g50
tp110
a(I0
g50
tp111
a(I0
g64
tp112
a(I0
g55
tp113
a(I0
g55
tp114
a(I0
g64
tp115
a(I0
g50
tp116
a(I0
g50
tp117
a(I0
g64
tp118
a(I0
g50
tp119
a(I0
g64
tp120
a(I0
g64
tp121
a(I0
g55
tp122
a(I0
g55
tp123
a(I0
g55
tp124
a(I0
g64
tp125
a(I0
g50
tp126
a(I0
g64
tp127
a(I0
g50
tp128
a(I0
g64
tp129
a(I0
g50
tp130
a(I0
g64
tp131
a(I0
g50
tp132
a(I0
g64
tp133
a(I0
g50
tp134
a(I0
g64
tp135
a(I0
g50
tp136
a(I0
g64
tp137
a(I0
g50
tp138
a(I0
g64
tp139
a(I0
g50
tp140
a(I0
g50
tp141
a(I0
g50
tp142
a(I0
g64
tp143
a(I0
g64
tp144
a(I0
g50
tp145
a(I0
g50
tp146
a(I0
g64
tp147
a(I0
g64
tp148
a(I0
g64
tp149
a(I0
g53
tp150
a(I0
g55
tp151
a(I0
g55
tp152
a(I0
g55
tp153
a(I0
g55
tp154
a(I0
g55
tp155
a(I0
g55
tp156
a(I0
g55
tp157
a(I0
g55
tp158
a(I0
g55
tp159
a(I0
g55
tp160
a(I0
g55
tp161
a(I0
g55
tp162
a(I0
g55
tp163
a(I0
g53
tp164
a(I0
g57
tp165
a(I0
g57
tp166
a(I0
g53
tp167
a(I0
g53
tp168
a(I0
g57
tp169
a(I0
g57
tp170
a(I0
g53
tp171
a(I0
g53
tp172
a(I0
g53
tp173
a(I0
g57
tp174
a(I0
g57
tp175
a(I0
g55
tp176
a(I0
g57
tp177
a(I0
g50
tp178
a(I0
g64
tp179
a(I0
g55
tp180
a(I0
g55
tp181
a(I0
g50
tp182
a(I0
g64
tp183
a(I0
g55
tp184
a(I0
g55
tp185
a(I0
g53
tp186
a(I0
g55
tp187
a(I0
g55
tp188
a(I0
g55
tp189
a(I0
g55
tp190
a(I0
g55
tp191
a(I0
g55
tp192
a(I0
g55
tp193
a(I0
g55
tp194
a(I0
g55
tp195
a(I0
g55
tp196
a(I0
g55
tp197
a(I0
g55
tp198
a(I0
g55
tp199
a(I0
g55
tp200
a(I0
g55
tp201
a(I0
g55
tp202
a(I0
g55
tp203
a(I0
g55
tp204
a(I0
g55
tp205
a(I0
g55
tp206
a(I0
g55
tp207
a(I0
g55
tp208
a(I0
g55
tp209
a(I0
g55
tp210
a(I0
g57
tp211
a(I0
g50
tp212
a(I0
g55
tp213
a(I0
g64
tp214
a(I0
g50
tp215
a(I0
g64
tp216
a(I0
g50
tp217
a(I0
g64
tp218
a(I0
g50
tp219
a(I0
g55
tp220
a(I0
g64
tp221
a(I0
g50
tp222
a(I0
g64
tp223
a(I0
g50
tp224
a(I0
g64
tp225
a(I0
g50
tp226
a(I0
g64
tp227
a(I0
g50
tp228
a(I0
g64
tp229
a(I0
g50
tp230
a(I0
g64
tp231
a(I0
g50
tp232
a(I0
g64
tp233
a(I0
g50
tp234
a(I0
g55
tp235
a(I0
g55
tp236
a(I0
g55
tp237
a(I0
g55
tp238
a(I0
g50
tp239
a(I0
g50
tp240
a(I0
g64
tp241
a(I0
g64
tp242
a(I0
g64
tp243
a(I0
g53
tp244
a(I0
g55
tp245
a(I0
g55
tp246
a(I0
g57
tp247
a(I0
g50
tp248
a(I0
g55
tp249
a(I0
g55
tp250
a(I0
g55
tp251
a(I0
g55
tp252
a(I0
g55
tp253
a(I0
g55
tp254
a(I0
g55
tp255
a(I0
g55
tp256
a(I0
g55
tp257
a(I0
g55
tp258
a(I0
g55
tp259
a(I0
g50
tp260
a(I0
g64
tp261
a(I0
g64
tp262
a(I0
g53
tp263
a(I0
g57
tp264
a(I0
g50
tp265
a(I0
g55
tp266
a(I0
g64
tp267
a(I0
g53
tp268
a(I0
g57
tp269
a(I0
g53
tp270
a(I0
g57
tp271
a(I0
g50
tp272
a(I0
g50
tp273
a(I0
g64
tp274
a(I0
g64
tp275
a(I0
g53
tp276
a(I0
g53
tp277
a(I0
g53
tp278
a(I0
g50
tp279
a(I0
g64
tp280
a(I0
g50
tp281
a(I0
g64
tp282
a(I0
g50
tp283
a(I0
g64
tp284
a(I0
g50
tp285
a(I0
g55
tp286
a(I0
g64
tp287
a(I0
g50
tp288
a(I0
g55
tp289
a(I0
g64
tp290
a(I0
g50
tp291
a(I0
g64
tp292
a(I0
g50
tp293
a(I0
g64
tp294
a(I0
g50
tp295
a(I0
g64
tp296
a(I0
g55
tp297
a(I0
g55
tp298
a(I0
g55
tp299
a(I0
g55
tp300
a(I0
g55
tp301
a(I0
g55
tp302
a(I0
g55
tp303
a(I0
g55
tp304
a(I0
g55
tp305
a(I0
g55
tp306
a(I0
g57
tp307
a(I0
g57
tp308
a(I0
g57
tp309
a(I0
g53
tp310
a(I0
g53
tp311
a(I0
g57
tp312
a(I0
g57
tp313
a(I0
g53
tp314
a(I0
g53
tp315
a(I0
g57
tp316
a(I0
g57
tp317
a(I0
g53
tp318
a(I0
g53
tp319
a(I0
g57
tp320
a(I0
g55
tp321
a(I0
g57
tp322
a(I0
g53
tp323
a(I0
g53
tp324
a(I0
g57
tp325
a(I0
g57
tp326
a(I0
g55
tp327
a(I0
g53
tp328
a(I0
g53
tp329
a(I0
g57
tp330
a(I0
g57
tp331
a(I0
g53
tp332
a(I0
g53
tp333
a(I0
g57
tp334
a(I0
g57
tp335
a(I0
g53
tp336
a(I0
g53
tp337
a(I0
g57
tp338
a(I0
g57
tp339
a(I0
g53
tp340
a(I0
g57
tp341
a(I0
g53
tp342
a(I0
g55
tp343
a(I0
g55
tp344
a(I0
g53
tp345
a(I0
g57
tp346
a(I0
g57
tp347
a(I0
g53
tp348
a(I0
g53
tp349
a(I0
g57
tp350
a(I0
g57
tp351
a(I0
g55
tp352
a(I0
g53
tp353
a(I0
g53
tp354
a(I0
g57
tp355
a(I0
g57
tp356
a(I0
g53
tp357
a(I0
g53
tp358
a(I0
g57
tp359
a(I0
g57
tp360
a(I0
g53
tp361
a(I0
g53
tp362
a(I0
g57
tp363
a(I0
g53
tp364
a(I0
g57
tp365
a(I0
g57
tp366
a(I0
g53
tp367
a(I0
g53
tp368
a(I0
g57
tp369
a(I0
g57
tp370
a(I0
g53
tp371
a(I0
g55
tp372
a(I0
g53
tp373
a(I0
g57
tp374
a(I0
g57
tp375
a(I0
g53
tp376
a(I0
g53
tp377
a(I0
g57
tp378
a(I0
g57
tp379
a(I0
g53
tp380
a(I0
g53
tp381
a(I0
g57
tp382
a(I0
g57
tp383
a(I0
g53
tp384
a(I0
g53
tp385
a(I0
g57
tp386
a(I0
g57
tp387
a(I0
g53
tp388
a(I0
g53
tp389
a(I0
g57
tp390
a(I0
g57
tp391
a(I0
g53
tp392
a(I0
g53
tp393
a(I0
g57
tp394
a(I0
g57
tp395
a(I0
g53
tp396
a(I0
g53
tp397
a(I0
g57
tp398
a(I0
g57
tp399
a(I0
g53
tp400
a(I0
g53
tp401
a(I0
g57
tp402
a(I0
g57
tp403
a(I0
g53
tp404
a(I0
g55
tp405
a(I0
g53
tp406
a(I0
g57
tp407
a(I0
g57
tp408
a(I0
g53
tp409
a(I0
g55
tp410
a(I0
g53
tp411
a(I0
g57
tp412
a(I0
g57
tp413
a(I0
g53
tp414
a(I0
g53
tp415
a(I0
g57
tp416
a(I0
g57
tp417
a(I0
g53
tp418
a(I0
g53
tp419
a(I0
g57
tp420
a(I0
g57
tp421
a(I0
g53
tp422
a(I0
g53
tp423
a(I0
g57
tp424
a(I0
g57
tp425
a(I0
g53
tp426
a(I0
g53
tp427
a(I0
g57
tp428
a(I0
g57
tp429
a(I0
g53
tp430
a(I0
g55
tp431
a(I0
g53
tp432
a(I0
g53
tp433
a(I0
g50
tp434
a(I0
g55
tp435
a(I0
g55
tp436
a(I0
g55
tp437
a(I0
g55
tp438
a(I0
g55
tp439
a(I0
g64
tp440
a(I0
g57
tp441
a(I0
g57
tp442
a(I0
g53
tp443
a(I0
g53
tp444
a(I0
g50
tp445
a(I0
g55
tp446
a(I0
g55
tp447
a(I0
g64
tp448
a(I0
g50
tp449
a(I0
g55
tp450
a(I0
g55
tp451
a(I0
g55
tp452
a(I0
g64
tp453
a(I0
g50
tp454
a(I0
g55
tp455
a(I0
g55
tp456
a(I0
g55
tp457
a(I0
g55
tp458
a(I0
g55
tp459
a(I0
g55
tp460
a(I0
g55
tp461
a(I0
g55
tp462
a(I0
g55
tp463
a(I0
g55
tp464
a(I0
g55
tp465
a(I0
g55
tp466
a(I0
g55
tp467
a(I0
g55
tp468
a(I0
g55
tp469
a(I0
g55
tp470
a(I0
g55
tp471
a(I0
g55
tp472
a(I0
g64
tp473
a(I0
g50
tp474
a(I0
g64
tp475
a(I0
g50
tp476
a(I0
g64
tp477
a(I0
g50
tp478
a(I0
g55
tp479
a(I0
g55
tp480
a(I0
g55
tp481
a(I0
g55
tp482
a(I0
g50
tp483
a(I0
g64
tp484
a(I0
g64
tp485
a(I0
g57
tp486
a(I0
g57
tp487
a(I0
g57
tp488
a(I0
g53
tp489
a(I0
g57
tp490
a(I0
g55
tp491
a(I0
g55
tp492
a(I0
g53
tp493
a(I0
g53
tp494
a(I0
g57
tp495
a(I0
g57
tp496
a(I0
g53
tp497
a(I0
g53
tp498
a(I0
g53
tp499
a(I0
g55
tp500
a(I0
g55
tp501
a(I0
g55
tp502
a(I0
g55
tp503
a(I0
g55
tp504
a(I0
g55
tp505
a(I0
g50
tp506
a(I0
g50
tp507
a(I0
g64
tp508
a(I0
g64
tp509
a(I0
g57
tp510
a(I0
g55
tp511
a(I0
g57
tp512
a(I0
g53
tp513
a(I0
g53
tp514
a(I0
g50
tp515
a(I0
g50
tp516
a(I0
g64
tp517
a(I0
g64
tp518
a(I0
g57
tp519
a(I0
g57
tp520
a(I0
g53
tp521
a(I0
g53
tp522
a(I0
g50
tp523
a(I0
g50
tp524
a(I0
g64
tp525
a(I0
g64
tp526
a(I0
g50
tp527
a(I0
g64
tp528
a(I0
g50
tp529
a(I0
g64
tp530
a(I0
g50
tp531
a(I0
g50
tp532
a(I0
g64
tp533
a(I0
g64
tp534
a(I0
g57
tp535
a(I0
g57
tp536
a(I0
g53
tp537
a(I0
g57
tp538
a(I0
g57
tp539
a(I0
g53
tp540
a(I0
g53
tp541
a(I0
g57
tp542
a(I0
g57
tp543
a(I0
g53
tp544
a(I0
g53
tp545
a(I0
g57
tp546
a(I0
g57
tp547
a(I0
g53
tp548
a(I0
g53
tp549
a(I0
g57
tp550
a(I0
g53
tp551
a(I0
g57
tp552
a(I0
g53
tp553
a(I0
g53
tp554
a(I0
g50
tp555
a(I0
g55
tp556
a(I0
g50
tp557
a(I0
g64
tp558
a(I0
g64
tp559
a(I0
g57
tp560
a(I0
g55
tp561
a(I0
g57
tp562
a(I0
g53
tp563
a(I0
g53
tp564
a(I0
g55
tp565
a(I0
g55
tp566
a(I0
g50
tp567
a(I0
g50
tp568
a(I0
g64
tp569
a(I0
g64
tp570
a(I0
g57
tp571
a(I0
g57
tp572
a(I0
g57
tp573
a(I0
g53
tp574
a(I0
g55
tp575
a(I0
g55
tp576
a(I0
g55
tp577
a(I0
g55
tp578
a(I0
g55
tp579
a(I0
g55
tp580
a(I0
g55
tp581
a(I0
g55
tp582
a(I0
g55
tp583
a(I0
g53
tp584
a(I0
g57
tp585
a(I0
g57
tp586
a(I0
g55
tp587
a(I0
g55
tp588
a(I0
g55
tp589
a(I0
g55
tp590
a(I0
g53
tp591
a(I0
g53
tp592
a(I0
g57
tp593
a(I0
g57
tp594
a(I0
g55
tp595
a(I0
g55
tp596
a(I0
g55
tp597
a(I0
g55
tp598
a(I0
g55
tp599
a(I0
g53
tp600
a(I0
g55
tp601
a(I0
g55
tp602
a(I0
g55
tp603
a(I0
g55
tp604
a(I0
g55
tp605
a(I0
g55
tp606
a(I0
g55
tp607
a(I0
g55
tp608
a(I0
g55
tp609
a(I0
g55
tp610
a(I0
g55
tp611
a(I0
g55
tp612
a(I0
g55
tp613
a(I0
g55
tp614
a(I0
g55
tp615
a(I0
g53
tp616
a(I0
g57
tp617
a(I0
g57
tp618
a(I0
g53
tp619
a(I0
g53
tp620
a(I0
g57
tp621
a(I0
g53
tp622
a(I0
g57
tp623
a(I0
g53
tp624
a(I0
g53
tp625
a(I0
g50
tp626
a(I0
g50
tp627
a(I0
g64
tp628
a(I0
g64
tp629
a(I0
g55
tp630
a(I0
g57
tp631
a(I0
g57
tp632
a(I0
g53
tp633
a(I0
g53
tp634
a(I0
g50
tp635
a(I0
g50
tp636
a(I0
g64
tp637
a(I0
g64
tp638
a(I0
g57
tp639
a(I0
g57
tp640
a(I0
g53
tp641
a(I0
g53
tp642
a(I0
g50
tp643
a(I0
g50
tp644
a(I0
g64
tp645
a(I0
g64
tp646
a(I0
g57
tp647
a(I0
g57
tp648
a(I0
g57
tp649
a(I0
g53
tp650
a(I0
g55
tp651
a(I0
g55
tp652
a(I0
g55
tp653
a(I0
g55
tp654
a(I0
g55
tp655
a(I0
g55
tp656
a(I0
g55
tp657
a(I0
g55
tp658
a(I0
g55
tp659
a(I0
g55
tp660
a(I0
g55
tp661
a(I0
g55
tp662
a(I0
g55
tp663
a(I0
g53
tp664
a(I0
g57
tp665
a(I0
g53
tp666
a(I0
g53
tp667
a(I0
g55
tp668
a(I0
g50
tp669
a(I0
g50
tp670
a(I0
g64
tp671
a(I0
g64
tp672
a(I0
g57
tp673
a(I0
g57
tp674
a(I0
g53
tp675
a(I0
g53
tp676
a(I0
g55
tp677
a(I0
g55
tp678
a(I0
g55
tp679
a(I0
g50
tp680
a(I0
g50
tp681
a(I0
g64
tp682
a(I0
g64
tp683
a(I0
g57
tp684
a(I0
g57
tp685
a(I0
g53
tp686
a(I0
g53
tp687
a(I0
g55
tp688
a(I0
g55
tp689
a(I0
g55
tp690
a(I0
g50
tp691
a(I0
g50
tp692
a(I0
g64
tp693
a(I0
g64
tp694
a(I0
g57
tp695
a(I0
g55
tp696
a(I0
g57
tp697
a(I0
g55
tp698
a(I0
g53
tp699
a(I0
g53
tp700
a(I0
g50
tp701
a(I0
g50
tp702
a(I0
g64
tp703
a(I0
g64
tp704
a(I0
g57
tp705
a(I0
g57
tp706
a(I0
g53
tp707
a(I0
g57
tp708
a(I0
g57
tp709
a(I0
g53
tp710
a(I0
g57
tp711
a(I0
g53
tp712
a(I0
g53
tp713
a(I0
g57
tp714
a(I0
g53
tp715
a(I0
g53
tp716
a(I0
g50
tp717
a(I0
g50
tp718
a(I0
g50
tp719
a(I0
g64
tp720
a(I0
g64
tp721
a(I0
g64
tp722
a(I0
g57
tp723
a(I0
g57
tp724
a(I0
g53
tp725
a(I0
g57
tp726
a(I0
g53
tp727
a(I0
g53
tp728
a(I0
g55
tp729
a(I0
g50
tp730
a(I0
g50
tp731
a(I0
g64
tp732
a(I0
g64
tp733
a(I0
g57
tp734
a(I0
g57
tp735
a(I0
g53
tp736
a(I0
g53
tp737
a(I0
g50
tp738
a(I0
g50
tp739
a(I0
g64
tp740
a(I0
g64
tp741
a(I0
g57
tp742
a(I0
g57
tp743
a(I0
g53
tp744
a(I0
g53
tp745
a(I0
g50
tp746
a(I0
g50
tp747
a(I0
g64
tp748
a(I0
g64
tp749
a(I0
g57
tp750
a(I0
g57
tp751
a(I0
g53
tp752
a(I0
g53
tp753
a(I0
g50
tp754
a(I0
g50
tp755
a(I0
g64
tp756
a(I0
g64
tp757
a(I0
g57
tp758
a(I0
g57
tp759
a(I0
g53
tp760
a(I0
g53
tp761
a(I0
g50
tp762
a(I0
g50
tp763
a(I0
g64
tp764
a(I0
g64
tp765
a(I0
g55
tp766
a(I0
g55
tp767
a(I0
g55
tp768
a(I0
g57
tp769
a(I0
g55
tp770
a(I0
g57
tp771
a(I0
g57
tp772
a(I0
g53
tp773
a(I0
g55
tp774
a(I0
g53
tp775
a(I0
g53
tp776
a(I0
g50
tp777
a(I0
g50
tp778
a(I0
g64
tp779
a(I0
g64
tp780
a(I0
g57
tp781
a(I0
g57
tp782
a(I0
g57
tp783
a(I0
g53
tp784
a(I0
g53
tp785
a(I0
g57
tp786
a(I0
g53
tp787
a(I0
g53
tp788
a(I0
g50
tp789
a(I0
g50
tp790
a(I0
g64
tp791
a(I0
g64
tp792
a(I0
g55
tp793
a(I0
g57
tp794
a(I0
g57
tp795
a(I0
g53
tp796
a(I0
g53
tp797
a(I0
g50
tp798
a(I0
g50
tp799
a(I0
g64
tp800
a(I0
g64
tp801
a(I0
g57
tp802
a(I0
g57
tp803
a(I0
g53
tp804
a(I0
g57
tp805
a(I0
g55
tp806
a(I0
g55
tp807
a(I0
g55
tp808
a(I0
g53
tp809
a(I0
g53
tp810
a(I0
g50
tp811
a(I0
g55
tp812
a(I0
g55
tp813
a(I0
g55
tp814
a(I0
g55
tp815
a(I0
g50
tp816
a(I0
g64
tp817
a(I0
g64
tp818
a(I0
g57
tp819
a(I0
g57
tp820
a(I0
g53
tp821
a(I0
g53
tp822
a(I0
g50
tp823
a(I0
g50
tp824
a(I0
g64
tp825
a(I0
g64
tp826
a(I0
g57
tp827
a(I0
g57
tp828
a(I0
g53
tp829
a(I0
g53
tp830
a(I0
g50
tp831
a(I0
g50
tp832
a(I0
g64
tp833
a(I0
g64
tp834
a(I0
g55
tp835
a(I0
g57
tp836
a(I0
g57
tp837
a(I0
g55
tp838
a(I0
g53
tp839
a(I0
g53
tp840
a(I0
g50
tp841
a(I0
g50
tp842
a(I0
g64
tp843
a(I0
g64
tp844
a(I0
g57
tp845
a(I0
g55
tp846
a(I0
g55
tp847
a(I0
g57
tp848
a(I0
g53
tp849
a(I0
g53
tp850
a(I0
g50
tp851
a(I0
g55
tp852
a(I0
g50
tp853
a(I0
g64
tp854
a(I0
g64
tp855
a(I0
g57
tp856
a(I0
g57
tp857
a(I0
g53
tp858
a(I0
g53
tp859
a(I0
g50
tp860
a(I0
g50
tp861
a(I0
g64
tp862
a(I0
g64
tp863
a(I0
g57
tp864
a(I0
g57
tp865
a(I0
g53
tp866
a(I0
g57
tp867
a(I0
g53
tp868
a(I0
g53
tp869
a(I0
g50
tp870
a(I0
g50
tp871
a(I0
g64
tp872
a(I0
g64
tp873
a(I0
g55
tp874
a(I0
g55
tp875
a(I0
g57
tp876
a(I0
g57
tp877
a(I0
g53
tp878
a(I0
g53
tp879
a(I0
g50
tp880
a(I0
g50
tp881
a(I0
g64
tp882
a(I0
g64
tp883
a(I0
g57
tp884
a(I0
g57
tp885
a(I0
g53
tp886
a(I0
g53
tp887
a(I0
g50
tp888
a(I0
g50
tp889
a(I0
g64
tp890
a(I0
g64
tp891
a(I0
g57
tp892
a(I0
g53
tp893
a(I0
g57
tp894
a(I0
g53
tp895
a(I0
g57
tp896
a(I0
g53
tp897
a(I0
g57
tp898
a(I0
g53
tp899
a(I0
g57
tp900
a(I0
g53
tp901
a(I0
g57
tp902
a(I0
g57
tp903
a(I0
g55
tp904
a(I0
g55
tp905
a(I0
g55
tp906
a(I0
g53
tp907
a(I0
g53
tp908
a(I0
g50
tp909
a(I0
g50
tp910
a(I0
g64
tp911
a(I0
g50
tp912
a(I0
g55
tp913
a(I0
g64
tp914
a(I0
g64
tp915
a(I0
g57
tp916
a(I0
g53
tp917
a(I0
g57
tp918
a(I0
g53
tp919
a(I0
g57
tp920
a(I0
g57
tp921
a(I0
g53
tp922
a(I0
g53
tp923
a(I0
g57
tp924
a(I0
g53
tp925
a(I0
g57
tp926
a(I0
g53
tp927
a(I0
g55
tp928
a(I0
g57
tp929
a(I0
g57
tp930
a(I0
g55
tp931
a(I0
g55
tp932
a(I0
g53
tp933
a(I0
g53
tp934
a(I0
g57
tp935
a(I0
g53
tp936
a(I0
g57
tp937
a(I0
g57
tp938
a(I0
g53
tp939
a(I0
g55
tp940
a(I0
g55
tp941
a(I0
g53
tp942
a(I0
g50
tp943
a(I0
g50
tp944
a(I0
g55
tp945
a(I0
g55
tp946
a(I0
g64
tp947
a(I0
g64
tp948
a(I0
g55
tp949
a(I0
g55
tp950
a(I0
g55
tp951
a(I0
g55
tp952
a(I0
g57
tp953
a(I0
g57
tp954
a(I0
g53
tp955
a(I0
g53
tp956
a(I0
g55
tp957
a(I0
g50
tp958
a(I0
g50
tp959
a(I0
g64
tp960
a(I0
g55
tp961
a(I0
g55
tp962
a(I0
g64
tp963
a(I0
g57
tp964
a(I0
g57
tp965
a(I0
g55
tp966
a(I0
g53
tp967
a(I0
g53
tp968
a(I0
g50
tp969
a(I0
g50
tp970
a(I0
g64
tp971
a(I0
g64
tp972
a(I0
g57
tp973
a(I0
g57
tp974
a(I0
g53
tp975
a(I0
g53
tp976
a(I0
g50
tp977
a(I0
g50
tp978
a(I0
g64
tp979
a(I0
g64
tp980
a(I0
g57
tp981
a(I0
g57
tp982
a(I0
g53
tp983
a(I0
g57
tp984
a(I0
g53
tp985
a(I0
g53
tp986
a(I0
g50
tp987
a(I0
g50
tp988
a(I0
g64
tp989
a(I0
g64
tp990
a(I0
g50
tp991
a(I0
g55
tp992
a(I0
g64
tp993
a(I0
g55
tp994
a(I0
g57
tp995
a(I0
g57
tp996
a(I0
g53
tp997
a(I0
g53
tp998
a(I0
g57
tp999
a(I0
g57
tp1000
a(I0
g53
tp1001
a(I0
g53
tp1002
a(I0
g50
tp1003
a(I0
g50
tp1004
a(I0
g64
tp1005
a(I0
g64
tp1006
a(I0
g57
tp1007
a(I0
g57
tp1008
a(I0
g53
tp1009
a(I0
g55
tp1010
a(I0
g55
tp1011
a(I0
g53
tp1012
a(I0
g50
tp1013
a(I0
g50
tp1014
a(I0
g64
tp1015
a(I0
g64
tp1016
a(I0
g57
tp1017
a(I0
g57
tp1018
a(I0
g53
tp1019
a(I0
g53
tp1020
a(I0
g50
tp1021
a(I0
g55
tp1022
a(I0
g55
tp1023
a(I0
g50
tp1024
a(I0
g64
tp1025
a(I0
g64
tp1026
a(I0
g50
tp1027
a(I0
g55
tp1028
a(I0
g50
tp1029
a(I0
g64
tp1030
a(I0
g64
tp1031
a(I0
g57
tp1032
a(I0
g57
tp1033
a(I0
g53
tp1034
a(I0
g53
tp1035
a(I0
g50
tp1036
a(I0
g50
tp1037
a(I0
g64
tp1038
a(I0
g64
tp1039
a(I0
g57
tp1040
a(I0
g57
tp1041
a(I0
g53
tp1042
a(I0
g53
tp1043
a(I0
g50
tp1044
a(I0
g55
tp1045
a(I0
g55
tp1046
a(I0
g50
tp1047
a(I0
g64
tp1048
a(I0
g64
tp1049
a(I0
g57
tp1050
a(I0
g57
tp1051
a(I0
g53
tp1052
a(I0
g53
tp1053
a(I0
g50
tp1054
a(I0
g50
tp1055
a(I0
g64
tp1056
a(I0
g64
tp1057
a(I0
g57
tp1058
a(I0
g57
tp1059
a(I0
g53
tp1060
a(I0
g53
tp1061
a(I0
g50
tp1062
a(I0
g55
tp1063
a(I0
g55
tp1064
a(I0
g55
tp1065
a(I0
g55
tp1066
a(I0
g50
tp1067
a(I0
g64
tp1068
a(I0
g64
tp1069
a(I0
g57
tp1070
a(I0
g57
tp1071
a(I0
g53
tp1072
a(I0
g53
tp1073
a(I0
g50
tp1074
a(I0
g50
tp1075
a(I0
g64
tp1076
a(I0
g64
tp1077
a(I0
g57
tp1078
a(I0
g57
tp1079
a(I0
g53
tp1080
a(I0
g53
tp1081
a(I0
g50
tp1082
a(I0
g50
tp1083
a(I0
g64
tp1084
a(I0
g64
tp1085
a(I0
g57
tp1086
a(I0
g57
tp1087
a(I0
g53
tp1088
a(I0
g53
tp1089
a(I0
g50
tp1090
a(I0
g50
tp1091
a(I0
g64
tp1092
a(I0
g64
tp1093
a(I0
g57
tp1094
a(I0
g55
tp1095
a(I0
g53
tp1096
a(I0
g57
tp1097
a(I0
g57
tp1098
a(I0
g53
tp1099
a(I0
g53
tp1100
a(I0
g50
tp1101
a(I0
g50
tp1102
a(I0
g64
tp1103
a(I0
g64
tp1104
a(I0
g57
tp1105
a(I0
g57
tp1106
a(I0
g53
tp1107
a(I0
g53
tp1108
a(I0
g50
tp1109
a(I0
g55
tp1110
a(I0
g55
tp1111
a(I0
g50
tp1112
a(I0
g64
tp1113
a(I0
g64
tp1114
a(I0
g57
tp1115
a(I0
g57
tp1116
a(I0
g53
tp1117
a(I0
g53
tp1118
a(I0
g50
tp1119
a(I0
g64
tp1120
a(I0
g57
tp1121
a(I0
g57
tp1122
a(I0
g53
tp1123
a(I0
g53
tp1124
a(I0
g55
tp1125
a(I0
g50
tp1126
a(I0
g50
tp1127
a(I0
g64
tp1128
a(I0
g64
tp1129
a(I0
g50
tp1130
a(I0
g50
tp1131
a(I0
g64
tp1132
a(I0
g64
tp1133
a(I0
g57
tp1134
a(I0
g57
tp1135
a(I0
g53
tp1136
a(I0
g53
tp1137
a(I0
g50
tp1138
a(I0
g50
tp1139
a(I0
g64
tp1140
a(I0
g64
tp1141
a(I0
g57
tp1142
a(I0
g57
tp1143
a(I0
g53
tp1144
a(I0
g53
tp1145
a(I0
g50
tp1146
a(I0
g50
tp1147
a(I0
g64
tp1148
a(I0
g64
tp1149
a(I0
g57
tp1150
a(I0
g57
tp1151
a(I0
g53
tp1152
a(I0
g53
tp1153
a(I0
g50
tp1154
a(I0
g50
tp1155
a(I0
g64
tp1156
a(I0
g64
tp1157
a(I0
g57
tp1158
a(I0
g55
tp1159
a(I0
g57
tp1160
a(I0
g53
tp1161
a(I0
g53
tp1162
a(I0
g50
tp1163
a(I0
g50
tp1164
a(I0
g64
tp1165
a(I0
g64
tp1166
a(I0
g57
tp1167
a(I0
g57
tp1168
a(I0
g53
tp1169
a(I0
g53
tp1170
a(I0
g55
tp1171
a(I0
g55
tp1172
a(I0
g55
tp1173
a(I0
g55
tp1174
a(I0
g50
tp1175
a(I0
g50
tp1176
a(I0
g64
tp1177
a(I0
g64
tp1178
a(I0
g57
tp1179
a(I0
g55
tp1180
a(I0
g55
tp1181
a(I0
g57
tp1182
a(I0
g57
tp1183
a(I0
g53
tp1184
a(I0
g53
tp1185
a(I0
g57
tp1186
a(I0
g57
tp1187
a(I0
g53
tp1188
a(I0
g53
tp1189
a(I0
g57
tp1190
a(I0
g53
tp1191
a(I0
g53
tp1192
a(I0
g50
tp1193
a(I0
g50
tp1194
a(I0
g64
tp1195
a(I0
g64
tp1196
a(I0
g57
tp1197
a(I0
g55
tp1198
a(I0
g55
tp1199
a(I0
g57
tp1200
a(I0
g53
tp1201
a(I0
g53
tp1202
a(I0
g50
tp1203
a(I0
g55
tp1204
a(I0
g50
tp1205
a(I0
g64
tp1206
a(I0
g64
tp1207
a(I0
g57
tp1208
a(I0
g57
tp1209
a(I0
g53
tp1210
a(I0
g53
tp1211
a(I0
g50
tp1212
a(I0
g50
tp1213
a(I0
g64
tp1214
a(I0
g64
tp1215
a(I0
g57
tp1216
a(I0
g57
tp1217
a(I0
g53
tp1218
a(I0
g57
tp1219
a(I0
g53
tp1220
a(I0
g53
tp1221
a(I0
g50
tp1222
a(I0
g50
tp1223
a(I0
g64
tp1224
a(I0
g64
tp1225
a(I0
g57
tp1226
a(I0
g57
tp1227
a(I0
g53
tp1228
a(I0
g53
tp1229
a(I0
g50
tp1230
a(I0
g50
tp1231
a(I0
g64
tp1232
a(I0
g64
tp1233
a(I0
g57
tp1234
a(I0
g57
tp1235
a(I0
g53
tp1236
a(I0
g57
tp1237
a(I0
g57
tp1238
a(I0
g53
tp1239
a(I0
g53
tp1240
a(I0
g53
tp1241
a(I0
g50
tp1242
a(I0
g55
tp1243
a(I0
g55
tp1244
a(I0
g55
tp1245
a(I0
g55
tp1246
a(I0
g55
tp1247
a(I0
g50
tp1248
a(I0
g64
tp1249
a(I0
g64
tp1250
a(I0
g57
tp1251
a(I0
g57
tp1252
a(I0
g53
tp1253
a(I0
g57
tp1254
a(I0
g57
tp1255
a(I0
g55
tp1256
a(I0
g53
tp1257
a(I0
g55
tp1258
a(I0
g55
tp1259
a(I0
g55
tp1260
a(I0
g55
tp1261
a(I0
g53
tp1262
a(I0
g53
tp1263
a(I0
g50
tp1264
a(I0
g50
tp1265
a(I0
g64
tp1266
a(I0
g64
tp1267
a(I0
g50
tp1268
a(I0
g50
tp1269
a(I0
g64
tp1270
a(I0
g64
tp1271
a(I0
g57
tp1272
a(I0
g57
tp1273
a(I0
g53
tp1274
a(I0
g53
tp1275
a(I0
g50
tp1276
a(I0
g55
tp1277
a(I0
g55
tp1278
a(I0
g55
tp1279
a(I0
g55
tp1280
a(I0
g50
tp1281
a(I0
g57
tp1282
a(I0
g55
tp1283
a(I0
g55
tp1284
a(I0
g55
tp1285
a(I0
g55
tp1286
a(I0
g55
tp1287
a(I0
g53
tp1288
a(I0
g64
tp1289
a(I0
g64
tp1290
a(I0
g55
tp1291
a(I0
g55
tp1292
a(I0
g55
tp1293
a(I0
g55
tp1294
a(I0
g55
tp1295
a(I0
g55
tp1296
a(I0
g55
tp1297
a(I0
g55
tp1298
a(I0
g55
tp1299
a(I0
g55
tp1300
a(I0
g55
tp1301
a(I0
g55
tp1302
a(I0
g55
tp1303
a(I0
g55
tp1304
a(I0
g55
tp1305
a(I0
g55
tp1306
a(I0
g55
tp1307
a(I0
g55
tp1308
a(I0
g55
tp1309
a(I0
g55
tp1310
a(I0
g55
tp1311
a(I0
g55
tp1312
a(I0
g55
tp1313
a(I0
g55
tp1314
a(I0
g55
tp1315
a(I0
g50
tp1316
a(I0
g64
tp1317
a(I0
g55
tp1318
a(I0
g55
tp1319
a(I0
g55
tp1320
a(I0
g55
tp1321
a(I0
g55
tp1322
a(I0
g55
tp1323
a(I0
g55
tp1324
a(I0
g55
tp1325
a(I0
g55
tp1326
a(I0
g55
tp1327
a(I0
g55
tp1328
a(I0
g55
tp1329
a(I0
g55
tp1330
a(I0
g55
tp1331
a(I0
g55
tp1332
a(I0
g55
tp1333
a(I0
g55
tp1334
a(I0
g55
tp1335
a(I0
g55
tp1336
a(I0
g55
tp1337
a(I0
g55
tp1338
a(I0
g55
tp1339
a(I0
g55
tp1340
a(I0
g55
tp1341
a(I0
g55
tp1342
a(I0
g50
tp1343
a(I0
g64
tp1344
a(I0
g50
tp1345
a(I0
g64
tp1346
a(I0
g55
tp1347
a(I0
g55
tp1348
a(I0
g55
tp1349
a(I0
g55
tp1350
a(I0
g55
tp1351
a(I0
g55
tp1352
a(I0
g55
tp1353
a(I0
g55
tp1354
a(I0
g55
tp1355
a(I0
g55
tp1356
a(I0
g55
tp1357
a(I0
g55
tp1358
a(I0
g55
tp1359
a(I0
g55
tp1360
a(I0
g55
tp1361
a(I0
g55
tp1362
a(I0
g55
tp1363
a(I0
g55
tp1364
a(I0
g55
tp1365
a(I0
g55
tp1366
a(I0
g55
tp1367
a(I0
g55
tp1368
a(I0
g55
tp1369
a(I0
g55
tp1370
a(I0
g55
tp1371
a(I0
g55
tp1372
a(I0
g55
tp1373
a(I0
g55
tp1374
a(I0
g55
tp1375
a(I0
g55
tp1376
a(I0
g55
tp1377
a(I0
g55
tp1378
a(I0
g55
tp1379
a(I0
g55
tp1380
a(I0
g55
tp1381
a(I0
g55
tp1382
a(I0
g55
tp1383
a(I0
g55
tp1384
a(I0
g55
tp1385
a(I0
g55
tp1386
a(I0
g55
tp1387
a(I0
g50
tp1388
a(I0
g64
tp1389
a(I0
g57
tp1390
a(I0
g55
tp1391
a(I0
g55
tp1392
a(I0
g55
tp1393
a(I0
g55
tp1394
a(I0
g55
tp1395
a(I0
g55
tp1396
a(I0
g53
tp1397
a(I0
g55
tp1398
a(I0
g55
tp1399
a(I0
g55
tp1400
a(I0
g55
tp1401
a(I0
g55
tp1402
a(I0
g55
tp1403
a(I0
g55
tp1404
a(I0
g55
tp1405
a(I0
g55
tp1406
a(I0
g55
tp1407
a(I0
g55
tp1408
a(I0
g55
tp1409
a(I0
g55
tp1410
a(I0
g55
tp1411
a(I0
g55
tp1412
a(I0
g55
tp1413
a(I0
g55
tp1414
a(I0
g55
tp1415
a(I0
g55
tp1416
a(I0
g55
tp1417
a(I0
g55
tp1418
a(I0
g55
tp1419
a(I0
g55
tp1420
a(I0
g55
tp1421
a(I0
g55
tp1422
a(I0
g55
tp1423
a(I0
g55
tp1424
a(I0
g57
tp1425
a(I0
g57
tp1426
a(I0
g55
tp1427
a(I0
g55
tp1428
a(I0
g55
tp1429
a(I0
g55
tp1430
a(I0
g55
tp1431
a(I0
g55
tp1432
a(I0
g55
tp1433
a(I0
g55
tp1434
a(I0
g55
tp1435
a(I0
g55
tp1436
a(I0
g55
tp1437
a(I0
g55
tp1438
a(I0
g55
tp1439
a(I0
g55
tp1440
a(I0
g55
tp1441
a(I0
g55
tp1442
a(I0
g55
tp1443
a(I0
g55
tp1444
a(I0
g55
tp1445
a(I0
g55
tp1446
a(I0
g55
tp1447
a(I0
g55
tp1448
a(I0
g55
tp1449
a(I0
g57
tp1450
a(I0
g53
tp1451
a(I0
g57
tp1452
a(I0
g50
tp1453
a(I0
g50
tp1454
a(I0
g64
tp1455
a(I0
g64
tp1456
a(I0
g53
tp1457
a(I0
g57
tp1458
a(I0
g50
tp1459
a(I0
g50
tp1460
a(I0
g64
tp1461
a(I0
g64
tp1462
a(I0
g53
tp1463
a(I0
g57
tp1464
a(I0
g50
tp1465
a(I0
g50
tp1466
a(I0
g64
tp1467
a(I0
g64
tp1468
a(I0
g50
tp1469
a(I0
g55
tp1470
a(I0
g55
tp1471
a(I0
g50
tp1472
a(I0
g64
tp1473
a(I0
g64
tp1474
a(I0
g53
tp1475
a(I0
g53
tp1476
a(I0
g55
tp1477
a(I0
g55
tp1478
a(I0
g57
tp1479
a(I0
g57
tp1480
a(I0
g53
tp1481
a(I0
g53
tp1482
a(I0
g57
tp1483
a(I0
g57
tp1484
a(I0
g50
tp1485
a(I0
g50
tp1486
a(I0
g64
tp1487
a(I0
g64
tp1488
a(I0
g53
tp1489
a(I0
g57
tp1490
a(I0
g50
tp1491
a(I0
g50
tp1492
a(I0
g64
tp1493
a(I0
g64
tp1494
a(I0
g53
tp1495
a(I0
g57
tp1496
a(I0
g50
tp1497
a(I0
g50
tp1498
a(I0
g64
tp1499
a(I0
g64
tp1500
a(I0
g53
tp1501
a(I0
g57
tp1502
a(I0
g50
tp1503
a(I0
g50
tp1504
a(I0
g64
tp1505
a(I0
g64
tp1506
a(I0
g53
tp1507
a(I0
g57
tp1508
a(I0
g50
tp1509
a(I0
g50
tp1510
a(I0
g64
tp1511
a(I0
g64
tp1512
a(I0
g53
tp1513
a(I0
g57
tp1514
a(I0
g50
tp1515
a(I0
g50
tp1516
a(I0
g64
tp1517
a(I0
g64
tp1518
a(I0
g53
tp1519
a(I0
g57
tp1520
a(I0
g50
tp1521
a(I0
g50
tp1522
a(I0
g64
tp1523
a(I0
g64
tp1524
a(I0
g55
tp1525
a(I0
g53
tp1526
a(I0
g57
tp1527
a(I0
g50
tp1528
a(I0
g50
tp1529
a(I0
g64
tp1530
a(I0
g64
tp1531
a(I0
g53
tp1532
a(I0
g57
tp1533
a(I0
g50
tp1534
a(I0
g50
tp1535
a(I0
g64
tp1536
a(I0
g55
tp1537
a(I0
g64
tp1538
a(I0
g53
tp1539
a(I0
g57
tp1540
a(I0
g55
tp1541
a(I0
g50
tp1542
a(I0
g50
tp1543
a(I0
g64
tp1544
a(I0
g64
tp1545
a(I0
g53
tp1546
a(I0
g57
tp1547
a(I0
g50
tp1548
a(I0
g50
tp1549
a(I0
g64
tp1550
a(I0
g64
tp1551
a(I0
g53
tp1552
a(I0
g55
tp1553
a(I0
g55
tp1554
a(I0
g57
tp1555
a(I0
g55
tp1556
a(I0
g55
tp1557
a(I0
g50
tp1558
a(I0
g50
tp1559
a(I0
g64
tp1560
a(I0
g64
tp1561
a(I0
g53
tp1562
a(I0
g55
tp1563
a(I0
g55
tp1564
a(I0
g57
tp1565
a(I0
g50
tp1566
a(I0
g50
tp1567
a(I0
g64
tp1568
a(I0
g64
tp1569
a(I0
g53
tp1570
a(I0
g57
tp1571
a(I0
g50
tp1572
a(I0
g50
tp1573
a(I0
g64
tp1574
a(I0
g64
tp1575
a(I0
g53
tp1576
a(I0
g57
tp1577
a(I0
g50
tp1578
a(I0
g55
tp1579
a(I0
g55
tp1580
a(I0
g50
tp1581
a(I0
g64
tp1582
a(I0
g64
tp1583
a(I0
g53
tp1584
a(I0
g57
tp1585
a(I0
g50
tp1586
a(I0
g50
tp1587
a(I0
g64
tp1588
a(I0
g64
tp1589
a(I0
g53
tp1590
a(I0
g57
tp1591
a(I0
g50
tp1592
a(I0
g50
tp1593
a(I0
g64
tp1594
a(I0
g64
tp1595
a(I0
g53
tp1596
a(I0
g57
tp1597
a(I0
g50
tp1598
a(I0
g55
tp1599
a(I0
g50
tp1600
a(I0
g64
tp1601
a(I0
g64
tp1602
a(I0
g55
tp1603
a(I0
g55
tp1604
a(I0
g53
tp1605
a(I0
g57
tp1606
a(I0
g50
tp1607
a(I0
g50
tp1608
a(I0
g64
tp1609
a(I0
g64
tp1610
a(I0
g53
tp1611
a(I0
g57
tp1612
a(I0
g50
tp1613
a(I0
g50
tp1614
a(I0
g64
tp1615
a(I0
g64
tp1616
a(I0
g53
tp1617
a(I0
g57
tp1618
a(I0
g50
tp1619
a(I0
g50
tp1620
a(I0
g64
tp1621
a(I0
g64
tp1622
a(I0
g53
tp1623
a(I0
g53
tp1624
a(I0
g55
tp1625
a(I0
g55
tp1626
a(I0
g55
tp1627
a(I0
g55
tp1628
a(I0
g55
tp1629
a(I0
g55
tp1630
a(I0
g55
tp1631
a(I0
g55
tp1632
a(I0
g55
tp1633
a(I0
g55
tp1634
a(I0
g55
tp1635
a(I0
g55
tp1636
a(I0
g55
tp1637
a(I0
g55
tp1638
a(I0
g55
tp1639
a(I0
g55
tp1640
a(I0
g55
tp1641
a(I0
g55
tp1642
a(I0
g55
tp1643
a(I0
g55
tp1644
a(I0
g55
tp1645
a(I0
g55
tp1646
a(I0
g55
tp1647
a(I0
g55
tp1648
a(I0
g55
tp1649
a(I0
g55
tp1650
a(I0
g55
tp1651
a(I0
g55
tp1652
a(I0
g55
tp1653
a(I0
g55
tp1654
a(I0
g55
tp1655
a(I0
g55
tp1656
a(I0
g55
tp1657
a(I0
g55
tp1658
a(I0
g55
tp1659
a(I0
g55
tp1660
a(I0
g55
tp1661
a(I0
g55
tp1662
a(I0
g55
tp1663
a(I0
g55
tp1664
a(I0
g55
tp1665
a(I0
g55
tp1666
a(I0
g55
tp1667
a(I0
g55
tp1668
a(I0
g55
tp1669
a(I0
g55
tp1670
a(I0
g55
tp1671
a(I0
g55
tp1672
a(I0
g55
tp1673
a(I0
g57
tp1674
a(I0
g57
tp1675
a(I0
g53
tp1676
a(I0
g57
tp1677
a(I0
g50
tp1678
a(I0
g50
tp1679
a(I0
g64
tp1680
a(I0
g64
tp1681
a(I0
g55
tp1682
a(I0
g53
tp1683
a(I0
g57
tp1684
a(I0
g50
tp1685
a(I0
g50
tp1686
a(I0
g64
tp1687
a(I0
g55
tp1688
a(I0
g64
tp1689
a(I0
g53
tp1690
a(I0
g57
tp1691
a(I0
g50
tp1692
a(I0
g50
tp1693
a(I0
g64
tp1694
a(I0
g64
tp1695
a(I0
g50
tp1696
a(I0
g50
tp1697
a(I0
g64
tp1698
a(I0
g55
tp1699
a(I0
g50
tp1700
a(I0
g64
tp1701
a(I0
g55
tp1702
a(I0
g64
tp1703
a(I0
g53
tp1704
a(I0
g57
tp1705
a(I0
g50
tp1706
a(I0
g64
tp1707
a(I0
g55
tp1708
a(I0
g53
tp1709
a(I0
g57
tp1710
a(I0
g55
tp1711
a(I0
g50
tp1712
a(I0
g64
tp1713
a(I0
g55
tp1714
a(I0
g53
tp1715
a(I0
g57
tp1716
a(I0
g55
tp1717
a(I0
g55
tp1718
a(I0
g50
tp1719
a(I0
g50
tp1720
a(I0
g55
tp1721
a(I0
g55
tp1722
a(I0
g55
tp1723
a(I0
g55
tp1724
a(I0
g55
tp1725
a(I0
g55
tp1726
a(I0
g64
tp1727
a(I0
g64
tp1728
a(I0
g53
tp1729
a(I0
g57
tp1730
a(I0
g50
tp1731
a(I0
g50
tp1732
a(I0
g64
tp1733
a(I0
g64
tp1734
a(I0
g55
tp1735
a(I0
g55
tp1736
a(I0
g53
tp1737
a(I0
g53
tp1738
a(I0
g57
tp1739
a(I0
g55
tp1740
a(I0
g55
tp1741
a(I0
g55
tp1742
a(I0
g55
tp1743
a(I0
g57
tp1744
a(I0
g53
tp1745
a(I0
g57
tp1746
a(I0
g50
tp1747
a(I0
g50
tp1748
a(I0
g64
tp1749
a(I0
g64
tp1750
a(I0
g55
tp1751
a(I0
g53
tp1752
a(I0
g57
tp1753
a(I0
g50
tp1754
a(I0
g50
tp1755
a(I0
g64
tp1756
a(I0
g64
tp1757
a(I0
g55
tp1758
a(I0
g53
tp1759
a(I0
g57
tp1760
a(I0
g50
tp1761
a(I0
g50
tp1762
a(I0
g64
tp1763
a(I0
g64
tp1764
a(I0
g53
tp1765
a(I0
g57
tp1766
a(I0
g50
tp1767
a(I0
g50
tp1768
a(I0
g64
tp1769
a(I0
g64
tp1770
a(I0
g55
tp1771
a(I0
g53
tp1772
a(I0
g57
tp1773
a(I0
g50
tp1774
as.