(dp1
S'layout'
p2
(ilayout
Layout
p3
(dp4
S'capsules'
p5
(lp6
sS'numGhosts'
p7
I1
sS'food'
p8
(igame
Grid
p9
(dp10
S'CELLS_PER_INT'
p11
I30
sS'width'
p12
I7
sS'data'
p13
(lp14
(lp15
I00
aI00
aI00
aI00
aI00
aI00
aa(lp16
I00
aI01
aI00
aI00
aI01
aI00
aa(lp17
I00
aI00
aI00
aI00
aI00
aI00
aa(lp18
I00
aI00
aI01
aI00
aI00
aI00
aa(lp19
I00
aI00
aI00
aI00
aI00
aI00
aa(lp20
I00
aI01
aI00
aI00
aI01
aI00
aa(lp21
I00
aI00
aI00
aI00
aI00
aI00
aasS'height'
p22
I6
sbsS'agentPositions'
p23
(lp24
(I01
(I3
I4
tp25
tp26
a(I00
(I3
I1
ttp27
asg22
I6
sg12
I7
sS'walls'
p28
(igame
Grid
p29
(dp30
g11
I30
sg12
I7
sg13
(lp31
(lp32
I01
aI01
aI01
aI01
aI01
aI01
aa(lp33
I01
aI00
aI00
aI00
aI00
aI01
aa(lp34
I01
aI00
aI01
aI01
aI00
aI01
aa(lp35
I01
aI00
aI00
aI01
aI00
aI01
aa(lp36
I01
aI00
aI01
aI01
aI00
aI01
aa(lp37
I01
aI00
aI00
aI00
aI00
aI01
aa(lp38
I01
aI01
aI01
aI01
aI01
aI01
aasg22
I6
sbsS'totalFood'
p39
I5
sS'layoutText'
p40
(lp41
S'%%%%%%%'
p42
aS'%. P .%'
p43
aS'% %%% %'
p44
aS'% %.% %'
p45
aS'%. G .%'
p46
aS'%%%%%%%'
p47
asbsS'actions'
p48
(lp49
(I0
S'East'
p50
tp51
a(I0
g50
tp52
a(I0
S'South'
p53
tp54
a(I0
g53
tp55
a(I0
g53
tp56
a(I0
S'Stop'
p57
tp58
a(I0
g57
tp59
a(I0
S'West'
p60
tp61
a(I0
g57
tp62
a(I0
g60
tp63
a(I0
g60
tp64
a(I0
g60
tp65
a(I0
S'North'
p66
tp67
a(I0
g57
tp68
a(I0
g57
tp69
a(I0
g57
tp70
a(I0
g66
tp71
a(I0
g57
tp72
a(I0
g57
tp73
a(I0
g57
tp74
a(I0
g57
tp75
a(I0
g57
tp76
a(I0
g57
tp77
a(I0
g57
tp78
a(I0
g57
tp79
a(I0
g57
tp80
a(I0
g57
tp81
a(I0
g66
tp82
a(I0
g50
tp83
a(I0
g50
tp84
a(I0
g60
tp85
a(I0
g60
tp86
a(I0
g53
tp87
a(I0
g66
tp88
a(I0
g50
tp89
a(I0
g50
tp90
a(I0
g60
tp91
a(I0
g60
tp92
a(I0
g53
tp93
a(I0
g66
tp94
a(I0
g50
tp95
a(I0
g50
tp96
a(I0
g60
tp97
a(I0
g60
tp98
a(I0
g57
tp99
a(I0
g53
tp100
a(I0
g66
tp101
a(I0
g53
tp102
a(I0
g66
tp103
a(I0
g50
tp104
a(I0
g50
tp105
a(I0
g60
tp106
a(I0
g60
tp107
a(I0
g53
tp108
a(I0
g66
tp109
a(I0
g50
tp110
a(I0
g50
tp111
a(I0
g60
tp112
a(I0
g60
tp113
a(I0
g53
tp114
a(I0
g66
tp115
a(I0
g50
tp116
a(I0
g50
tp117
a(I0
g50
tp118
a(I0
g60
tp119
a(I0
g60
tp120
a(I0
g57
tp121
a(I0
g60
tp122
a(I0
g53
tp123
a(I0
g66
tp124
a(I0
g50
tp125
a(I0
g57
tp126
a(I0
g57
tp127
a(I0
g50
tp128
a(I0
g60
tp129
a(I0
g60
tp130
a(I0
g53
tp131
a(I0
g66
tp132
a(I0
g57
tp133
a(I0
g57
tp134
a(I0
g50
tp135
a(I0
g57
tp136
a(I0
g50
tp137
a(I0
g60
tp138
a(I0
g60
tp139
a(I0
g53
tp140
a(I0
g57
tp141
a(I0
g57
tp142
a(I0
g57
tp143
a(I0
g66
tp144
a(I0
g53
tp145
a(I0
g66
tp146
a(I0
g50
tp147
a(I0
g50
tp148
a(I0
g60
tp149
a(I0
g60
tp150
a(I0
g53
tp151
a(I0
g66
tp152
a(I0
g50
tp153
a(I0
g50
tp154
a(I0
g60
tp155
a(I0
g60
tp156
a(I0
g53
tp157
a(I0
g66
tp158
a(I0
g53
tp159
a(I0
g66
tp160
a(I0
g57
tp161
a(I0
g57
tp162
a(I0
g57
tp163
a(I0
g50
tp164
a(I0
g50
tp165
a(I0
g60
tp166
a(I0
g60
tp167
a(I0
g53
tp168
a(I0
g66
tp169
a(I0
g50
tp170
a(I0
g50
tp171
a(I0
g60
tp172
a(I0
g60
tp173
a(I0
g53
tp174
a(I0
g66
tp175
a(I0
g50
tp176
a(I0
g50
tp177
a(I0
g60
tp178
a(I0
g60
tp179
a(I0
g53
tp180
a(I0
g66
tp181
a(I0
g50
tp182
a(I0
g50
tp183
a(I0
g60
tp184
a(I0
g60
tp185
a(I0
g53
tp186
a(I0
g66
tp187
a(I0
g50
tp188
a(I0
g50
tp189
a(I0
g60
tp190
a(I0
g60
tp191
a(I0
g53
tp192
a(I0
g66
tp193
a(I0
g50
tp194
a(I0
g50
tp195
a(I0
g60
tp196
a(I0
g60
tp197
a(I0
g53
tp198
a(I0
g57
tp199
a(I0
g66
tp200
a(I0
g50
tp201
a(I0
g50
tp202
a(I0
g60
tp203
a(I0
g60
tp204
a(I0
g50
tp205
a(I0
g57
tp206
a(I0
g57
tp207
a(I0
g57
tp208
a(I0
g50
tp209
a(I0
g60
tp210
a(I0
g60
tp211
a(I0
g53
tp212
a(I0
g66
tp213
a(I0
g50
tp214
a(I0
g50
tp215
a(I0
g57
tp216
a(I0
g60
tp217
a(I0
g60
tp218
a(I0
g53
tp219
a(I0
g53
tp220
a(I0
g66
tp221
a(I0
g57
tp222
a(I0
g57
tp223
a(I0
g57
tp224
a(I0
g57
tp225
a(I0
g57
tp226
a(I0
g57
tp227
a(I0
g57
tp228
a(I0
g57
tp229
a(I0
g57
tp230
a(I0
g57
tp231
a(I0
g57
tp232
a(I0
g53
tp233
a(I0
g57
tp234
a(I0
g57
tp235
a(I0
g57
tp236
a(I0
g57
tp237
a(I0
g66
tp238
a(I0
g57
tp239
a(I0
g66
tp240
a(I0
g53
tp241
a(I0
g66
tp242
a(I0
g50
tp243
a(I0
g50
tp244
a(I0
g60
tp245
a(I0
g60
tp246
a(I0
g53
tp247
a(I0
g66
tp248
a(I0
g50
tp249
a(I0
g50
tp250
a(I0
g60
tp251
a(I0
g60
tp252
a(I0
g53
tp253
a(I0
g66
tp254
a(I0
g50
tp255
a(I0
g50
tp256
a(I0
g60
tp257
a(I0
g60
tp258
a(I0
g53
tp259
a(I0
g66
tp260
a(I0
g50
tp261
a(I0
g50
tp262
a(I0
g60
tp263
a(I0
g60
tp264
a(I0
g53
tp265
a(I0
g66
tp266
a(I0
g50
tp267
a(I0
g50
tp268
a(I0
g60
tp269
a(I0
g60
tp270
a(I0
g53
tp271
a(I0
g66
tp272
a(I0
g50
tp273
a(I0
g50
tp274
a(I0
g60
tp275
a(I0
g60
tp276
a(I0
g53
tp277
a(I0
g66
tp278
a(I0
g50
tp279
a(I0
g50
tp280
a(I0
g60
tp281
a(I0
g60
tp282
a(I0
g53
tp283
a(I0
g66
tp284
a(I0
g50
tp285
a(I0
g50
tp286
a(I0
g57
tp287
a(I0
g57
tp288
a(I0
g60
tp289
a(I0
g60
tp290
a(I0
g57
tp291
a(I0
g53
tp292
a(I0
g66
tp293
a(I0
g50
tp294
a(I0
g50
tp295
a(I0
g57
tp296
a(I0
g50
tp297
a(I0
g60
tp298
a(I0
g60
tp299
a(I0
g50
tp300
a(I0
g57
tp301
a(I0
g60
tp302
a(I0
g57
tp303
a(I0
g57
tp304
a(I0
g60
tp305
a(I0
g57
tp306
a(I0
g53
tp307
a(I0
g66
tp308
a(I0
g50
tp309
a(I0
g50
tp310
a(I0
g60
tp311
a(I0
g57
tp312
a(I0
g60
tp313
a(I0
g53
tp314
a(I0
g66
tp315
a(I0
g50
tp316
a(I0
g50
tp317
a(I0
g60
tp318
a(I0
g60
tp319
a(I0
g53
tp320
a(I0
g66
tp321
a(I0
g50
tp322
a(I0
g50
tp323
a(I0
g60
tp324
a(I0
g60
tp325
a(I0
g53
tp326
a(I0
g66
tp327
a(I0
g50
tp328
a(I0
g57
tp329
a(I0
g50
tp330
a(I0
g60
tp331
a(I0
g50
tp332
a(I0
g57
tp333
a(I0
g57
tp334
a(I0
g57
tp335
a(I0
g57
tp336
a(I0
g60
tp337
a(I0
g60
tp338
a(I0
g53
tp339
a(I0
g66
tp340
a(I0
g50
tp341
a(I0
g60
tp342
a(I0
g57
tp343
a(I0
g57
tp344
a(I0
g53
tp345
a(I0
g66
tp346
a(I0
g50
tp347
a(I0
g57
tp348
a(I0
g50
tp349
a(I0
g60
tp350
a(I0
g60
tp351
a(I0
g53
tp352
a(I0
g53
tp353
a(I0
g66
tp354
a(I0
g53
tp355
a(I0
g66
tp356
a(I0
g53
tp357
a(I0
g53
tp358
a(I0
g50
tp359
a(I0
g60
tp360
a(I0
g57
tp361
a(I0
g57
tp362
a(I0
g57
tp363
a(I0
g57
tp364
a(I0
g57
tp365
a(I0
g57
tp366
a(I0
g57
tp367
a(I0
g57
tp368
a(I0
g57
tp369
a(I0
g57
tp370
a(I0
g57
tp371
a(I0
g50
tp372
a(I0
g60
tp373
a(I0
g50
tp374
a(I0
g60
tp375
a(I0
g50
tp376
a(I0
g60
tp377
a(I0
g50
tp378
a(I0
g60
tp379
a(I0
g50
tp380
a(I0
g60
tp381
a(I0
g50
tp382
a(I0
g60
tp383
a(I0
g57
tp384
a(I0
g57
tp385
a(I0
g57
tp386
a(I0
g57
tp387
a(I0
g57
tp388
a(I0
g57
tp389
a(I0
g57
tp390
a(I0
g57
tp391
a(I0
g57
tp392
a(I0
g57
tp393
a(I0
g57
tp394
a(I0
g57
tp395
a(I0
g57
tp396
a(I0
g57
tp397
a(I0
g50
tp398
a(I0
g60
tp399
a(I0
g50
tp400
a(I0
g57
tp401
a(I0
g60
tp402
a(I0
g50
tp403
a(I0
g60
tp404
a(I0
g50
tp405
a(I0
g60
tp406
a(I0
g50
tp407
a(I0
g60
tp408
a(I0
g50
tp409
a(I0
g60
tp410
a(I0
g57
tp411
a(I0
g50
tp412
a(I0
g60
tp413
a(I0
g50
tp414
a(I0
g60
tp415
a(I0
g57
tp416
a(I0
g57
tp417
a(I0
g57
tp418
a(I0
g57
tp419
a(I0
g57
tp420
a(I0
g57
tp421
a(I0
g57
tp422
a(I0
g50
tp423
a(I0
g60
tp424
a(I0
g57
tp425
a(I0
g57
tp426
a(I0
g57
tp427
a(I0
g57
tp428
a(I0
g50
tp429
a(I0
g60
tp430
a(I0
g50
tp431
a(I0
g60
tp432
a(I0
g50
tp433
a(I0
g60
tp434
a(I0
g50
tp435
a(I0
g60
tp436
a(I0
g66
tp437
a(I0
g66
tp438
a(I0
g57
tp439
a(I0
g57
tp440
a(I0
g66
tp441
a(I0
g50
tp442
a(I0
g50
tp443
a(I0
g60
tp444
a(I0
g60
tp445
a(I0
g53
tp446
a(I0
g66
tp447
a(I0
g50
tp448
a(I0
g50
tp449
a(I0
g60
tp450
a(I0
g60
tp451
a(I0
g50
tp452
a(I0
g57
tp453
a(I0
g50
tp454
a(I0
g60
tp455
a(I0
g60
tp456
a(I0
g53
tp457
a(I0
g57
tp458
a(I0
g53
tp459
a(I0
g66
tp460
a(I0
g66
tp461
a(I0
g50
tp462
a(I0
g50
tp463
a(I0
g60
tp464
a(I0
g60
tp465
a(I0
g53
tp466
a(I0
g66
tp467
a(I0
g50
tp468
a(I0
g50
tp469
a(I0
g60
tp470
a(I0
g60
tp471
a(I0
g53
tp472
a(I0
g66
tp473
a(I0
g50
tp474
a(I0
g50
tp475
a(I0
g60
tp476
a(I0
g60
tp477
a(I0
g53
tp478
a(I0
g66
tp479
a(I0
g50
tp480
a(I0
g50
tp481
a(I0
g60
tp482
a(I0
g60
tp483
a(I0
g53
tp484
a(I0
g66
tp485
a(I0
g50
tp486
a(I0
g50
tp487
a(I0
g60
tp488
a(I0
g60
tp489
a(I0
g53
tp490
a(I0
g66
tp491
a(I0
g50
tp492
a(I0
g50
tp493
a(I0
g60
tp494
a(I0
g60
tp495
a(I0
g53
tp496
a(I0
g66
tp497
a(I0
g53
tp498
a(I0
g53
tp499
a(I0
g57
tp500
a(I0
g57
tp501
a(I0
g57
tp502
a(I0
g57
tp503
a(I0
g57
tp504
a(I0
g57
tp505
a(I0
g57
tp506
a(I0
g57
tp507
a(I0
g57
tp508
a(I0
g57
tp509
a(I0
g57
tp510
a(I0
g57
tp511
a(I0
g57
tp512
a(I0
g57
tp513
a(I0
g57
tp514
a(I0
g57
tp515
a(I0
g57
tp516
a(I0
g57
tp517
a(I0
g57
tp518
a(I0
g57
tp519
a(I0
g57
tp520
a(I0
g57
tp521
a(I0
g57
tp522
a(I0
g57
tp523
a(I0
g57
tp524
a(I0
g57
tp525
a(I0
g66
tp526
a(I0
g66
tp527
a(I0
g50
tp528
a(I0
g50
tp529
a(I0
g60
tp530
a(I0
g60
tp531
a(I0
g53
tp532
a(I0
g53
tp533
a(I0
g66
tp534
a(I0
g57
tp535
a(I0
g57
tp536
a(I0
g57
tp537
a(I0
g57
tp538
a(I0
g66
tp539
a(I0
g50
tp540
a(I0
g50
tp541
a(I0
g60
tp542
a(I0
g60
tp543
a(I0
g53
tp544
a(I0
g66
tp545
a(I0
g50
tp546
a(I0
g57
tp547
a(I0
g57
tp548
a(I0
g57
tp549
a(I0
g57
tp550
a(I0
g50
tp551
a(I0
g60
tp552
a(I0
g60
tp553
a(I0
g53
tp554
a(I0
g53
tp555
a(I0
g66
tp556
a(I0
g66
tp557
a(I0
g50
tp558
a(I0
g50
tp559
a(I0
g60
tp560
a(I0
g60
tp561
a(I0
g53
tp562
a(I0
g66
tp563
a(I0
g53
tp564
a(I0
g53
tp565
a(I0
g66
tp566
a(I0
g57
tp567
a(I0
g57
tp568
a(I0
g57
tp569
a(I0
g57
tp570
a(I0
g57
tp571
a(I0
g57
tp572
a(I0
g57
tp573
a(I0
g57
tp574
a(I0
g66
tp575
a(I0
g53
tp576
a(I0
g53
tp577
a(I0
g66
tp578
a(I0
g66
tp579
a(I0
g50
tp580
a(I0
g50
tp581
a(I0
g60
tp582
a(I0
g60
tp583
a(I0
g53
tp584
a(I0
g66
tp585
a(I0
g50
tp586
a(I0
g60
tp587
a(I0
g57
tp588
a(I0
g53
tp589
a(I0
g66
tp590
a(I0
g50
tp591
a(I0
g50
tp592
a(I0
g60
tp593
a(I0
g60
tp594
a(I0
g53
tp595
a(I0
g66
tp596
a(I0
g50
tp597
a(I0
g50
tp598
a(I0
g60
tp599
a(I0
g60
tp600
a(I0
g53
tp601
a(I0
g66
tp602
a(I0
g53
tp603
a(I0
g66
tp604
a(I0
g50
tp605
a(I0
g50
tp606
a(I0
g60
tp607
a(I0
g60
tp608
a(I0
g50
tp609
a(I0
g50
tp610
a(I0
g57
tp611
a(I0
g57
tp612
a(I0
g60
tp613
a(I0
g60
tp614
a(I0
g53
tp615
a(I0
g66
tp616
a(I0
g50
tp617
a(I0
g50
tp618
a(I0
g60
tp619
a(I0
g57
tp620
a(I0
g60
tp621
a(I0
g53
tp622
a(I0
g66
tp623
a(I0
g50
tp624
a(I0
g50
tp625
a(I0
g60
tp626
a(I0
g60
tp627
a(I0
g53
tp628
a(I0
g53
tp629
a(I0
g66
tp630
a(I0
g57
tp631
a(I0
g57
tp632
a(I0
g57
tp633
a(I0
g57
tp634
a(I0
g57
tp635
a(I0
g66
tp636
a(I0
g53
tp637
a(I0
g66
tp638
a(I0
g50
tp639
a(I0
g57
tp640
a(I0
g50
tp641
a(I0
g60
tp642
a(I0
g60
tp643
a(I0
g53
tp644
a(I0
g66
tp645
a(I0
g50
tp646
a(I0
g50
tp647
a(I0
g57
tp648
a(I0
g60
tp649
a(I0
g60
tp650
a(I0
g57
tp651
a(I0
g53
tp652
a(I0
g66
tp653
a(I0
g50
tp654
a(I0
g50
tp655
a(I0
g60
tp656
a(I0
g60
tp657
a(I0
g53
tp658
a(I0
g66
tp659
a(I0
g50
tp660
a(I0
g50
tp661
a(I0
g60
tp662
a(I0
g60
tp663
a(I0
g57
tp664
a(I0
g53
tp665
a(I0
g66
tp666
a(I0
g50
tp667
a(I0
g50
tp668
a(I0
g60
tp669
a(I0
g60
tp670
a(I0
g50
tp671
a(I0
g50
tp672
a(I0
g60
tp673
a(I0
g50
tp674
a(I0
g57
tp675
a(I0
g57
tp676
a(I0
g57
tp677
a(I0
g57
tp678
a(I0
g57
tp679
a(I0
g60
tp680
a(I0
g60
tp681
a(I0
g53
tp682
a(I0
g66
tp683
a(I0
g50
tp684
a(I0
g50
tp685
a(I0
g60
tp686
a(I0
g60
tp687
a(I0
g53
tp688
a(I0
g66
tp689
a(I0
g50
tp690
a(I0
g50
tp691
a(I0
g60
tp692
a(I0
g60
tp693
a(I0
g57
tp694
a(I0
g57
tp695
a(I0
g57
tp696
a(I0
g53
tp697
a(I0
g57
tp698
a(I0
g53
tp699
a(I0
g66
tp700
a(I0
g66
tp701
a(I0
g50
tp702
a(I0
g50
tp703
a(I0
g60
tp704
a(I0
g60
tp705
a(I0
g53
tp706
a(I0
g66
tp707
a(I0
g53
tp708
a(I0
g53
tp709
a(I0
g66
tp710
a(I0
g66
tp711
a(I0
g53
tp712
a(I0
g53
tp713
a(I0
g66
tp714
a(I0
g57
tp715
a(I0
g57
tp716
a(I0
g66
tp717
a(I0
g53
tp718
a(I0
g53
tp719
a(I0
g66
tp720
a(I0
g66
tp721
a(I0
g53
tp722
a(I0
g66
tp723
a(I0
g50
tp724
a(I0
g50
tp725
a(I0
g60
tp726
a(I0
g60
tp727
a(I0
g53
tp728
a(I0
g66
tp729
a(I0
g50
tp730
a(I0
g60
tp731
a(I0
g57
tp732
a(I0
g53
tp733
a(I0
g66
tp734
a(I0
g50
tp735
a(I0
g50
tp736
a(I0
g60
tp737
a(I0
g60
tp738
a(I0
g53
tp739
a(I0
g66
tp740
a(I0
g53
tp741
a(I0
g53
tp742
a(I0
g57
tp743
a(I0
g57
tp744
a(I0
g66
tp745
a(I0
g66
tp746
a(I0
g53
tp747
a(I0
g66
tp748
a(I0
g53
tp749
a(I0
g66
tp750
a(I0
g50
tp751
a(I0
g50
tp752
a(I0
g60
tp753
a(I0
g60
tp754
a(I0
g53
tp755
a(I0
g66
tp756
a(I0
g53
tp757
a(I0
g53
tp758
a(I0
g66
tp759
a(I0
g53
tp760
a(I0
g66
tp761
a(I0
g66
tp762
a(I0
g57
tp763
a(I0
g53
tp764
a(I0
g53
tp765
a(I0
g66
tp766
a(I0
g66
tp767
a(I0
g53
tp768
a(I0
g57
tp769
a(I0
g53
tp770
a(I0
g66
tp771
a(I0
g66
tp772
a(I0
g57
tp773
a(I0
g53
tp774
a(I0
g53
tp775
a(I0
g66
tp776
a(I0
g66
tp777
a(I0
g53
tp778
a(I0
g53
tp779
a(I0
g66
tp780
a(I0
g66
tp781
a(I0
g53
tp782
a(I0
g53
tp783
a(I0
g66
tp784
a(I0
g66
tp785
a(I0
g57
tp786
a(I0
g53
tp787
a(I0
g66
tp788
a(I0
g50
tp789
a(I0
g50
tp790
a(I0
g60
tp791
a(I0
g60
tp792
a(I0
g53
tp793
a(I0
g66
tp794
a(I0
g50
tp795
a(I0
g50
tp796
a(I0
g60
tp797
a(I0
g60
tp798
a(I0
g53
tp799
a(I0
g66
tp800
a(I0
g57
tp801
a(I0
g50
tp802
a(I0
g50
tp803
a(I0
g60
tp804
a(I0
g60
tp805
a(I0
g53
tp806
a(I0
g66
tp807
a(I0
g50
tp808
a(I0
g50
tp809
a(I0
g50
tp810
a(I0
g50
tp811
a(I0
g60
tp812
a(I0
g60
tp813
a(I0
g60
tp814
a(I0
g57
tp815
a(I0
g57
tp816
a(I0
g57
tp817
a(I0
g57
tp818
a(I0
g57
tp819
a(I0
g57
tp820
a(I0
g57
tp821
a(I0
g57
tp822
a(I0
g57
tp823
a(I0
g60
tp824
a(I0
g57
tp825
a(I0
g53
tp826
a(I0
g66
tp827
a(I0
g50
tp828
a(I0
g50
tp829
a(I0
g60
tp830
a(I0
g60
tp831
a(I0
g57
tp832
a(I0
g57
tp833
a(I0
g57
tp834
a(I0
g57
tp835
a(I0
g53
tp836
a(I0
g53
tp837
a(I0
g66
tp838
a(I0
g57
tp839
a(I0
g66
tp840
a(I0
g53
tp841
a(I0
g66
tp842
a(I0
g50
tp843
a(I0
g50
tp844
a(I0
g60
tp845
a(I0
g60
tp846
a(I0
g50
tp847
a(I0
g57
tp848
a(I0
g50
tp849
a(I0
g60
tp850
a(I0
g60
tp851
a(I0
g53
tp852
a(I0
g66
tp853
a(I0
g50
tp854
a(I0
g60
tp855
a(I0
g57
tp856
a(I0
g50
tp857
a(I0
g60
tp858
a(I0
g57
tp859
a(I0
g57
tp860
a(I0
g57
tp861
a(I0
g57
tp862
a(I0
g57
tp863
a(I0
g53
tp864
a(I0
g53
tp865
a(I0
g66
tp866
a(I0
g66
tp867
a(I0
g53
tp868
a(I0
g66
tp869
a(I0
g57
tp870
a(I0
g53
tp871
a(I0
g53
tp872
a(I0
g66
tp873
a(I0
g66
tp874
a(I0
g53
tp875
a(I0
g53
tp876
a(I0
g66
tp877
a(I0
g66
tp878
a(I0
g57
tp879
a(I0
g50
tp880
a(I0
g50
tp881
a(I0
g60
tp882
a(I0
g60
tp883
a(I0
g53
tp884
a(I0
g66
tp885
a(I0
g50
tp886
a(I0
g50
tp887
a(I0
g60
tp888
a(I0
g60
tp889
a(I0
g57
tp890
a(I0
g57
tp891
a(I0
g53
tp892
a(I0
g66
tp893
a(I0
g50
tp894
a(I0
g50
tp895
a(I0
g57
tp896
a(I0
g57
tp897
a(I0
g57
tp898
a(I0
g57
tp899
a(I0
g57
tp900
a(I0
g60
tp901
a(I0
g60
tp902
a(I0
g53
tp903
a(I0
g53
tp904
a(I0
g66
tp905
a(I0
g66
tp906
a(I0
g50
tp907
a(I0
g50
tp908
a(I0
g60
tp909
a(I0
g50
tp910
a(I0
g60
tp911
a(I0
g60
tp912
a(I0
g57
tp913
a(I0
g57
tp914
a(I0
g53
tp915
a(I0
g66
tp916
a(I0
g50
tp917
a(I0
g50
tp918
a(I0
g60
tp919
a(I0
g60
tp920
a(I0
g53
tp921
a(I0
g57
tp922
a(I0
g66
tp923
a(I0
g53
tp924
a(I0
g53
tp925
a(I0
g57
tp926
a(I0
g66
tp927
a(I0
g66
tp928
a(I0
g50
tp929
a(I0
g50
tp930
a(I0
g60
tp931
a(I0
g57
tp932
a(I0
g57
tp933
a(I0
g57
tp934
a(I0
g60
tp935
a(I0
g53
tp936
a(I0
g66
tp937
a(I0
g50
tp938
a(I0
g60
tp939
a(I0
g57
tp940
a(I0
g57
tp941
a(I0
g50
tp942
a(I0
g60
tp943
a(I0
g50
tp944
a(I0
g60
tp945
a(I0
g57
tp946
a(I0
g50
tp947
a(I0
g50
tp948
a(I0
g57
tp949
a(I0
g57
tp950
a(I0
g57
tp951
a(I0
g57
tp952
a(I0
g57
tp953
a(I0
g60
tp954
a(I0
g60
tp955
a(I0
g57
tp956
a(I0
g57
tp957
a(I0
g57
tp958
a(I0
g50
tp959
a(I0
g60
tp960
a(I0
g57
tp961
a(I0
g57
tp962
a(I0
g57
tp963
a(I0
g53
tp964
a(I0
g66
tp965
a(I0
g53
tp966
a(I0
g53
tp967
a(I0
g66
tp968
a(I0
g66
tp969
a(I0
g53
tp970
a(I0
g53
tp971
a(I0
g53
tp972
a(I0
g57
tp973
a(I0
g50
tp974
a(I0
g60
tp975
a(I0
g50
tp976
a(I0
g60
tp977
a(I0
g50
tp978
a(I0
g60
tp979
a(I0
g57
tp980
a(I0
g57
tp981
a(I0
g57
tp982
a(I0
g57
tp983
a(I0
g57
tp984
a(I0
g57
tp985
a(I0
g57
tp986
a(I0
g57
tp987
a(I0
g57
tp988
a(I0
g57
tp989
a(I0
g57
tp990
a(I0
g57
tp991
a(I0
g57
tp992
a(I0
g57
tp993
a(I0
g57
tp994
a(I0
g57
tp995
a(I0
g57
tp996
a(I0
g57
tp997
a(I0
g57
tp998
a(I0
g57
tp999
a(I0
g57
tp1000
a(I0
g57
tp1001
a(I0
g57
tp1002
a(I0
g57
tp1003
a(I0
g57
tp1004
a(I0
g57
tp1005
a(I0
g57
tp1006
a(I0
g57
tp1007
a(I0
g57
tp1008
a(I0
g57
tp1009
a(I0
g57
tp1010
a(I0
g57
tp1011
a(I0
g57
tp1012
a(I0
g57
tp1013
a(I0
g57
tp1014
a(I0
g57
tp1015
a(I0
g57
tp1016
a(I0
g57
tp1017
a(I0
g57
tp1018
a(I0
g57
tp1019
a(I0
g57
tp1020
a(I0
g57
tp1021
a(I0
g57
tp1022
a(I0
g57
tp1023
a(I0
g57
tp1024
a(I0
g57
tp1025
a(I0
g57
tp1026
a(I0
g50
tp1027
a(I0
g60
tp1028
a(I0
g50
tp1029
a(I0
g60
tp1030
a(I0
g50
tp1031
a(I0
g60
tp1032
a(I0
g50
tp1033
a(I0
g60
tp1034
a(I0
g50
tp1035
a(I0
g60
tp1036
a(I0
g50
tp1037
a(I0
g60
tp1038
a(I0
g50
tp1039
a(I0
g60
tp1040
a(I0
g50
tp1041
a(I0
g60
tp1042
a(I0
g50
tp1043
a(I0
g60
tp1044
a(I0
g50
tp1045
a(I0
g60
tp1046
a(I0
g50
tp1047
a(I0
g60
tp1048
a(I0
g50
tp1049
a(I0
g60
tp1050
a(I0
g50
tp1051
a(I0
g60
tp1052
a(I0
g50
tp1053
a(I0
g57
tp1054
a(I0
g60
tp1055
a(I0
g50
tp1056
a(I0
g60
tp1057
a(I0
g50
tp1058
a(I0
g60
tp1059
a(I0
g50
tp1060
a(I0
g60
tp1061
a(I0
g50
tp1062
a(I0
g60
tp1063
a(I0
g50
tp1064
a(I0
g60
tp1065
a(I0
g50
tp1066
a(I0
g60
tp1067
a(I0
g50
tp1068
a(I0
g60
tp1069
as.