(dp1
S'layout'
p2
(ilayout
Layout
p3
(dp4
S'capsules'
p5
(lp6
sS'numGhosts'
p7
I1
sS'food'
p8
(igame
Grid
p9
(dp10
S'CELLS_PER_INT'
p11
I30
sS'width'
p12
I7
sS'data'
p13
(lp14
(lp15
I00
aI00
aI00
aI00
aI00
aI00
aI00
aa(lp16
I00
aI01
aI00
aI00
aI00
aI00
aI00
aa(lp17
I00
aI00
aI00
aI00
aI00
aI00
aI00
aa(lp18
I00
aI00
aI00
aI01
aI00
aI00
aI00
aa(lp19
I00
aI00
aI00
aI00
aI00
aI00
aI00
aa(lp20
I00
aI00
aI00
aI00
aI00
aI00
aI00
aa(lp21
I00
aI00
aI00
aI00
aI00
aI00
aI00
aasS'height'
p22
I7
sbsS'agentPositions'
p23
(lp24
(I01
(I2
I5
tp25
tp26
a(I00
(I3
I1
ttp27
asg22
I7
sg12
I7
sS'walls'
p28
(igame
Grid
p29
(dp30
g11
I30
sg12
I7
sg13
(lp31
(lp32
I01
aI01
aI01
aI01
aI01
aI01
aI01
aa(lp33
I01
aI00
aI00
aI00
aI00
aI00
aI01
aa(lp34
I01
aI00
aI01
aI01
aI01
aI00
aI01
aa(lp35
I01
aI00
aI01
aI00
aI01
aI00
aI01
aa(lp36
I01
aI00
aI01
aI00
aI01
aI00
aI01
aa(lp37
I01
aI00
aI00
aI00
aI00
aI00
aI01
aa(lp38
I01
aI01
aI01
aI01
aI01
aI01
aI01
aasg22
I7
sbsS'totalFood'
p39
I2
sS'layoutText'
p40
(lp41
S'%%%%%%%'
p42
aS'% P   %'
p43
aS'% %%% %'
p44
aS'% %.  %'
p45
aS'% %%% %'
p46
aS'%. G  %'
p47
aS'%%%%%%%'
p48
asbsS'actions'
p49
(lp50
(I0
S'West'
p51
tp52
a(I0
S'South'
p53
tp54
a(I0
g53
tp55
a(I0
g53
tp56
a(I0
g53
tp57
a(I0
S'East'
p58
tp59
a(I0
g58
tp60
a(I0
g51
tp61
a(I0
g51
tp62
a(I0
S'Stop'
p63
tp64
a(I0
g58
tp65
a(I0
g51
tp66
a(I0
g58
tp67
a(I0
g58
tp68
a(I0
g58
tp69
a(I0
g58
tp70
a(I0
g63
tp71
a(I0
g63
tp72
a(I0
S'North'
p73
tp74
a(I0
g53
tp75
a(I0
g63
tp76
a(I0
g51
tp77
a(I0
g58
tp78
a(I0
g63
tp79
a(I0
g63
tp80
a(I0
g63
tp81
a(I0
g63
tp82
a(I0
g63
tp83
a(I0
g51
tp84
a(I0
g63
tp85
a(I0
g51
tp86
a(I0
g63
tp87
a(I0
g58
tp88
a(I0
g63
tp89
a(I0
g51
tp90
a(I0
g63
tp91
a(I0
g58
tp92
a(I0
g63
tp93
a(I0
g63
tp94
a(I0
g63
tp95
a(I0
g63
tp96
a(I0
g51
tp97
a(I0
g58
tp98
a(I0
g51
tp99
a(I0
g51
tp100
a(I0
g63
tp101
a(I0
g58
tp102
a(I0
g63
tp103
a(I0
g51
tp104
a(I0
g58
tp105
a(I0
g51
tp106
a(I0
g51
tp107
a(I0
g73
tp108
a(I0
g73
tp109
a(I0
g53
tp110
a(I0
g73
tp111
a(I0
g73
tp112
a(I0
g63
tp113
a(I0
g53
tp114
a(I0
g73
tp115
a(I0
g73
tp116
a(I0
g53
tp117
a(I0
g53
tp118
a(I0
g73
tp119
a(I0
g63
tp120
a(I0
g73
tp121
a(I0
g63
tp122
a(I0
g58
tp123
a(I0
g51
tp124
a(I0
g53
tp125
a(I0
g73
tp126
a(I0
g58
tp127
a(I0
g51
tp128
a(I0
g58
tp129
a(I0
g51
tp130
a(I0
g63
tp131
a(I0
g53
tp132
a(I0
g53
tp133
a(I0
g73
tp134
a(I0
g53
tp135
a(I0
g73
tp136
a(I0
g73
tp137
a(I0
g58
tp138
a(I0
g51
tp139
a(I0
g63
tp140
a(I0
g58
tp141
a(I0
g58
tp142
a(I0
g51
tp143
a(I0
g51
tp144
a(I0
g63
tp145
a(I0
g58
tp146
a(I0
g51
tp147
a(I0
g63
tp148
a(I0
g63
tp149
a(I0
g53
tp150
a(I0
g53
tp151
a(I0
g63
tp152
a(I0
g63
tp153
a(I0
g63
tp154
a(I0
g53
tp155
a(I0
g73
tp156
a(I0
g53
tp157
a(I0
g73
tp158
a(I0
g73
tp159
a(I0
g63
tp160
a(I0
g53
tp161
a(I0
g53
tp162
a(I0
g73
tp163
a(I0
g53
tp164
a(I0
g53
tp165
a(I0
g58
tp166
a(I0
g63
tp167
a(I0
g51
tp168
a(I0
g73
tp169
a(I0
g63
tp170
a(I0
g63
tp171
a(I0
g73
tp172
a(I0
g53
tp173
a(I0
g53
tp174
a(I0
g63
tp175
a(I0
g73
tp176
a(I0
g53
tp177
a(I0
g58
tp178
a(I0
g58
tp179
a(I0
g51
tp180
a(I0
g51
tp181
a(I0
g58
tp182
a(I0
g51
tp183
a(I0
g58
tp184
a(I0
g63
tp185
a(I0
g63
tp186
a(I0
g63
tp187
a(I0
g63
tp188
a(I0
g63
tp189
a(I0
g63
tp190
a(I0
g63
tp191
a(I0
g58
tp192
a(I0
g58
tp193
a(I0
g63
tp194
a(I0
g63
tp195
a(I0
g63
tp196
a(I0
g63
tp197
a(I0
g51
tp198
a(I0
g51
tp199
a(I0
g51
tp200
a(I0
g58
tp201
a(I0
g51
tp202
a(I0
g73
tp203
a(I0
g73
tp204
a(I0
g53
tp205
a(I0
g73
tp206
a(I0
g73
tp207
a(I0
g53
tp208
a(I0
g73
tp209
a(I0
g53
tp210
a(I0
g73
tp211
a(I0
g73
tp212
a(I0
g63
tp213
a(I0
g53
tp214
a(I0
g63
tp215
a(I0
g63
tp216
a(I0
g53
tp217
a(I0
g63
tp218
a(I0
g53
tp219
a(I0
g53
tp220
a(I0
g58
tp221
a(I0
g58
tp222
a(I0
g51
tp223
a(I0
g63
tp224
a(I0
g51
tp225
a(I0
g58
tp226
a(I0
g58
tp227
a(I0
g51
tp228
a(I0
g51
tp229
a(I0
g73
tp230
a(I0
g73
tp231
a(I0
g73
tp232
a(I0
g53
tp233
a(I0
g73
tp234
a(I0
g53
tp235
a(I0
g73
tp236
a(I0
g73
tp237
a(I0
g53
tp238
a(I0
g53
tp239
a(I0
g73
tp240
a(I0
g73
tp241
a(I0
g53
tp242
a(I0
g73
tp243
a(I0
g63
tp244
a(I0
g58
tp245
a(I0
g58
tp246
a(I0
g51
tp247
a(I0
g51
tp248
a(I0
g63
tp249
a(I0
g53
tp250
a(I0
g73
tp251
a(I0
g53
tp252
a(I0
g53
tp253
a(I0
g73
tp254
a(I0
g53
tp255
a(I0
g73
tp256
a(I0
g53
tp257
a(I0
g53
tp258
a(I0
g73
tp259
a(I0
g73
tp260
a(I0
g73
tp261
a(I0
g53
tp262
a(I0
g53
tp263
a(I0
g73
tp264
a(I0
g53
tp265
a(I0
g53
tp266
a(I0
g73
tp267
a(I0
g63
tp268
a(I0
g53
tp269
a(I0
g73
tp270
a(I0
g63
tp271
a(I0
g53
tp272
a(I0
g63
tp273
a(I0
g73
tp274
a(I0
g73
tp275
a(I0
g73
tp276
a(I0
g53
tp277
a(I0
g73
tp278
a(I0
g58
tp279
a(I0
g58
tp280
a(I0
g63
tp281
a(I0
g63
tp282
a(I0
g51
tp283
a(I0
g58
tp284
a(I0
g63
tp285
a(I0
g63
tp286
a(I0
g63
tp287
a(I0
g58
tp288
a(I0
g51
tp289
a(I0
g51
tp290
a(I0
g58
tp291
a(I0
g51
tp292
a(I0
g63
tp293
a(I0
g58
tp294
a(I0
g63
tp295
a(I0
g58
tp296
a(I0
g51
tp297
a(I0
g58
tp298
a(I0
g51
tp299
a(I0
g63
tp300
a(I0
g51
tp301
a(I0
g63
tp302
a(I0
g63
tp303
a(I0
g63
tp304
a(I0
g58
tp305
a(I0
g63
tp306
a(I0
g63
tp307
a(I0
g63
tp308
a(I0
g63
tp309
a(I0
g63
tp310
a(I0
g51
tp311
a(I0
g63
tp312
a(I0
g58
tp313
a(I0
g58
tp314
a(I0
g58
tp315
a(I0
g51
tp316
a(I0
g58
tp317
a(I0
g51
tp318
a(I0
g58
tp319
a(I0
g63
tp320
a(I0
g53
tp321
a(I0
g53
tp322
a(I0
g51
tp323
a(I0
g51
tp324
as.