(dp1
S'layout'
p2
(ilayout
Layout
p3
(dp4
S'capsules'
p5
(lp6
sS'numGhosts'
p7
I1
sS'food'
p8
(igame
Grid
p9
(dp10
S'CELLS_PER_INT'
p11
I30
sS'width'
p12
I7
sS'data'
p13
(lp14
(lp15
I00
aI00
aI00
aI00
aI00
aI00
aI00
aa(lp16
I00
aI01
aI00
aI00
aI00
aI00
aI00
aa(lp17
I00
aI00
aI00
aI00
aI00
aI00
aI00
aa(lp18
I00
aI00
aI00
aI01
aI00
aI00
aI00
aa(lp19
I00
aI00
aI00
aI00
aI00
aI00
aI00
aa(lp20
I00
aI00
aI00
aI00
aI00
aI00
aI00
aa(lp21
I00
aI00
aI00
aI00
aI00
aI00
aI00
aasS'height'
p22
I7
sbsS'agentPositions'
p23
(lp24
(I01
(I2
I5
tp25
tp26
a(I00
(I3
I1
tp27
tp28
asg22
I7
sg12
I7
sS'walls'
p29
(igame
Grid
p30
(dp31
g11
I30
sg12
I7
sg13
(lp32
(lp33
I01
aI01
aI01
aI01
aI01
aI01
aI01
aa(lp34
I01
aI00
aI00
aI00
aI00
aI00
aI01
aa(lp35
I01
aI00
aI01
aI01
aI01
aI00
aI01
aa(lp36
I01
aI00
aI01
aI00
aI01
aI00
aI01
aa(lp37
I01
aI00
aI01
aI00
aI01
aI00
aI01
aa(lp38
I01
aI00
aI00
aI00
aI00
aI00
aI01
aa(lp39
I01
aI01
aI01
aI01
aI01
aI01
aI01
aasg22
I7
sbsS'totalFood'
p40
I2
sS'layoutText'
p41
(lp42
S'%%%%%%%'
p43
aS'% P   %'
p44
aS'% %%% %'
p45
aS'% %.  %'
p46
aS'% %%% %'
p47
aS'%. G  %'
p48
aS'%%%%%%%'
p49
asbsS'actions'
p50
(lp51
(I0
S'West'
p52
tp53
a(I1
g52
tp54
a(I0
S'East'
p55
tp56
a(I1
g52
tp57
a(I0
g55
tp58
a(I1
S'North'
p59
tp60
a(I0
g55
tp61
a(I1
g59
tp62
a(I0
g55
tp63
a(I1
g59
tp64
a(I0
S'South'
p65
tp66
a(I1
g59
tp67
a(I0
g65
tp68
a(I1
g55
tp69
a(I0
g52
tp70
a(I1
g55
tp71
a(I0
g52
tp72
a(I1
g55
tp73
a(I0
g55
tp74
a(I1
g55
tp75
a(I0
g55
tp76
a(I1
g65
tp77
a(I0
g65
tp78
a(I1
g65
tp79
a(I0
g65
tp80
a(I1
g52
tp81
a(I0
g52
tp82
a(I1
g52
tp83
a(I0
S'Stop'
p84
tp85
a(I1
g55
tp86
a(I0
g55
tp87
a(I1
g55
tp88
a(I0
g59
tp89
a(I1
g59
tp90
a(I0
g59
tp91
a(I1
g59
tp92
a(I0
g52
tp93
a(I1
g52
tp94
a(I0
g52
tp95
a(I1
g52
tp96
a(I0
g55
tp97
a(I1
g52
tp98
a(I0
g52
tp99
a(I1
g52
tp100
a(I0
g84
tp101
a(I1
g65
tp102
a(I0
g55
tp103
a(I1
g65
tp104
a(I0
g84
tp105
a(I1
g65
tp106
a(I0
g52
tp107
a(I1
g65
tp108
a(I0
g84
tp109
a(I1
g55
tp110
a(I0
g84
tp111
a(I1
g55
tp112
a(I0
g84
tp113
a(I1
g55
tp114
a(I0
g84
tp115
a(I1
g55
tp116
a(I0
g55
tp117
a(I1
g59
tp118
a(I0
g84
tp119
a(I1
g59
tp120
a(I0
g84
tp121
a(I1
g59
tp122
a(I0
g84
tp123
a(I1
g59
tp124
a(I0
g84
tp125
a(I1
g52
tp126
a(I0
g84
tp127
a(I1
g52
tp128
a(I0
g84
tp129
a(I1
g52
tp130
a(I0
g84
tp131
a(I1
g52
tp132
a(I0
g84
tp133
a(I1
g65
tp134
a(I0
g84
tp135
a(I1
g65
tp136
a(I0
g52
tp137
a(I1
g65
tp138
a(I0
g84
tp139
a(I1
g65
tp140
a(I0
g55
tp141
a(I1
g55
tp142
a(I0
g84
tp143
a(I1
g55
tp144
a(I0
g84
tp145
a(I1
g55
tp146
a(I0
g84
tp147
a(I1
g55
tp148
a(I0
g55
tp149
a(I1
g59
tp150
a(I0
g52
tp151
a(I1
g59
tp152
a(I0
g52
tp153
a(I1
g52
tp154
a(I0
g84
tp155
a(I1
g52
tp156
as.