(dp1
S'layout'
p2
(ilayout
Layout
p3
(dp4
S'capsules'
p5
(lp6
sS'numGhosts'
p7
I1
sS'food'
p8
(igame
Grid
p9
(dp10
S'CELLS_PER_INT'
p11
I30
sS'width'
p12
I7
sS'data'
p13
(lp14
(lp15
I00
aI00
aI00
aI00
aI00
aI00
aI00
aa(lp16
I00
aI01
aI00
aI00
aI00
aI00
aI00
aa(lp17
I00
aI00
aI00
aI00
aI00
aI00
aI00
aa(lp18
I00
aI00
aI00
aI01
aI00
aI00
aI00
aa(lp19
I00
aI00
aI00
aI00
aI00
aI00
aI00
aa(lp20
I00
aI00
aI00
aI00
aI00
aI00
aI00
aa(lp21
I00
aI00
aI00
aI00
aI00
aI00
aI00
aasS'height'
p22
I7
sbsS'agentPositions'
p23
(lp24
(I01
(I2
I5
tp25
tp26
a(I00
(I3
I1
ttp27
asg22
I7
sg12
I7
sS'walls'
p28
(igame
Grid
p29
(dp30
g11
I30
sg12
I7
sg13
(lp31
(lp32
I01
aI01
aI01
aI01
aI01
aI01
aI01
aa(lp33
I01
aI00
aI00
aI00
aI00
aI00
aI01
aa(lp34
I01
aI00
aI01
aI01
aI01
aI00
aI01
aa(lp35
I01
aI00
aI01
aI00
aI01
aI00
aI01
aa(lp36
I01
aI00
aI01
aI00
aI01
aI00
aI01
aa(lp37
I01
aI00
aI00
aI00
aI00
aI00
aI01
aa(lp38
I01
aI01
aI01
aI01
aI01
aI01
aI01
aasg22
I7
sbsS'totalFood'
p39
I2
sS'layoutText'
p40
(lp41
S'%%%%%%%'
p42
aS'% P   %'
p43
aS'% %%% %'
p44
aS'% %.  %'
p45
aS'% %%% %'
p46
aS'%. G  %'
p47
aS'%%%%%%%'
p48
asbsS'actions'
p49
(lp50
(I0
S'East'
p51
tp52
a(I0
S'West'
p53
tp54
a(I0
g53
tp55
a(I0
g51
tp56
a(I0
g53
tp57
a(I0
g51
tp58
a(I0
g53
tp59
a(I0
g51
tp60
a(I0
g53
tp61
a(I0
g51
tp62
a(I0
S'Stop'
p63
tp64
a(I0
g63
tp65
a(I0
g53
tp66
a(I0
g51
tp67
a(I0
g51
tp68
a(I0
g53
tp69
a(I0
g53
tp70
a(I0
g51
tp71
a(I0
g53
tp72
a(I0
g51
tp73
a(I0
g63
tp74
a(I0
g53
tp75
a(I0
g51
tp76
a(I0
g53
tp77
a(I0
g51
tp78
a(I0
g53
tp79
a(I0
g51
tp80
a(I0
g53
tp81
a(I0
g51
tp82
a(I0
g53
tp83
a(I0
g51
tp84
a(I0
g53
tp85
a(I0
g51
tp86
a(I0
g53
tp87
a(I0
g51
tp88
a(I0
g53
tp89
a(I0
g51
tp90
a(I0
g53
tp91
a(I0
g51
tp92
a(I0
g53
tp93
a(I0
g51
tp94
a(I0
g53
tp95
a(I0
g51
tp96
a(I0
g53
tp97
a(I0
g51
tp98
a(I0
g53
tp99
a(I0
g51
tp100
a(I0
g53
tp101
a(I0
g51
tp102
a(I0
g53
tp103
a(I0
g51
tp104
a(I0
g53
tp105
a(I0
g63
tp106
a(I0
g63
tp107
a(I0
g51
tp108
a(I0
g53
tp109
a(I0
g51
tp110
a(I0
g53
tp111
a(I0
g51
tp112
a(I0
g53
tp113
a(I0
g51
tp114
a(I0
g53
tp115
a(I0
g51
tp116
a(I0
g53
tp117
a(I0
g63
tp118
a(I0
g51
tp119
a(I0
g53
tp120
a(I0
g51
tp121
a(I0
g53
tp122
a(I0
g51
tp123
a(I0
g53
tp124
a(I0
g51
tp125
a(I0
g53
tp126
a(I0
g51
tp127
a(I0
g53
tp128
a(I0
g51
tp129
a(I0
g53
tp130
a(I0
g51
tp131
a(I0
g53
tp132
a(I0
g51
tp133
a(I0
g53
tp134
a(I0
g51
tp135
a(I0
g53
tp136
a(I0
g51
tp137
a(I0
g53
tp138
a(I0
g51
tp139
a(I0
g53
tp140
a(I0
g51
tp141
a(I0
g53
tp142
a(I0
g51
tp143
a(I0
g53
tp144
a(I0
g51
tp145
a(I0
g53
tp146
a(I0
g51
tp147
a(I0
g53
tp148
a(I0
g51
tp149
a(I0
g53
tp150
a(I0
g51
tp151
a(I0
g53
tp152
a(I0
g51
tp153
a(I0
g53
tp154
a(I0
g51
tp155
a(I0
g53
tp156
a(I0
g51
tp157
a(I0
g53
tp158
a(I0
g63
tp159
a(I0
g51
tp160
a(I0
g53
tp161
a(I0
g51
tp162
a(I0
g53
tp163
a(I0
g51
tp164
a(I0
g53
tp165
a(I0
g51
tp166
a(I0
g53
tp167
a(I0
g51
tp168
a(I0
g63
tp169
a(I0
g53
tp170
a(I0
g51
tp171
a(I0
g53
tp172
a(I0
g51
tp173
a(I0
g53
tp174
a(I0
g51
tp175
a(I0
g53
tp176
a(I0
g51
tp177
a(I0
g53
tp178
a(I0
g51
tp179
a(I0
g53
tp180
a(I0
g51
tp181
a(I0
g53
tp182
a(I0
g51
tp183
a(I0
g53
tp184
a(I0
g51
tp185
a(I0
g53
tp186
a(I0
g51
tp187
a(I0
g51
tp188
a(I0
g53
tp189
a(I0
g53
tp190
a(I0
g51
tp191
a(I0
g53
tp192
a(I0
g51
tp193
a(I0
g53
tp194
a(I0
g51
tp195
a(I0
g53
tp196
a(I0
g51
tp197
a(I0
g53
tp198
a(I0
g51
tp199
a(I0
g53
tp200
a(I0
g51
tp201
a(I0
g51
tp202
a(I0
g53
tp203
a(I0
g53
tp204
a(I0
g51
tp205
a(I0
g53
tp206
a(I0
g51
tp207
a(I0
g53
tp208
a(I0
g51
tp209
a(I0
g53
tp210
a(I0
g51
tp211
a(I0
g53
tp212
a(I0
g51
tp213
a(I0
g53
tp214
a(I0
g51
tp215
a(I0
g53
tp216
a(I0
g51
tp217
a(I0
g53
tp218
a(I0
g51
tp219
a(I0
g53
tp220
a(I0
g51
tp221
a(I0
g53
tp222
a(I0
g51
tp223
a(I0
g53
tp224
a(I0
g51
tp225
a(I0
g53
tp226
a(I0
g51
tp227
a(I0
g53
tp228
a(I0
g51
tp229
a(I0
g53
tp230
a(I0
g51
tp231
a(I0
g53
tp232
a(I0
g51
tp233
a(I0
g53
tp234
a(I0
g51
tp235
a(I0
g53
tp236
a(I0
g51
tp237
a(I0
g53
tp238
a(I0
g51
tp239
a(I0
g53
tp240
a(I0
g51
tp241
a(I0
g53
tp242
a(I0
g51
tp243
a(I0
g53
tp244
a(I0
g51
tp245
a(I0
g53
tp246
a(I0
g51
tp247
a(I0
g63
tp248
a(I0
g53
tp249
a(I0
g51
tp250
a(I0
g53
tp251
a(I0
g51
tp252
a(I0
g53
tp253
a(I0
g51
tp254
a(I0
g53
tp255
a(I0
g51
tp256
a(I0
g53
tp257
a(I0
g51
tp258
a(I0
g53
tp259
a(I0
g51
tp260
a(I0
g53
tp261
a(I0
g51
tp262
a(I0
g53
tp263
a(I0
g51
tp264
a(I0
g53
tp265
a(I0
S'South'
p266
tp267
a(I0
g63
tp268
a(I0
g63
tp269
a(I0
g63
tp270
a(I0
g63
tp271
a(I0
g63
tp272
a(I0
g63
tp273
a(I0
S'North'
p274
tp275
a(I0
g63
tp276
a(I0
g63
tp277
a(I0
g63
tp278
a(I0
g63
tp279
a(I0
g63
tp280
a(I0
g63
tp281
a(I0
g63
tp282
a(I0
g63
tp283
a(I0
g63
tp284
a(I0
g63
tp285
a(I0
g63
tp286
a(I0
g63
tp287
a(I0
g63
tp288
a(I0
g63
tp289
a(I0
g63
tp290
a(I0
g63
tp291
a(I0
g63
tp292
a(I0
g63
tp293
a(I0
g63
tp294
a(I0
g266
tp295
a(I0
g274
tp296
a(I0
g63
tp297
a(I0
g63
tp298
a(I0
g63
tp299
a(I0
g63
tp300
a(I0
g63
tp301
a(I0
g266
tp302
a(I0
g274
tp303
a(I0
g63
tp304
a(I0
g63
tp305
a(I0
g63
tp306
a(I0
g63
tp307
a(I0
g63
tp308
a(I0
g63
tp309
a(I0
g63
tp310
a(I0
g63
tp311
a(I0
g63
tp312
a(I0
g63
tp313
a(I0
g63
tp314
a(I0
g63
tp315
a(I0
g63
tp316
a(I0
g63
tp317
a(I0
g63
tp318
a(I0
g63
tp319
a(I0
g63
tp320
a(I0
g63
tp321
a(I0
g63
tp322
a(I0
g63
tp323
a(I0
g63
tp324
a(I0
g63
tp325
a(I0
g63
tp326
a(I0
g63
tp327
a(I0
g63
tp328
a(I0
g63
tp329
a(I0
g63
tp330
a(I0
g63
tp331
a(I0
g63
tp332
a(I0
g63
tp333
a(I0
g63
tp334
a(I0
g63
tp335
a(I0
g63
tp336
a(I0
g63
tp337
a(I0
g63
tp338
a(I0
g63
tp339
a(I0
g63
tp340
a(I0
g63
tp341
a(I0
g63
tp342
a(I0
g63
tp343
a(I0
g63
tp344
a(I0
g63
tp345
a(I0
g63
tp346
a(I0
g63
tp347
a(I0
g63
tp348
a(I0
g63
tp349
a(I0
g63
tp350
a(I0
g63
tp351
a(I0
g51
tp352
a(I0
g53
tp353
a(I0
g63
tp354
a(I0
g63
tp355
a(I0
g63
tp356
a(I0
g63
tp357
a(I0
g63
tp358
a(I0
g63
tp359
a(I0
g63
tp360
a(I0
g63
tp361
a(I0
g63
tp362
a(I0
g63
tp363
a(I0
g63
tp364
a(I0
g63
tp365
a(I0
g63
tp366
a(I0
g63
tp367
a(I0
g266
tp368
a(I0
g266
tp369
a(I0
g63
tp370
a(I0
g63
tp371
a(I0
g63
tp372
a(I0
g63
tp373
a(I0
g63
tp374
a(I0
g63
tp375
a(I0
g63
tp376
a(I0
g63
tp377
a(I0
g63
tp378
a(I0
g63
tp379
a(I0
g63
tp380
a(I0
g266
tp381
a(I0
g63
tp382
a(I0
g63
tp383
a(I0
g63
tp384
a(I0
g63
tp385
a(I0
g63
tp386
a(I0
g63
tp387
a(I0
g63
tp388
a(I0
g63
tp389
a(I0
g63
tp390
a(I0
g63
tp391
a(I0
g63
tp392
a(I0
g63
tp393
a(I0
g63
tp394
a(I0
g63
tp395
a(I0
g63
tp396
a(I0
g63
tp397
a(I0
g63
tp398
a(I0
g63
tp399
a(I0
g63
tp400
a(I0
g63
tp401
a(I0
g63
tp402
a(I0
g63
tp403
a(I0
g63
tp404
a(I0
g63
tp405
a(I0
g63
tp406
a(I0
g63
tp407
a(I0
g63
tp408
a(I0
g63
tp409
a(I0
g63
tp410
a(I0
g63
tp411
a(I0
g63
tp412
a(I0
g63
tp413
a(I0
g63
tp414
a(I0
g63
tp415
a(I0
g63
tp416
a(I0
g63
tp417
a(I0
g63
tp418
a(I0
g63
tp419
a(I0
g63
tp420
a(I0
g63
tp421
a(I0
g63
tp422
a(I0
g266
tp423
a(I0
g63
tp424
a(I0
g63
tp425
a(I0
g63
tp426
a(I0
g63
tp427
a(I0
g63
tp428
a(I0
g63
tp429
a(I0
g63
tp430
a(I0
g63
tp431
a(I0
g63
tp432
a(I0
g63
tp433
a(I0
g63
tp434
a(I0
g63
tp435
a(I0
g63
tp436
a(I0
g63
tp437
a(I0
g63
tp438
a(I0
g63
tp439
a(I0
g63
tp440
a(I0
g63
tp441
a(I0
g63
tp442
a(I0
g63
tp443
a(I0
g63
tp444
a(I0
g63
tp445
a(I0
g63
tp446
a(I0
g63
tp447
a(I0
g63
tp448
a(I0
g63
tp449
a(I0
g63
tp450
a(I0
g63
tp451
a(I0
g63
tp452
a(I0
g63
tp453
a(I0
g63
tp454
a(I0
g63
tp455
a(I0
g63
tp456
a(I0
g63
tp457
a(I0
g63
tp458
a(I0
g63
tp459
a(I0
g63
tp460
a(I0
g63
tp461
a(I0
g63
tp462
a(I0
g63
tp463
a(I0
g63
tp464
a(I0
g63
tp465
a(I0
g63
tp466
a(I0
g63
tp467
a(I0
g63
tp468
a(I0
g63
tp469
a(I0
g274
tp470
a(I0
g63
tp471
a(I0
g63
tp472
a(I0
g63
tp473
a(I0
g63
tp474
a(I0
g63
tp475
a(I0
g63
tp476
a(I0
g63
tp477
a(I0
g63
tp478
a(I0
g63
tp479
a(I0
g63
tp480
a(I0
g63
tp481
a(I0
g63
tp482
a(I0
g63
tp483
a(I0
g63
tp484
a(I0
g63
tp485
a(I0
g63
tp486
a(I0
g63
tp487
a(I0
g63
tp488
a(I0
g63
tp489
a(I0
g63
tp490
a(I0
g63
tp491
a(I0
g63
tp492
a(I0
g63
tp493
a(I0
g63
tp494
a(I0
g63
tp495
a(I0
g63
tp496
a(I0
g63
tp497
a(I0
g63
tp498
a(I0
g63
tp499
a(I0
g63
tp500
a(I0
g63
tp501
a(I0
g63
tp502
a(I0
g63
tp503
a(I0
g266
tp504
a(I0
g51
tp505
a(I0
g53
tp506
a(I0
g63
tp507
a(I0
g63
tp508
a(I0
g63
tp509
a(I0
g63
tp510
a(I0
g63
tp511
a(I0
g63
tp512
a(I0
g63
tp513
a(I0
g63
tp514
a(I0
g63
tp515
a(I0
g63
tp516
a(I0
g63
tp517
a(I0
g63
tp518
a(I0
g63
tp519
a(I0
g63
tp520
a(I0
g51
tp521
a(I0
g53
tp522
a(I0
g63
tp523
a(I0
g63
tp524
a(I0
g63
tp525
a(I0
g63
tp526
a(I0
g63
tp527
a(I0
g63
tp528
a(I0
g63
tp529
a(I0
g63
tp530
a(I0
g63
tp531
a(I0
g63
tp532
a(I0
g63
tp533
a(I0
g63
tp534
a(I0
g63
tp535
a(I0
g63
tp536
a(I0
g63
tp537
a(I0
g63
tp538
a(I0
g63
tp539
a(I0
g63
tp540
a(I0
g63
tp541
a(I0
g274
tp542
a(I0
g274
tp543
a(I0
g63
tp544
a(I0
g63
tp545
a(I0
g63
tp546
a(I0
g63
tp547
a(I0
g63
tp548
a(I0
g63
tp549
a(I0
g266
tp550
a(I0
g63
tp551
a(I0
g63
tp552
a(I0
g63
tp553
a(I0
g63
tp554
a(I0
g63
tp555
a(I0
g63
tp556
a(I0
g63
tp557
a(I0
g63
tp558
a(I0
g63
tp559
a(I0
g63
tp560
a(I0
g63
tp561
a(I0
g63
tp562
a(I0
g63
tp563
a(I0
g63
tp564
a(I0
g63
tp565
a(I0
g63
tp566
a(I0
g63
tp567
a(I0
g63
tp568
a(I0
g63
tp569
a(I0
g63
tp570
a(I0
g63
tp571
a(I0
g63
tp572
a(I0
g63
tp573
a(I0
g63
tp574
a(I0
g63
tp575
a(I0
g63
tp576
a(I0
g63
tp577
a(I0
g63
tp578
a(I0
g63
tp579
a(I0
g63
tp580
a(I0
g63
tp581
a(I0
g63
tp582
a(I0
g63
tp583
a(I0
g63
tp584
a(I0
g63
tp585
a(I0
g63
tp586
a(I0
g63
tp587
a(I0
g63
tp588
a(I0
g63
tp589
a(I0
g63
tp590
a(I0
g63
tp591
a(I0
g63
tp592
a(I0
g63
tp593
a(I0
g63
tp594
a(I0
g63
tp595
a(I0
g63
tp596
a(I0
g63
tp597
a(I0
g63
tp598
a(I0
g63
tp599
a(I0
g63
tp600
a(I0
g63
tp601
a(I0
g63
tp602
a(I0
g63
tp603
a(I0
g63
tp604
a(I0
g63
tp605
a(I0
g63
tp606
a(I0
g63
tp607
a(I0
g274
tp608
a(I0
g63
tp609
a(I0
g266
tp610
a(I0
g63
tp611
a(I0
g63
tp612
a(I0
g63
tp613
a(I0
g63
tp614
a(I0
g63
tp615
a(I0
g63
tp616
a(I0
g63
tp617
a(I0
g63
tp618
a(I0
g63
tp619
a(I0
g63
tp620
a(I0
g63
tp621
a(I0
g63
tp622
a(I0
g63
tp623
a(I0
g63
tp624
a(I0
g63
tp625
a(I0
g63
tp626
a(I0
g63
tp627
a(I0
g63
tp628
a(I0
g266
tp629
a(I0
g63
tp630
a(I0
g63
tp631
a(I0
g63
tp632
a(I0
g63
tp633
a(I0
g63
tp634
a(I0
g63
tp635
a(I0
g63
tp636
a(I0
g63
tp637
a(I0
g63
tp638
a(I0
g63
tp639
a(I0
g63
tp640
a(I0
g63
tp641
a(I0
g63
tp642
a(I0
g63
tp643
a(I0
g63
tp644
a(I0
g63
tp645
a(I0
g63
tp646
a(I0
g63
tp647
a(I0
g63
tp648
a(I0
g63
tp649
a(I0
g63
tp650
a(I0
g63
tp651
a(I0
g63
tp652
a(I0
g63
tp653
a(I0
g63
tp654
a(I0
g63
tp655
a(I0
g63
tp656
a(I0
g63
tp657
a(I0
g63
tp658
a(I0
g63
tp659
a(I0
g63
tp660
a(I0
g63
tp661
a(I0
g63
tp662
a(I0
g63
tp663
a(I0
g63
tp664
a(I0
g63
tp665
a(I0
g63
tp666
a(I0
g63
tp667
a(I0
g63
tp668
a(I0
g63
tp669
a(I0
g51
tp670
a(I0
g53
tp671
a(I0
g63
tp672
a(I0
g63
tp673
a(I0
g63
tp674
a(I0
g63
tp675
a(I0
g63
tp676
a(I0
g63
tp677
a(I0
g63
tp678
a(I0
g63
tp679
a(I0
g63
tp680
a(I0
g63
tp681
a(I0
g63
tp682
a(I0
g63
tp683
a(I0
g63
tp684
a(I0
g63
tp685
a(I0
g63
tp686
a(I0
g63
tp687
a(I0
g63
tp688
a(I0
g63
tp689
a(I0
g63
tp690
a(I0
g63
tp691
a(I0
g63
tp692
a(I0
g63
tp693
a(I0
g63
tp694
a(I0
g63
tp695
a(I0
g63
tp696
a(I0
g63
tp697
a(I0
g63
tp698
a(I0
g63
tp699
a(I0
g63
tp700
a(I0
g63
tp701
a(I0
g63
tp702
a(I0
g63
tp703
a(I0
g63
tp704
a(I0
g63
tp705
a(I0
g63
tp706
a(I0
g63
tp707
a(I0
g63
tp708
a(I0
g274
tp709
a(I0
g63
tp710
a(I0
g63
tp711
a(I0
g63
tp712
a(I0
g63
tp713
a(I0
g63
tp714
a(I0
g63
tp715
a(I0
g63
tp716
a(I0
g63
tp717
a(I0
g63
tp718
a(I0
g63
tp719
a(I0
g63
tp720
a(I0
g63
tp721
a(I0
g63
tp722
a(I0
g63
tp723
a(I0
g63
tp724
a(I0
g63
tp725
a(I0
g63
tp726
a(I0
g63
tp727
a(I0
g63
tp728
a(I0
g63
tp729
a(I0
g63
tp730
a(I0
g63
tp731
a(I0
g63
tp732
a(I0
g63
tp733
a(I0
g63
tp734
a(I0
g63
tp735
a(I0
g63
tp736
a(I0
g63
tp737
a(I0
g63
tp738
a(I0
g63
tp739
a(I0
g63
tp740
a(I0
g63
tp741
a(I0
g63
tp742
a(I0
g63
tp743
a(I0
g63
tp744
a(I0
g63
tp745
a(I0
g274
tp746
a(I0
g63
tp747
a(I0
g63
tp748
a(I0
g63
tp749
a(I0
g63
tp750
a(I0
g63
tp751
a(I0
g63
tp752
a(I0
g63
tp753
a(I0
g63
tp754
a(I0
g63
tp755
a(I0
g63
tp756
a(I0
g63
tp757
a(I0
g63
tp758
a(I0
g63
tp759
a(I0
g63
tp760
a(I0
g63
tp761
a(I0
g63
tp762
a(I0
g63
tp763
a(I0
g63
tp764
a(I0
g63
tp765
a(I0
g63
tp766
a(I0
g63
tp767
a(I0
g63
tp768
a(I0
g63
tp769
a(I0
g63
tp770
a(I0
g63
tp771
a(I0
g63
tp772
a(I0
g63
tp773
a(I0
g63
tp774
a(I0
g63
tp775
a(I0
g63
tp776
a(I0
g63
tp777
a(I0
g63
tp778
a(I0
g63
tp779
a(I0
g63
tp780
a(I0
g63
tp781
a(I0
g63
tp782
a(I0
g63
tp783
a(I0
g63
tp784
a(I0
g63
tp785
a(I0
g63
tp786
a(I0
g63
tp787
a(I0
g63
tp788
a(I0
g63
tp789
a(I0
g63
tp790
a(I0
g63
tp791
a(I0
g63
tp792
a(I0
g63
tp793
a(I0
g63
tp794
a(I0
g63
tp795
a(I0
g63
tp796
a(I0
g63
tp797
a(I0
g63
tp798
a(I0
g63
tp799
a(I0
g63
tp800
a(I0
g63
tp801
a(I0
g63
tp802
a(I0
g63
tp803
a(I0
g63
tp804
a(I0
g63
tp805
a(I0
g63
tp806
a(I0
g63
tp807
a(I0
g63
tp808
a(I0
g63
tp809
a(I0
g63
tp810
a(I0
g63
tp811
a(I0
g63
tp812
a(I0
g63
tp813
a(I0
g63
tp814
a(I0
g63
tp815
a(I0
g63
tp816
a(I0
g63
tp817
a(I0
g63
tp818
a(I0
g63
tp819
a(I0
g63
tp820
a(I0
g63
tp821
a(I0
g63
tp822
a(I0
g63
tp823
a(I0
g63
tp824
a(I0
g63
tp825
a(I0
g63
tp826
a(I0
g63
tp827
a(I0
g63
tp828
a(I0
g63
tp829
a(I0
g63
tp830
a(I0
g63
tp831
a(I0
g63
tp832
a(I0
g63
tp833
a(I0
g63
tp834
a(I0
g63
tp835
a(I0
g63
tp836
a(I0
g63
tp837
a(I0
g63
tp838
a(I0
g63
tp839
a(I0
g63
tp840
a(I0
g63
tp841
a(I0
g63
tp842
a(I0
g63
tp843
a(I0
g63
tp844
a(I0
g63
tp845
a(I0
g63
tp846
a(I0
g63
tp847
a(I0
g63
tp848
a(I0
g63
tp849
a(I0
g63
tp850
a(I0
g63
tp851
a(I0
g63
tp852
a(I0
g63
tp853
a(I0
g63
tp854
a(I0
g63
tp855
a(I0
g63
tp856
a(I0
g63
tp857
a(I0
g63
tp858
a(I0
g63
tp859
a(I0
g63
tp860
a(I0
g63
tp861
a(I0
g63
tp862
a(I0
g63
tp863
a(I0
g63
tp864
a(I0
g63
tp865
a(I0
g63
tp866
a(I0
g63
tp867
a(I0
g63
tp868
a(I0
g63
tp869
a(I0
g63
tp870
a(I0
g63
tp871
a(I0
g63
tp872
a(I0
g63
tp873
a(I0
g63
tp874
a(I0
g63
tp875
a(I0
g63
tp876
a(I0
g63
tp877
a(I0
g63
tp878
a(I0
g63
tp879
a(I0
g63
tp880
a(I0
g63
tp881
a(I0
g274
tp882
a(I0
g63
tp883
a(I0
g63
tp884
a(I0
g63
tp885
a(I0
g63
tp886
a(I0
g63
tp887
a(I0
g63
tp888
a(I0
g266
tp889
a(I0
g63
tp890
a(I0
g63
tp891
a(I0
g63
tp892
a(I0
g63
tp893
a(I0
g63
tp894
a(I0
g63
tp895
a(I0
g63
tp896
a(I0
g63
tp897
a(I0
g63
tp898
a(I0
g63
tp899
a(I0
g63
tp900
a(I0
g63
tp901
a(I0
g63
tp902
a(I0
g63
tp903
a(I0
g63
tp904
a(I0
g63
tp905
a(I0
g63
tp906
a(I0
g63
tp907
a(I0
g63
tp908
a(I0
g63
tp909
a(I0
g63
tp910
a(I0
g63
tp911
a(I0
g63
tp912
a(I0
g63
tp913
a(I0
g63
tp914
a(I0
g63
tp915
a(I0
g63
tp916
a(I0
g63
tp917
a(I0
g63
tp918
a(I0
g63
tp919
a(I0
g63
tp920
a(I0
g63
tp921
a(I0
g63
tp922
a(I0
g63
tp923
a(I0
g63
tp924
a(I0
g63
tp925
a(I0
g63
tp926
a(I0
g63
tp927
a(I0
g63
tp928
a(I0
g63
tp929
a(I0
g63
tp930
a(I0
g63
tp931
a(I0
g63
tp932
a(I0
g63
tp933
a(I0
g63
tp934
a(I0
g63
tp935
a(I0
g63
tp936
a(I0
g63
tp937
a(I0
g63
tp938
a(I0
g63
tp939
a(I0
g63
tp940
a(I0
g63
tp941
a(I0
g63
tp942
a(I0
g63
tp943
a(I0
g63
tp944
a(I0
g63
tp945
a(I0
g63
tp946
a(I0
g63
tp947
a(I0
g63
tp948
a(I0
g63
tp949
a(I0
g274
tp950
a(I0
g63
tp951
a(I0
g63
tp952
a(I0
g63
tp953
a(I0
g63
tp954
a(I0
g63
tp955
a(I0
g63
tp956
a(I0
g63
tp957
a(I0
g63
tp958
a(I0
g63
tp959
a(I0
g63
tp960
a(I0
g63
tp961
a(I0
g63
tp962
a(I0
g63
tp963
a(I0
g63
tp964
a(I0
g63
tp965
a(I0
g63
tp966
a(I0
g63
tp967
a(I0
g274
tp968
a(I0
g63
tp969
a(I0
g63
tp970
a(I0
g63
tp971
a(I0
g63
tp972
a(I0
g63
tp973
a(I0
g51
tp974
a(I0
g53
tp975
a(I0
g63
tp976
a(I0
g63
tp977
a(I0
g63
tp978
a(I0
g63
tp979
a(I0
g63
tp980
a(I0
g63
tp981
a(I0
g63
tp982
a(I0
g63
tp983
a(I0
g63
tp984
a(I0
g63
tp985
a(I0
g63
tp986
a(I0
g51
tp987
a(I0
g53
tp988
a(I0
g63
tp989
a(I0
g63
tp990
a(I0
g63
tp991
a(I0
g63
tp992
a(I0
g63
tp993
a(I0
g63
tp994
a(I0
g63
tp995
a(I0
g63
tp996
a(I0
g63
tp997
a(I0
g63
tp998
a(I0
g63
tp999
a(I0
g63
tp1000
a(I0
g63
tp1001
a(I0
g63
tp1002
a(I0
g63
tp1003
a(I0
g63
tp1004
a(I0
g63
tp1005
a(I0
g63
tp1006
a(I0
g63
tp1007
a(I0
g63
tp1008
a(I0
g63
tp1009
a(I0
g63
tp1010
a(I0
g63
tp1011
a(I0
g63
tp1012
a(I0
g63
tp1013
a(I0
g63
tp1014
a(I0
g63
tp1015
a(I0
g63
tp1016
a(I0
g63
tp1017
a(I0
g63
tp1018
a(I0
g63
tp1019
a(I0
g63
tp1020
a(I0
g63
tp1021
a(I0
g63
tp1022
a(I0
g63
tp1023
a(I0
g63
tp1024
a(I0
g63
tp1025
a(I0
g63
tp1026
a(I0
g63
tp1027
a(I0
g63
tp1028
a(I0
g63
tp1029
a(I0
g63
tp1030
a(I0
g63
tp1031
a(I0
g63
tp1032
a(I0
g63
tp1033
a(I0
g63
tp1034
a(I0
g266
tp1035
a(I0
g63
tp1036
a(I0
g63
tp1037
a(I0
g63
tp1038
a(I0
g63
tp1039
a(I0
g63
tp1040
a(I0
g63
tp1041
a(I0
g63
tp1042
a(I0
g63
tp1043
a(I0
g63
tp1044
a(I0
g63
tp1045
a(I0
g63
tp1046
a(I0
g63
tp1047
a(I0
g63
tp1048
a(I0
g63
tp1049
a(I0
g63
tp1050
a(I0
g63
tp1051
a(I0
g63
tp1052
a(I0
g63
tp1053
a(I0
g63
tp1054
a(I0
g63
tp1055
a(I0
g63
tp1056
a(I0
g63
tp1057
a(I0
g63
tp1058
a(I0
g63
tp1059
a(I0
g63
tp1060
a(I0
g63
tp1061
a(I0
g63
tp1062
a(I0
g63
tp1063
a(I0
g63
tp1064
a(I0
g63
tp1065
a(I0
g63
tp1066
a(I0
g63
tp1067
a(I0
g63
tp1068
a(I0
g63
tp1069
a(I0
g63
tp1070
a(I0
g63
tp1071
a(I0
g63
tp1072
a(I0
g63
tp1073
a(I0
g63
tp1074
a(I0
g63
tp1075
a(I0
g63
tp1076
a(I0
g63
tp1077
a(I0
g63
tp1078
a(I0
g63
tp1079
a(I0
g63
tp1080
a(I0
g63
tp1081
a(I0
g63
tp1082
a(I0
g63
tp1083
a(I0
g63
tp1084
a(I0
g63
tp1085
a(I0
g63
tp1086
a(I0
g63
tp1087
a(I0
g63
tp1088
a(I0
g63
tp1089
a(I0
g63
tp1090
a(I0
g63
tp1091
a(I0
g63
tp1092
a(I0
g63
tp1093
a(I0
g63
tp1094
a(I0
g63
tp1095
a(I0
g63
tp1096
a(I0
g63
tp1097
a(I0
g63
tp1098
a(I0
g63
tp1099
a(I0
g63
tp1100
a(I0
g63
tp1101
a(I0
g63
tp1102
a(I0
g63
tp1103
a(I0
g266
tp1104
a(I0
g274
tp1105
a(I0
g63
tp1106
a(I0
g63
tp1107
a(I0
g63
tp1108
a(I0
g63
tp1109
a(I0
g63
tp1110
a(I0
g63
tp1111
a(I0
g63
tp1112
a(I0
g63
tp1113
a(I0
g63
tp1114
a(I0
g63
tp1115
a(I0
g63
tp1116
a(I0
g63
tp1117
a(I0
g63
tp1118
a(I0
g63
tp1119
a(I0
g63
tp1120
a(I0
g63
tp1121
a(I0
g63
tp1122
a(I0
g63
tp1123
a(I0
g63
tp1124
a(I0
g63
tp1125
a(I0
g63
tp1126
a(I0
g63
tp1127
a(I0
g63
tp1128
a(I0
g63
tp1129
a(I0
g63
tp1130
a(I0
g63
tp1131
a(I0
g63
tp1132
a(I0
g63
tp1133
a(I0
g63
tp1134
a(I0
g63
tp1135
a(I0
g63
tp1136
a(I0
g63
tp1137
a(I0
g63
tp1138
a(I0
g63
tp1139
a(I0
g63
tp1140
a(I0
g63
tp1141
a(I0
g63
tp1142
a(I0
g274
tp1143
a(I0
g63
tp1144
a(I0
g63
tp1145
a(I0
g63
tp1146
a(I0
g63
tp1147
a(I0
g63
tp1148
a(I0
g63
tp1149
a(I0
g63
tp1150
a(I0
g63
tp1151
a(I0
g63
tp1152
a(I0
g63
tp1153
a(I0
g63
tp1154
a(I0
g63
tp1155
a(I0
g63
tp1156
a(I0
g63
tp1157
a(I0
g63
tp1158
a(I0
g63
tp1159
a(I0
g63
tp1160
a(I0
g63
tp1161
a(I0
g63
tp1162
a(I0
g63
tp1163
a(I0
g63
tp1164
a(I0
g63
tp1165
a(I0
g63
tp1166
a(I0
g63
tp1167
a(I0
g63
tp1168
a(I0
g63
tp1169
a(I0
g63
tp1170
a(I0
g63
tp1171
a(I0
g63
tp1172
a(I0
g63
tp1173
a(I0
g63
tp1174
a(I0
g63
tp1175
a(I0
g266
tp1176
a(I0
g63
tp1177
a(I0
g63
tp1178
a(I0
g63
tp1179
a(I0
g63
tp1180
a(I0
g63
tp1181
a(I0
g63
tp1182
a(I0
g63
tp1183
a(I0
g63
tp1184
a(I0
g63
tp1185
a(I0
g63
tp1186
a(I0
g63
tp1187
a(I0
g63
tp1188
a(I0
g63
tp1189
a(I0
g63
tp1190
a(I0
g63
tp1191
a(I0
g63
tp1192
a(I0
g63
tp1193
a(I0
g63
tp1194
a(I0
g63
tp1195
a(I0
g63
tp1196
a(I0
g63
tp1197
a(I0
g63
tp1198
a(I0
g63
tp1199
a(I0
g63
tp1200
a(I0
g63
tp1201
a(I0
g63
tp1202
a(I0
g63
tp1203
a(I0
g63
tp1204
a(I0
g63
tp1205
a(I0
g63
tp1206
a(I0
g63
tp1207
a(I0
g63
tp1208
a(I0
g63
tp1209
a(I0
g63
tp1210
a(I0
g63
tp1211
a(I0
g63
tp1212
a(I0
g63
tp1213
a(I0
g63
tp1214
a(I0
g63
tp1215
a(I0
g63
tp1216
a(I0
g63
tp1217
a(I0
g63
tp1218
a(I0
g63
tp1219
a(I0
g63
tp1220
a(I0
g63
tp1221
a(I0
g63
tp1222
a(I0
g63
tp1223
a(I0
g63
tp1224
a(I0
g63
tp1225
a(I0
g63
tp1226
a(I0
g63
tp1227
a(I0
g63
tp1228
a(I0
g63
tp1229
a(I0
g63
tp1230
a(I0
g63
tp1231
a(I0
g63
tp1232
a(I0
g63
tp1233
a(I0
g63
tp1234
a(I0
g274
tp1235
a(I0
g63
tp1236
a(I0
g63
tp1237
a(I0
g63
tp1238
a(I0
g63
tp1239
a(I0
g63
tp1240
a(I0
g63
tp1241
a(I0
g63
tp1242
a(I0
g63
tp1243
a(I0
g63
tp1244
a(I0
g63
tp1245
a(I0
g63
tp1246
a(I0
g63
tp1247
a(I0
g63
tp1248
a(I0
g63
tp1249
a(I0
g63
tp1250
a(I0
g63
tp1251
a(I0
g63
tp1252
a(I0
g63
tp1253
a(I0
g63
tp1254
a(I0
g63
tp1255
a(I0
g63
tp1256
a(I0
g63
tp1257
a(I0
g63
tp1258
a(I0
g63
tp1259
a(I0
g63
tp1260
a(I0
g63
tp1261
a(I0
g63
tp1262
a(I0
g63
tp1263
a(I0
g63
tp1264
a(I0
g63
tp1265
a(I0
g63
tp1266
a(I0
g63
tp1267
a(I0
g63
tp1268
a(I0
g63
tp1269
a(I0
g63
tp1270
a(I0
g63
tp1271
a(I0
g63
tp1272
a(I0
g63
tp1273
a(I0
g63
tp1274
a(I0
g63
tp1275
a(I0
g63
tp1276
a(I0
g63
tp1277
a(I0
g63
tp1278
a(I0
g63
tp1279
a(I0
g63
tp1280
a(I0
g63
tp1281
a(I0
g51
tp1282
a(I0
g53
tp1283
a(I0
g63
tp1284
a(I0
g63
tp1285
a(I0
g63
tp1286
a(I0
g63
tp1287
a(I0
g63
tp1288
a(I0
g63
tp1289
a(I0
g63
tp1290
a(I0
g63
tp1291
a(I0
g63
tp1292
a(I0
g63
tp1293
a(I0
g63
tp1294
a(I0
g266
tp1295
a(I0
g63
tp1296
a(I0
g63
tp1297
a(I0
g63
tp1298
a(I0
g63
tp1299
a(I0
g63
tp1300
a(I0
g63
tp1301
a(I0
g63
tp1302
a(I0
g63
tp1303
a(I0
g63
tp1304
a(I0
g63
tp1305
a(I0
g63
tp1306
a(I0
g63
tp1307
a(I0
g63
tp1308
a(I0
g63
tp1309
a(I0
g63
tp1310
a(I0
g63
tp1311
a(I0
g63
tp1312
a(I0
g63
tp1313
a(I0
g63
tp1314
a(I0
g63
tp1315
a(I0
g63
tp1316
a(I0
g63
tp1317
a(I0
g63
tp1318
a(I0
g63
tp1319
a(I0
g63
tp1320
a(I0
g63
tp1321
a(I0
g63
tp1322
a(I0
g63
tp1323
a(I0
g63
tp1324
a(I0
g63
tp1325
a(I0
g63
tp1326
a(I0
g63
tp1327
a(I0
g63
tp1328
a(I0
g63
tp1329
a(I0
g63
tp1330
a(I0
g274
tp1331
a(I0
g63
tp1332
a(I0
g63
tp1333
a(I0
g63
tp1334
a(I0
g63
tp1335
a(I0
g63
tp1336
a(I0
g63
tp1337
a(I0
g63
tp1338
a(I0
g63
tp1339
a(I0
g63
tp1340
a(I0
g63
tp1341
a(I0
g266
tp1342
a(I0
g274
tp1343
a(I0
g63
tp1344
a(I0
g63
tp1345
a(I0
g63
tp1346
a(I0
g63
tp1347
a(I0
g63
tp1348
a(I0
g63
tp1349
a(I0
g63
tp1350
a(I0
g63
tp1351
a(I0
g63
tp1352
a(I0
g63
tp1353
a(I0
g63
tp1354
a(I0
g63
tp1355
a(I0
g63
tp1356
a(I0
g63
tp1357
a(I0
g63
tp1358
a(I0
g63
tp1359
a(I0
g63
tp1360
a(I0
g63
tp1361
a(I0
g63
tp1362
a(I0
g63
tp1363
a(I0
g63
tp1364
a(I0
g63
tp1365
a(I0
g63
tp1366
a(I0
g63
tp1367
a(I0
g63
tp1368
a(I0
g63
tp1369
a(I0
g63
tp1370
a(I0
g63
tp1371
a(I0
g63
tp1372
a(I0
g63
tp1373
a(I0
g63
tp1374
a(I0
g63
tp1375
a(I0
g63
tp1376
a(I0
g63
tp1377
a(I0
g63
tp1378
a(I0
g63
tp1379
a(I0
g63
tp1380
a(I0
g63
tp1381
a(I0
g63
tp1382
a(I0
g63
tp1383
a(I0
g63
tp1384
a(I0
g63
tp1385
a(I0
g63
tp1386
a(I0
g63
tp1387
a(I0
g63
tp1388
a(I0
g63
tp1389
a(I0
g63
tp1390
a(I0
g63
tp1391
a(I0
g63
tp1392
a(I0
g63
tp1393
a(I0
g63
tp1394
a(I0
g63
tp1395
a(I0
g63
tp1396
a(I0
g51
tp1397
a(I0
g53
tp1398
a(I0
g63
tp1399
a(I0
g63
tp1400
a(I0
g63
tp1401
a(I0
g63
tp1402
a(I0
g63
tp1403
a(I0
g63
tp1404
a(I0
g63
tp1405
a(I0
g63
tp1406
a(I0
g63
tp1407
a(I0
g63
tp1408
a(I0
g63
tp1409
a(I0
g63
tp1410
a(I0
g63
tp1411
a(I0
g266
tp1412
a(I0
g63
tp1413
a(I0
g63
tp1414
a(I0
g63
tp1415
a(I0
g63
tp1416
a(I0
g63
tp1417
a(I0
g63
tp1418
a(I0
g63
tp1419
a(I0
g63
tp1420
a(I0
g63
tp1421
a(I0
g63
tp1422
a(I0
g63
tp1423
a(I0
g63
tp1424
a(I0
g63
tp1425
a(I0
g63
tp1426
a(I0
g63
tp1427
a(I0
g63
tp1428
a(I0
g63
tp1429
a(I0
g63
tp1430
a(I0
g63
tp1431
a(I0
g63
tp1432
a(I0
g63
tp1433
a(I0
g63
tp1434
a(I0
g63
tp1435
a(I0
g63
tp1436
a(I0
g63
tp1437
a(I0
g63
tp1438
a(I0
g63
tp1439
a(I0
g63
tp1440
a(I0
g63
tp1441
a(I0
g63
tp1442
a(I0
g63
tp1443
a(I0
g63
tp1444
a(I0
g63
tp1445
a(I0
g63
tp1446
a(I0
g63
tp1447
a(I0
g63
tp1448
a(I0
g63
tp1449
a(I0
g63
tp1450
a(I0
g63
tp1451
a(I0
g63
tp1452
a(I0
g63
tp1453
a(I0
g63
tp1454
a(I0
g63
tp1455
a(I0
g63
tp1456
a(I0
g63
tp1457
a(I0
g63
tp1458
a(I0
g63
tp1459
a(I0
g63
tp1460
a(I0
g63
tp1461
a(I0
g63
tp1462
a(I0
g63
tp1463
a(I0
g63
tp1464
a(I0
g63
tp1465
a(I0
g63
tp1466
a(I0
g63
tp1467
a(I0
g63
tp1468
a(I0
g63
tp1469
a(I0
g63
tp1470
a(I0
g63
tp1471
a(I0
g63
tp1472
a(I0
g63
tp1473
a(I0
g63
tp1474
a(I0
g63
tp1475
a(I0
g63
tp1476
a(I0
g63
tp1477
a(I0
g63
tp1478
a(I0
g63
tp1479
a(I0
g63
tp1480
a(I0
g63
tp1481
a(I0
g63
tp1482
a(I0
g63
tp1483
a(I0
g63
tp1484
a(I0
g63
tp1485
a(I0
g63
tp1486
a(I0
g63
tp1487
a(I0
g63
tp1488
a(I0
g63
tp1489
a(I0
g63
tp1490
a(I0
g63
tp1491
a(I0
g63
tp1492
a(I0
g63
tp1493
a(I0
g63
tp1494
a(I0
g63
tp1495
a(I0
g63
tp1496
a(I0
g63
tp1497
a(I0
g63
tp1498
a(I0
g63
tp1499
a(I0
g63
tp1500
a(I0
g63
tp1501
a(I0
g63
tp1502
a(I0
g63
tp1503
a(I0
g63
tp1504
a(I0
g63
tp1505
a(I0
g63
tp1506
a(I0
g63
tp1507
a(I0
g63
tp1508
a(I0
g63
tp1509
a(I0
g63
tp1510
a(I0
g63
tp1511
a(I0
g274
tp1512
a(I0
g63
tp1513
a(I0
g63
tp1514
a(I0
g63
tp1515
a(I0
g63
tp1516
a(I0
g63
tp1517
a(I0
g63
tp1518
a(I0
g63
tp1519
a(I0
g266
tp1520
a(I0
g63
tp1521
a(I0
g63
tp1522
a(I0
g63
tp1523
a(I0
g63
tp1524
a(I0
g63
tp1525
a(I0
g63
tp1526
a(I0
g63
tp1527
a(I0
g63
tp1528
a(I0
g266
tp1529
a(I0
g63
tp1530
a(I0
g63
tp1531
a(I0
g63
tp1532
a(I0
g63
tp1533
a(I0
g63
tp1534
a(I0
g63
tp1535
a(I0
g266
tp1536
a(I0
g63
tp1537
a(I0
g63
tp1538
a(I0
g63
tp1539
a(I0
g63
tp1540
a(I0
g63
tp1541
a(I0
g266
tp1542
a(I0
g51
tp1543
a(I0
g53
tp1544
a(I0
g63
tp1545
a(I0
g63
tp1546
a(I0
g63
tp1547
a(I0
g63
tp1548
a(I0
g63
tp1549
a(I0
g63
tp1550
a(I0
g63
tp1551
a(I0
g63
tp1552
a(I0
g63
tp1553
a(I0
g274
tp1554
a(I0
g63
tp1555
a(I0
g63
tp1556
a(I0
g63
tp1557
a(I0
g63
tp1558
a(I0
g63
tp1559
a(I0
g63
tp1560
a(I0
g63
tp1561
a(I0
g63
tp1562
a(I0
g63
tp1563
a(I0
g63
tp1564
a(I0
g63
tp1565
a(I0
g63
tp1566
a(I0
g63
tp1567
a(I0
g63
tp1568
a(I0
g63
tp1569
a(I0
g63
tp1570
a(I0
g63
tp1571
a(I0
g274
tp1572
a(I0
g63
tp1573
a(I0
g63
tp1574
a(I0
g63
tp1575
a(I0
g63
tp1576
a(I0
g63
tp1577
a(I0
g63
tp1578
a(I0
g63
tp1579
a(I0
g63
tp1580
a(I0
g63
tp1581
a(I0
g63
tp1582
a(I0
g63
tp1583
a(I0
g63
tp1584
a(I0
g63
tp1585
a(I0
g63
tp1586
a(I0
g274
tp1587
a(I0
g274
tp1588
a(I0
g63
tp1589
a(I0
g63
tp1590
a(I0
g63
tp1591
a(I0
g63
tp1592
a(I0
g63
tp1593
a(I0
g63
tp1594
a(I0
g63
tp1595
a(I0
g63
tp1596
a(I0
g63
tp1597
a(I0
g63
tp1598
a(I0
g63
tp1599
a(I0
g63
tp1600
a(I0
g63
tp1601
a(I0
g63
tp1602
a(I0
g51
tp1603
a(I0
g53
tp1604
a(I0
g63
tp1605
a(I0
g63
tp1606
a(I0
g266
tp1607
a(I0
g63
tp1608
a(I0
g63
tp1609
a(I0
g63
tp1610
a(I0
g63
tp1611
a(I0
g63
tp1612
a(I0
g63
tp1613
a(I0
g63
tp1614
a(I0
g63
tp1615
a(I0
g63
tp1616
a(I0
g63
tp1617
a(I0
g63
tp1618
a(I0
g63
tp1619
a(I0
g274
tp1620
a(I0
g51
tp1621
a(I0
g53
tp1622
a(I0
g63
tp1623
a(I0
g63
tp1624
a(I0
g63
tp1625
a(I0
g51
tp1626
a(I0
g53
tp1627
a(I0
g51
tp1628
a(I0
g53
tp1629
a(I0
g51
tp1630
a(I0
g53
tp1631
a(I0
g51
tp1632
a(I0
g53
tp1633
a(I0
g51
tp1634
a(I0
g53
tp1635
a(I0
g51
tp1636
a(I0
g53
tp1637
a(I0
g51
tp1638
a(I0
g53
tp1639
a(I0
g63
tp1640
a(I0
g63
tp1641
a(I0
g63
tp1642
a(I0
g63
tp1643
a(I0
g63
tp1644
a(I0
g63
tp1645
a(I0
g63
tp1646
a(I0
g63
tp1647
a(I0
g63
tp1648
a(I0
g63
tp1649
a(I0
g63
tp1650
a(I0
g63
tp1651
a(I0
g63
tp1652
a(I0
g63
tp1653
a(I0
g63
tp1654
a(I0
g63
tp1655
a(I0
g63
tp1656
a(I0
g63
tp1657
a(I0
g63
tp1658
a(I0
g63
tp1659
a(I0
g63
tp1660
a(I0
g63
tp1661
a(I0
g63
tp1662
a(I0
g63
tp1663
a(I0
g63
tp1664
a(I0
g63
tp1665
a(I0
g63
tp1666
a(I0
g63
tp1667
a(I0
g63
tp1668
a(I0
g63
tp1669
a(I0
g63
tp1670
a(I0
g63
tp1671
a(I0
g63
tp1672
a(I0
g63
tp1673
a(I0
g63
tp1674
a(I0
g63
tp1675
a(I0
g63
tp1676
a(I0
g63
tp1677
a(I0
g63
tp1678
a(I0
g63
tp1679
a(I0
g63
tp1680
a(I0
g63
tp1681
a(I0
g63
tp1682
a(I0
g63
tp1683
a(I0
g63
tp1684
a(I0
g63
tp1685
a(I0
g63
tp1686
a(I0
g63
tp1687
a(I0
g63
tp1688
a(I0
g63
tp1689
a(I0
g63
tp1690
a(I0
g51
tp1691
a(I0
g53
tp1692
a(I0
g63
tp1693
a(I0
g63
tp1694
a(I0
g63
tp1695
a(I0
g63
tp1696
a(I0
g63
tp1697
a(I0
g63
tp1698
a(I0
g63
tp1699
a(I0
g63
tp1700
a(I0
g63
tp1701
a(I0
g63
tp1702
a(I0
g63
tp1703
a(I0
g63
tp1704
a(I0
g63
tp1705
a(I0
g63
tp1706
a(I0
g63
tp1707
a(I0
g63
tp1708
a(I0
g63
tp1709
a(I0
g63
tp1710
a(I0
g63
tp1711
a(I0
g63
tp1712
a(I0
g63
tp1713
a(I0
g63
tp1714
a(I0
g63
tp1715
a(I0
g63
tp1716
a(I0
g63
tp1717
a(I0
g63
tp1718
a(I0
g63
tp1719
a(I0
g63
tp1720
a(I0
g63
tp1721
a(I0
g63
tp1722
a(I0
g63
tp1723
a(I0
g63
tp1724
a(I0
g63
tp1725
a(I0
g63
tp1726
a(I0
g51
tp1727
a(I0
g53
tp1728
a(I0
g51
tp1729
a(I0
g53
tp1730
a(I0
g51
tp1731
a(I0
g53
tp1732
a(I0
g51
tp1733
a(I0
g53
tp1734
a(I0
g51
tp1735
a(I0
g53
tp1736
a(I0
g51
tp1737
a(I0
g53
tp1738
a(I0
g51
tp1739
a(I0
g53
tp1740
a(I0
g63
tp1741
a(I0
g63
tp1742
a(I0
g63
tp1743
a(I0
g63
tp1744
a(I0
g63
tp1745
a(I0
g266
tp1746
a(I0
g274
tp1747
a(I0
g63
tp1748
a(I0
g63
tp1749
a(I0
g63
tp1750
a(I0
g63
tp1751
a(I0
g63
tp1752
a(I0
g63
tp1753
a(I0
g63
tp1754
a(I0
g63
tp1755
a(I0
g63
tp1756
a(I0
g63
tp1757
a(I0
g63
tp1758
a(I0
g63
tp1759
a(I0
g63
tp1760
a(I0
g63
tp1761
a(I0
g63
tp1762
a(I0
g63
tp1763
a(I0
g63
tp1764
a(I0
g63
tp1765
a(I0
g63
tp1766
a(I0
g63
tp1767
a(I0
g63
tp1768
a(I0
g63
tp1769
a(I0
g63
tp1770
a(I0
g63
tp1771
a(I0
g63
tp1772
a(I0
g63
tp1773
a(I0
g63
tp1774
a(I0
g63
tp1775
a(I0
g63
tp1776
a(I0
g51
tp1777
a(I0
g53
tp1778
a(I0
g63
tp1779
a(I0
g63
tp1780
a(I0
g63
tp1781
a(I0
g63
tp1782
a(I0
g63
tp1783
a(I0
g63
tp1784
a(I0
g63
tp1785
a(I0
g63
tp1786
a(I0
g63
tp1787
a(I0
g63
tp1788
a(I0
g63
tp1789
a(I0
g63
tp1790
a(I0
g63
tp1791
a(I0
g63
tp1792
a(I0
g63
tp1793
a(I0
g63
tp1794
a(I0
g63
tp1795
a(I0
g63
tp1796
a(I0
g63
tp1797
a(I0
g63
tp1798
a(I0
g63
tp1799
a(I0
g63
tp1800
a(I0
g63
tp1801
a(I0
g63
tp1802
a(I0
g63
tp1803
a(I0
g63
tp1804
a(I0
g63
tp1805
a(I0
g63
tp1806
a(I0
g63
tp1807
a(I0
g63
tp1808
a(I0
g63
tp1809
a(I0
g63
tp1810
a(I0
g63
tp1811
a(I0
g63
tp1812
a(I0
g63
tp1813
a(I0
g63
tp1814
a(I0
g63
tp1815
a(I0
g63
tp1816
a(I0
g63
tp1817
a(I0
g63
tp1818
a(I0
g63
tp1819
a(I0
g63
tp1820
a(I0
g63
tp1821
a(I0
g63
tp1822
a(I0
g63
tp1823
a(I0
g63
tp1824
a(I0
g63
tp1825
a(I0
g63
tp1826
a(I0
g63
tp1827
a(I0
g63
tp1828
a(I0
g63
tp1829
a(I0
g63
tp1830
a(I0
g63
tp1831
a(I0
g266
tp1832
a(I0
g63
tp1833
a(I0
g63
tp1834
a(I0
g63
tp1835
a(I0
g63
tp1836
a(I0
g63
tp1837
a(I0
g63
tp1838
a(I0
g63
tp1839
a(I0
g63
tp1840
a(I0
g63
tp1841
a(I0
g63
tp1842
as.