(dp1
S'layout'
p2
(ilayout
Layout
p3
(dp4
S'capsules'
p5
(lp6
sS'numGhosts'
p7
I1
sS'food'
p8
(igame
Grid
p9
(dp10
S'CELLS_PER_INT'
p11
I30
sS'width'
p12
I7
sS'data'
p13
(lp14
(lp15
I00
aI00
aI00
aI00
aI00
aI00
aa(lp16
I00
aI01
aI00
aI00
aI01
aI00
aa(lp17
I00
aI00
aI00
aI00
aI00
aI00
aa(lp18
I00
aI00
aI01
aI00
aI00
aI00
aa(lp19
I00
aI00
aI00
aI00
aI00
aI00
aa(lp20
I00
aI01
aI00
aI00
aI01
aI00
aa(lp21
I00
aI00
aI00
aI00
aI00
aI00
aasS'height'
p22
I6
sbsS'agentPositions'
p23
(lp24
(I01
(I3
I4
tp25
tp26
a(I00
(I3
I1
ttp27
asg22
I6
sg12
I7
sS'walls'
p28
(igame
Grid
p29
(dp30
g11
I30
sg12
I7
sg13
(lp31
(lp32
I01
aI01
aI01
aI01
aI01
aI01
aa(lp33
I01
aI00
aI00
aI00
aI00
aI01
aa(lp34
I01
aI00
aI01
aI01
aI00
aI01
aa(lp35
I01
aI00
aI00
aI01
aI00
aI01
aa(lp36
I01
aI00
aI01
aI01
aI00
aI01
aa(lp37
I01
aI00
aI00
aI00
aI00
aI01
aa(lp38
I01
aI01
aI01
aI01
aI01
aI01
aasg22
I6
sbsS'totalFood'
p39
I5
sS'layoutText'
p40
(lp41
S'%%%%%%%'
p42
aS'%. P .%'
p43
aS'% %%% %'
p44
aS'% %.% %'
p45
aS'%. G .%'
p46
aS'%%%%%%%'
p47
asbsS'actions'
p48
(lp49
(I0
S'West'
p50
tp51
a(I0
g50
tp52
a(I0
S'South'
p53
tp54
a(I0
S'North'
p55
tp56
a(I0
S'Stop'
p57
tp58
a(I0
g57
tp59
a(I0
g57
tp60
a(I0
g53
tp61
a(I0
g53
tp62
a(I0
g53
tp63
a(I0
g57
tp64
a(I0
g55
tp65
a(I0
g55
tp66
a(I0
g53
tp67
a(I0
g57
tp68
a(I0
g57
tp69
a(I0
g53
tp70
a(I0
g55
tp71
a(I0
g55
tp72
a(I0
g55
tp73
a(I0
g57
tp74
a(I0
g53
tp75
a(I0
g55
tp76
a(I0
S'East'
p77
tp78
a(I0
g77
tp79
a(I0
g57
tp80
a(I0
g77
tp81
a(I0
g50
tp82
a(I0
g50
tp83
a(I0
g57
tp84
a(I0
g57
tp85
a(I0
g57
tp86
a(I0
g77
tp87
a(I0
g50
tp88
a(I0
g77
tp89
a(I0
g77
tp90
a(I0
g50
tp91
a(I0
g50
tp92
a(I0
g50
tp93
a(I0
g53
tp94
a(I0
g57
tp95
a(I0
g57
tp96
a(I0
g55
tp97
a(I0
g77
tp98
a(I0
g77
tp99
a(I0
g77
tp100
a(I0
g50
tp101
a(I0
g50
tp102
a(I0
g77
tp103
a(I0
g77
tp104
a(I0
g50
tp105
a(I0
g50
tp106
a(I0
g77
tp107
a(I0
g77
tp108
a(I0
g50
tp109
a(I0
g50
tp110
a(I0
g77
tp111
a(I0
g57
tp112
a(I0
g50
tp113
a(I0
g77
tp114
a(I0
g77
tp115
a(I0
g50
tp116
a(I0
g50
tp117
a(I0
g77
tp118
a(I0
g50
tp119
a(I0
g57
tp120
a(I0
g50
tp121
a(I0
g53
tp122
a(I0
g55
tp123
a(I0
g77
tp124
a(I0
g77
tp125
a(I0
g50
tp126
a(I0
g77
tp127
a(I0
g77
tp128
a(I0
g50
tp129
a(I0
g50
tp130
a(I0
g50
tp131
a(I0
g53
tp132
a(I0
g55
tp133
a(I0
g57
tp134
a(I0
g57
tp135
a(I0
g53
tp136
a(I0
g53
tp137
a(I0
g57
tp138
a(I0
g53
tp139
a(I0
g57
tp140
a(I0
g57
tp141
a(I0
g57
tp142
a(I0
g57
tp143
a(I0
g57
tp144
a(I0
g77
tp145
a(I0
g50
tp146
a(I0
g77
tp147
a(I0
g50
tp148
a(I0
g77
tp149
a(I0
g50
tp150
a(I0
g77
tp151
a(I0
g50
tp152
a(I0
g77
tp153
a(I0
g50
tp154
a(I0
g77
tp155
a(I0
g50
tp156
a(I0
g77
tp157
a(I0
g57
tp158
a(I0
g50
tp159
a(I0
g77
tp160
a(I0
g50
tp161
a(I0
g77
tp162
a(I0
g50
tp163
a(I0
g57
tp164
a(I0
g77
tp165
a(I0
g50
tp166
a(I0
g77
tp167
a(I0
g50
tp168
a(I0
g77
tp169
a(I0
g50
tp170
a(I0
g77
tp171
a(I0
g50
tp172
a(I0
g57
tp173
a(I0
g77
tp174
a(I0
g77
tp175
a(I0
g57
tp176
a(I0
g57
tp177
a(I0
g57
tp178
a(I0
g77
tp179
a(I0
g50
tp180
a(I0
g55
tp181
a(I0
g57
tp182
a(I0
g57
tp183
a(I0
g57
tp184
a(I0
g57
tp185
a(I0
g57
tp186
a(I0
g57
tp187
a(I0
g53
tp188
a(I0
g50
tp189
a(I0
g77
tp190
a(I0
g77
tp191
a(I0
g50
tp192
a(I0
g50
tp193
a(I0
g77
tp194
a(I0
g77
tp195
a(I0
g50
tp196
a(I0
g50
tp197
a(I0
g57
tp198
a(I0
g57
tp199
a(I0
g77
tp200
a(I0
g57
tp201
a(I0
g50
tp202
a(I0
g57
tp203
a(I0
g57
tp204
a(I0
g57
tp205
a(I0
g57
tp206
a(I0
g57
tp207
a(I0
g57
tp208
a(I0
g77
tp209
a(I0
g57
tp210
a(I0
g57
tp211
a(I0
g57
tp212
a(I0
g55
tp213
a(I0
g53
tp214
a(I0
g50
tp215
a(I0
g77
tp216
a(I0
g77
tp217
a(I0
g50
tp218
a(I0
g50
tp219
a(I0
g77
tp220
a(I0
g77
tp221
a(I0
g50
tp222
a(I0
g50
tp223
a(I0
g77
tp224
a(I0
g77
tp225
a(I0
g50
tp226
a(I0
g50
tp227
a(I0
g77
tp228
a(I0
g57
tp229
a(I0
g57
tp230
a(I0
g57
tp231
a(I0
g57
tp232
a(I0
g57
tp233
a(I0
g57
tp234
a(I0
g57
tp235
a(I0
g57
tp236
a(I0
g57
tp237
a(I0
g57
tp238
a(I0
g57
tp239
a(I0
g50
tp240
a(I0
g57
tp241
a(I0
g57
tp242
a(I0
g50
tp243
a(I0
g57
tp244
a(I0
g57
tp245
a(I0
g57
tp246
a(I0
g57
tp247
a(I0
g57
tp248
a(I0
g57
tp249
a(I0
g57
tp250
a(I0
g77
tp251
a(I0
g57
tp252
a(I0
g50
tp253
a(I0
g77
tp254
a(I0
g50
tp255
a(I0
g77
tp256
a(I0
g50
tp257
a(I0
g77
tp258
a(I0
g50
tp259
a(I0
g77
tp260
a(I0
g50
tp261
a(I0
g77
tp262
a(I0
g50
tp263
a(I0
g77
tp264
a(I0
g77
tp265
a(I0
g50
tp266
a(I0
g57
tp267
a(I0
g50
tp268
a(I0
g77
tp269
a(I0
g77
tp270
a(I0
g57
tp271
a(I0
g57
tp272
a(I0
g50
tp273
a(I0
g57
tp274
a(I0
g57
tp275
a(I0
g57
tp276
a(I0
g57
tp277
a(I0
g57
tp278
a(I0
g77
tp279
a(I0
g77
tp280
a(I0
g50
tp281
a(I0
g50
tp282
a(I0
g77
tp283
a(I0
g77
tp284
a(I0
g50
tp285
a(I0
g50
tp286
a(I0
g57
tp287
a(I0
g77
tp288
a(I0
g57
tp289
a(I0
g57
tp290
a(I0
g57
tp291
a(I0
g57
tp292
a(I0
g50
tp293
a(I0
g57
tp294
a(I0
g50
tp295
a(I0
g57
tp296
a(I0
g55
tp297
a(I0
g53
tp298
a(I0
g55
tp299
a(I0
g53
tp300
a(I0
g57
tp301
a(I0
g55
tp302
a(I0
g53
tp303
a(I0
g55
tp304
a(I0
g53
tp305
a(I0
g55
tp306
a(I0
g53
tp307
a(I0
g55
tp308
a(I0
g53
tp309
a(I0
g55
tp310
a(I0
g53
tp311
a(I0
g55
tp312
a(I0
g55
tp313
a(I0
g57
tp314
a(I0
g57
tp315
a(I0
g53
tp316
a(I0
g53
tp317
a(I0
g55
tp318
a(I0
g53
tp319
a(I0
g55
tp320
a(I0
g55
tp321
a(I0
g53
tp322
a(I0
g55
tp323
a(I0
g57
tp324
a(I0
g57
tp325
a(I0
g57
tp326
a(I0
g57
tp327
a(I0
g57
tp328
a(I0
g53
tp329
a(I0
g57
tp330
a(I0
g57
tp331
a(I0
g57
tp332
a(I0
g53
tp333
a(I0
g55
tp334
a(I0
g53
tp335
a(I0
g55
tp336
a(I0
g53
tp337
a(I0
g77
tp338
a(I0
g50
tp339
a(I0
g77
tp340
a(I0
g50
tp341
a(I0
g57
tp342
a(I0
g57
tp343
a(I0
g57
tp344
a(I0
g77
tp345
a(I0
g50
tp346
a(I0
g77
tp347
a(I0
g50
tp348
a(I0
g77
tp349
a(I0
g50
tp350
a(I0
g77
tp351
a(I0
g50
tp352
a(I0
g77
tp353
a(I0
g50
tp354
a(I0
g77
tp355
a(I0
g50
tp356
a(I0
g77
tp357
a(I0
g50
tp358
a(I0
g77
tp359
a(I0
g57
tp360
a(I0
g50
tp361
a(I0
g55
tp362
a(I0
g57
tp363
a(I0
g53
tp364
a(I0
g77
tp365
a(I0
g50
tp366
a(I0
g57
tp367
a(I0
g77
tp368
a(I0
g50
tp369
a(I0
g57
tp370
a(I0
g77
tp371
a(I0
g50
tp372
a(I0
g77
tp373
a(I0
g50
tp374
a(I0
g77
tp375
a(I0
g50
tp376
a(I0
g77
tp377
a(I0
g50
tp378
a(I0
g77
tp379
a(I0
g50
tp380
a(I0
g77
tp381
a(I0
g50
tp382
a(I0
g57
tp383
a(I0
g57
tp384
a(I0
g57
tp385
a(I0
g57
tp386
a(I0
g57
tp387
a(I0
g57
tp388
a(I0
g55
tp389
a(I0
g55
tp390
a(I0
g57
tp391
a(I0
g57
tp392
a(I0
g57
tp393
a(I0
g53
tp394
a(I0
g57
tp395
a(I0
g57
tp396
a(I0
g57
tp397
a(I0
g57
tp398
a(I0
g57
tp399
a(I0
g57
tp400
a(I0
g57
tp401
a(I0
g57
tp402
a(I0
g57
tp403
a(I0
g57
tp404
a(I0
g57
tp405
a(I0
g53
tp406
a(I0
g77
tp407
a(I0
g77
tp408
a(I0
g50
tp409
a(I0
g57
tp410
a(I0
g57
tp411
a(I0
g57
tp412
a(I0
g57
tp413
a(I0
g57
tp414
a(I0
g57
tp415
a(I0
g57
tp416
a(I0
g57
tp417
a(I0
g57
tp418
a(I0
g57
tp419
a(I0
g57
tp420
a(I0
g57
tp421
a(I0
g57
tp422
a(I0
g57
tp423
a(I0
g57
tp424
a(I0
g57
tp425
a(I0
g50
tp426
a(I0
g57
tp427
a(I0
g57
tp428
a(I0
g57
tp429
a(I0
g57
tp430
a(I0
g57
tp431
a(I0
g57
tp432
a(I0
g57
tp433
a(I0
g57
tp434
a(I0
g57
tp435
a(I0
g57
tp436
a(I0
g57
tp437
a(I0
g57
tp438
a(I0
g57
tp439
a(I0
g57
tp440
a(I0
g57
tp441
a(I0
g57
tp442
a(I0
g57
tp443
a(I0
g57
tp444
a(I0
g57
tp445
a(I0
g57
tp446
a(I0
g57
tp447
a(I0
g57
tp448
a(I0
g57
tp449
a(I0
g55
tp450
a(I0
g57
tp451
a(I0
g53
tp452
a(I0
g55
tp453
a(I0
g53
tp454
a(I0
g55
tp455
a(I0
g53
tp456
a(I0
g55
tp457
a(I0
g53
tp458
a(I0
g55
tp459
a(I0
g53
tp460
a(I0
g55
tp461
a(I0
g53
tp462
a(I0
g55
tp463
a(I0
g53
tp464
a(I0
g55
tp465
a(I0
g53
tp466
a(I0
g55
tp467
a(I0
g55
tp468
a(I0
g57
tp469
a(I0
g57
tp470
a(I0
g57
tp471
a(I0
g57
tp472
a(I0
g57
tp473
a(I0
g57
tp474
a(I0
g53
tp475
a(I0
g53
tp476
a(I0
g77
tp477
a(I0
g50
tp478
a(I0
g77
tp479
a(I0
g50
tp480
a(I0
g57
tp481
a(I0
g57
tp482
a(I0
g57
tp483
a(I0
g57
tp484
a(I0
g57
tp485
a(I0
g57
tp486
a(I0
g57
tp487
a(I0
g57
tp488
a(I0
g57
tp489
a(I0
g55
tp490
a(I0
g53
tp491
a(I0
g57
tp492
a(I0
g55
tp493
a(I0
g53
tp494
a(I0
g55
tp495
a(I0
g53
tp496
a(I0
g55
tp497
a(I0
g55
tp498
a(I0
g53
tp499
a(I0
g53
tp500
a(I0
g55
tp501
a(I0
g53
tp502
a(I0
g77
tp503
a(I0
g77
tp504
a(I0
g50
tp505
a(I0
g50
tp506
a(I0
g77
tp507
a(I0
g50
tp508
a(I0
g57
tp509
a(I0
g55
tp510
a(I0
g55
tp511
a(I0
g57
tp512
a(I0
g57
tp513
a(I0
g57
tp514
a(I0
g57
tp515
a(I0
g57
tp516
a(I0
g57
tp517
a(I0
g57
tp518
a(I0
g57
tp519
a(I0
g57
tp520
a(I0
g55
tp521
a(I0
g77
tp522
a(I0
g57
tp523
a(I0
g57
tp524
a(I0
g77
tp525
a(I0
g50
tp526
a(I0
g77
tp527
a(I0
g77
tp528
a(I0
g50
tp529
a(I0
g50
tp530
a(I0
g57
tp531
a(I0
g50
tp532
a(I0
g53
tp533
a(I0
g57
tp534
a(I0
g57
tp535
a(I0
g57
tp536
a(I0
g55
tp537
a(I0
g77
tp538
a(I0
g57
tp539
a(I0
g57
tp540
a(I0
g57
tp541
a(I0
g77
tp542
a(I0
g50
tp543
a(I0
g50
tp544
a(I0
g53
tp545
a(I0
g57
tp546
a(I0
g55
tp547
a(I0
g77
tp548
a(I0
g77
tp549
a(I0
g50
tp550
a(I0
g77
tp551
a(I0
g77
tp552
a(I0
g50
tp553
a(I0
g57
tp554
a(I0
g57
tp555
a(I0
g57
tp556
a(I0
g57
tp557
a(I0
g50
tp558
a(I0
g77
tp559
a(I0
g77
tp560
a(I0
g57
tp561
a(I0
g57
tp562
a(I0
g57
tp563
a(I0
g57
tp564
a(I0
g57
tp565
a(I0
g57
tp566
a(I0
g57
tp567
a(I0
g57
tp568
a(I0
g57
tp569
a(I0
g57
tp570
a(I0
g57
tp571
a(I0
g57
tp572
a(I0
g57
tp573
a(I0
g57
tp574
a(I0
g57
tp575
a(I0
g57
tp576
a(I0
g57
tp577
a(I0
g57
tp578
a(I0
g57
tp579
a(I0
g57
tp580
a(I0
g57
tp581
a(I0
g57
tp582
a(I0
g57
tp583
a(I0
g57
tp584
a(I0
g57
tp585
a(I0
g57
tp586
a(I0
g57
tp587
a(I0
g57
tp588
a(I0
g57
tp589
a(I0
g57
tp590
a(I0
g50
tp591
a(I0
g50
tp592
a(I0
g77
tp593
a(I0
g77
tp594
a(I0
g50
tp595
a(I0
g50
tp596
a(I0
g77
tp597
a(I0
g77
tp598
a(I0
g50
tp599
a(I0
g50
tp600
a(I0
g57
tp601
a(I0
g50
tp602
a(I0
g77
tp603
a(I0
g57
tp604
a(I0
g77
tp605
a(I0
g50
tp606
a(I0
g57
tp607
a(I0
g50
tp608
a(I0
g53
tp609
a(I0
g53
tp610
a(I0
g55
tp611
a(I0
g57
tp612
a(I0
g57
tp613
a(I0
g57
tp614
a(I0
g57
tp615
a(I0
g57
tp616
a(I0
g57
tp617
a(I0
g57
tp618
a(I0
g57
tp619
a(I0
g57
tp620
a(I0
g57
tp621
a(I0
g57
tp622
a(I0
g57
tp623
a(I0
g57
tp624
a(I0
g57
tp625
a(I0
g57
tp626
a(I0
g57
tp627
a(I0
g57
tp628
a(I0
g57
tp629
a(I0
g57
tp630
a(I0
g53
tp631
a(I0
g57
tp632
a(I0
g57
tp633
a(I0
g57
tp634
a(I0
g53
tp635
a(I0
g77
tp636
a(I0
g77
tp637
a(I0
g57
tp638
a(I0
g57
tp639
a(I0
g57
tp640
a(I0
g57
tp641
a(I0
g50
tp642
a(I0
g57
tp643
a(I0
g57
tp644
a(I0
g57
tp645
a(I0
g77
tp646
a(I0
g57
tp647
a(I0
g57
tp648
a(I0
g57
tp649
a(I0
g57
tp650
a(I0
g57
tp651
a(I0
g57
tp652
a(I0
g57
tp653
a(I0
g50
tp654
a(I0
g50
tp655
a(I0
g57
tp656
a(I0
g77
tp657
a(I0
g50
tp658
a(I0
g77
tp659
a(I0
g50
tp660
a(I0
g77
tp661
a(I0
g50
tp662
a(I0
g57
tp663
a(I0
g57
tp664
a(I0
g57
tp665
a(I0
g57
tp666
a(I0
g57
tp667
a(I0
g57
tp668
a(I0
g57
tp669
a(I0
g57
tp670
a(I0
g57
tp671
a(I0
g57
tp672
a(I0
g57
tp673
a(I0
g57
tp674
a(I0
g57
tp675
a(I0
g57
tp676
a(I0
g57
tp677
a(I0
g57
tp678
a(I0
g57
tp679
a(I0
g57
tp680
a(I0
g57
tp681
a(I0
g57
tp682
a(I0
g57
tp683
a(I0
g55
tp684
a(I0
g53
tp685
a(I0
g55
tp686
a(I0
g53
tp687
a(I0
g55
tp688
a(I0
g53
tp689
a(I0
g55
tp690
a(I0
g53
tp691
a(I0
g77
tp692
a(I0
g77
tp693
a(I0
g57
tp694
a(I0
g57
tp695
a(I0
g57
tp696
a(I0
g57
tp697
a(I0
g57
tp698
a(I0
g57
tp699
a(I0
g50
tp700
a(I0
g50
tp701
a(I0
g77
tp702
a(I0
g50
tp703
a(I0
g57
tp704
a(I0
g57
tp705
a(I0
g57
tp706
a(I0
g57
tp707
a(I0
g57
tp708
a(I0
g57
tp709
a(I0
g57
tp710
a(I0
g57
tp711
a(I0
g57
tp712
a(I0
g57
tp713
a(I0
g55
tp714
a(I0
g53
tp715
a(I0
g77
tp716
a(I0
g77
tp717
a(I0
g57
tp718
a(I0
g57
tp719
a(I0
g57
tp720
a(I0
g57
tp721
a(I0
g57
tp722
a(I0
g57
tp723
a(I0
g57
tp724
a(I0
g57
tp725
a(I0
g50
tp726
a(I0
g57
tp727
a(I0
g50
tp728
a(I0
g57
tp729
a(I0
g57
tp730
a(I0
g55
tp731
a(I0
g55
tp732
a(I0
g57
tp733
a(I0
g57
tp734
a(I0
g57
tp735
a(I0
g53
tp736
a(I0
g57
tp737
a(I0
g57
tp738
a(I0
g57
tp739
a(I0
g57
tp740
a(I0
g57
tp741
a(I0
g57
tp742
a(I0
g57
tp743
a(I0
g57
tp744
a(I0
g53
tp745
a(I0
g77
tp746
a(I0
g77
tp747
a(I0
g57
tp748
a(I0
g57
tp749
a(I0
g50
tp750
a(I0
g57
tp751
a(I0
g57
tp752
a(I0
g50
tp753
a(I0
g55
tp754
a(I0
g57
tp755
a(I0
g53
tp756
a(I0
g55
tp757
a(I0
g53
tp758
a(I0
g55
tp759
a(I0
g53
tp760
a(I0
g57
tp761
a(I0
g55
tp762
a(I0
g55
tp763
a(I0
g57
tp764
a(I0
g57
tp765
a(I0
g57
tp766
a(I0
g57
tp767
a(I0
g57
tp768
a(I0
g57
tp769
a(I0
g57
tp770
a(I0
g57
tp771
a(I0
g57
tp772
a(I0
g53
tp773
a(I0
g57
tp774
a(I0
g57
tp775
a(I0
g57
tp776
a(I0
g57
tp777
a(I0
g57
tp778
a(I0
g57
tp779
a(I0
g57
tp780
a(I0
g57
tp781
a(I0
g57
tp782
a(I0
g57
tp783
a(I0
g57
tp784
a(I0
g57
tp785
a(I0
g57
tp786
a(I0
g57
tp787
a(I0
g57
tp788
a(I0
g57
tp789
a(I0
g57
tp790
a(I0
g57
tp791
a(I0
g57
tp792
a(I0
g57
tp793
a(I0
g57
tp794
a(I0
g57
tp795
a(I0
g57
tp796
a(I0
g57
tp797
a(I0
g57
tp798
a(I0
g53
tp799
a(I0
g57
tp800
a(I0
g55
tp801
a(I0
g53
tp802
a(I0
g55
tp803
a(I0
g53
tp804
a(I0
g55
tp805
a(I0
g53
tp806
a(I0
g55
tp807
a(I0
g53
tp808
a(I0
g55
tp809
a(I0
g53
tp810
a(I0
g55
tp811
a(I0
g53
tp812
a(I0
g55
tp813
a(I0
g57
tp814
a(I0
g53
tp815
a(I0
g55
tp816
a(I0
g57
tp817
a(I0
g53
tp818
a(I0
g77
tp819
a(I0
g77
tp820
a(I0
g50
tp821
a(I0
g50
tp822
a(I0
g57
tp823
a(I0
g57
tp824
a(I0
g57
tp825
a(I0
g57
tp826
a(I0
g57
tp827
a(I0
g57
tp828
a(I0
g57
tp829
a(I0
g57
tp830
a(I0
g57
tp831
a(I0
g57
tp832
a(I0
g57
tp833
a(I0
g57
tp834
a(I0
g77
tp835
a(I0
g50
tp836
a(I0
g77
tp837
a(I0
g77
tp838
a(I0
g77
tp839
a(I0
g50
tp840
a(I0
g50
tp841
a(I0
g50
tp842
a(I0
g77
tp843
a(I0
g50
tp844
a(I0
g57
tp845
a(I0
g77
tp846
a(I0
g50
tp847
a(I0
g57
tp848
a(I0
g57
tp849
a(I0
g77
tp850
a(I0
g50
tp851
a(I0
g77
tp852
a(I0
g50
tp853
a(I0
g77
tp854
a(I0
g50
tp855
a(I0
g57
tp856
a(I0
g77
tp857
a(I0
g50
tp858
a(I0
g77
tp859
a(I0
g50
tp860
a(I0
g77
tp861
a(I0
g57
tp862
a(I0
g50
tp863
a(I0
g77
tp864
a(I0
g50
tp865
a(I0
g77
tp866
a(I0
g50
tp867
a(I0
g77
tp868
a(I0
g50
tp869
a(I0
g77
tp870
a(I0
g50
tp871
a(I0
g77
tp872
a(I0
g50
tp873
a(I0
g77
tp874
a(I0
g50
tp875
a(I0
g77
tp876
a(I0
g50
tp877
a(I0
g77
tp878
a(I0
g50
tp879
a(I0
g77
tp880
a(I0
g50
tp881
a(I0
g77
tp882
a(I0
g50
tp883
a(I0
g77
tp884
a(I0
g50
tp885
a(I0
g77
tp886
a(I0
g50
tp887
a(I0
g77
tp888
a(I0
g50
tp889
a(I0
g77
tp890
a(I0
g50
tp891
a(I0
g77
tp892
a(I0
g50
tp893
a(I0
g77
tp894
a(I0
g50
tp895
a(I0
g77
tp896
a(I0
g50
tp897
a(I0
g77
tp898
a(I0
g50
tp899
a(I0
g77
tp900
a(I0
g50
tp901
a(I0
g57
tp902
a(I0
g57
tp903
a(I0
g77
tp904
a(I0
g50
tp905
a(I0
g77
tp906
a(I0
g50
tp907
a(I0
g77
tp908
a(I0
g50
tp909
a(I0
g77
tp910
a(I0
g50
tp911
a(I0
g77
tp912
a(I0
g50
tp913
a(I0
g77
tp914
a(I0
g50
tp915
a(I0
g77
tp916
a(I0
g50
tp917
a(I0
g77
tp918
a(I0
g50
tp919
a(I0
g77
tp920
a(I0
g77
tp921
a(I0
g57
tp922
a(I0
g57
tp923
a(I0
g57
tp924
a(I0
g57
tp925
a(I0
g55
tp926
a(I0
g57
tp927
a(I0
g57
tp928
a(I0
g53
tp929
a(I0
g50
tp930
a(I0
g57
tp931
a(I0
g57
tp932
a(I0
g57
tp933
a(I0
g57
tp934
a(I0
g57
tp935
a(I0
g50
tp936
a(I0
g77
tp937
a(I0
g50
tp938
a(I0
g77
tp939
a(I0
g57
tp940
a(I0
g50
tp941
a(I0
g77
tp942
a(I0
g50
tp943
a(I0
g77
tp944
a(I0
g50
tp945
a(I0
g77
tp946
a(I0
g50
tp947
a(I0
g77
tp948
a(I0
g50
tp949
a(I0
g77
tp950
a(I0
g50
tp951
a(I0
g77
tp952
a(I0
g50
tp953
a(I0
g55
tp954
a(I0
g57
tp955
a(I0
g57
tp956
a(I0
g57
tp957
a(I0
g57
tp958
a(I0
g57
tp959
a(I0
g57
tp960
a(I0
g57
tp961
a(I0
g57
tp962
a(I0
g57
tp963
a(I0
g53
tp964
a(I0
g55
tp965
a(I0
g57
tp966
a(I0
g57
tp967
a(I0
g57
tp968
a(I0
g57
tp969
a(I0
g57
tp970
a(I0
g55
tp971
a(I0
g57
tp972
a(I0
g57
tp973
a(I0
g57
tp974
a(I0
g57
tp975
a(I0
g57
tp976
a(I0
g55
tp977
a(I0
g77
tp978
a(I0
g77
tp979
a(I0
g50
tp980
a(I0
g50
tp981
a(I0
g53
tp982
a(I0
g57
tp983
a(I0
g57
tp984
a(I0
g55
tp985
a(I0
g77
tp986
a(I0
g57
tp987
a(I0
g57
tp988
a(I0
g57
tp989
a(I0
g57
tp990
a(I0
g57
tp991
a(I0
g57
tp992
a(I0
g57
tp993
a(I0
g50
tp994
a(I0
g57
tp995
a(I0
g53
tp996
a(I0
g57
tp997
a(I0
g55
tp998
a(I0
g77
tp999
a(I0
g77
tp1000
a(I0
g50
tp1001
a(I0
g50
tp1002
a(I0
g53
tp1003
a(I0
g55
tp1004
a(I0
g57
tp1005
a(I0
g57
tp1006
a(I0
g57
tp1007
a(I0
g77
tp1008
a(I0
g77
tp1009
a(I0
g50
tp1010
a(I0
g77
tp1011
a(I0
g50
tp1012
a(I0
g57
tp1013
a(I0
g50
tp1014
a(I0
g53
tp1015
a(I0
g57
tp1016
a(I0
g57
tp1017
a(I0
g57
tp1018
a(I0
g53
tp1019
a(I0
g57
tp1020
a(I0
g57
tp1021
a(I0
g55
tp1022
a(I0
g55
tp1023
a(I0
g77
tp1024
a(I0
g57
tp1025
a(I0
g77
tp1026
a(I0
g50
tp1027
a(I0
g50
tp1028
a(I0
g53
tp1029
a(I0
g55
tp1030
a(I0
g77
tp1031
a(I0
g57
tp1032
a(I0
g57
tp1033
a(I0
g57
tp1034
a(I0
g57
tp1035
a(I0
g57
tp1036
a(I0
g77
tp1037
a(I0
g50
tp1038
a(I0
g50
tp1039
a(I0
g53
tp1040
a(I0
g55
tp1041
a(I0
g57
tp1042
a(I0
g57
tp1043
a(I0
g57
tp1044
a(I0
g57
tp1045
a(I0
g57
tp1046
a(I0
g57
tp1047
a(I0
g77
tp1048
a(I0
g77
tp1049
a(I0
g50
tp1050
a(I0
g77
tp1051
a(I0
g77
tp1052
a(I0
g50
tp1053
a(I0
g57
tp1054
a(I0
g50
tp1055
a(I0
g77
tp1056
a(I0
g57
tp1057
a(I0
g50
tp1058
a(I0
g50
tp1059
a(I0
g53
tp1060
a(I0
g55
tp1061
a(I0
g57
tp1062
a(I0
g77
tp1063
a(I0
g77
tp1064
a(I0
g50
tp1065
a(I0
g50
tp1066
a(I0
g53
tp1067
a(I0
g55
tp1068
a(I0
g77
tp1069
a(I0
g77
tp1070
a(I0
g50
tp1071
a(I0
g57
tp1072
a(I0
g50
tp1073
a(I0
g53
tp1074
a(I0
g57
tp1075
a(I0
g57
tp1076
a(I0
g55
tp1077
a(I0
g77
tp1078
a(I0
g77
tp1079
a(I0
g50
tp1080
a(I0
g57
tp1081
a(I0
g50
tp1082
a(I0
g53
tp1083
a(I0
g55
tp1084
a(I0
g77
tp1085
a(I0
g57
tp1086
a(I0
g57
tp1087
a(I0
g77
tp1088
a(I0
g50
tp1089
a(I0
g77
tp1090
a(I0
g57
tp1091
a(I0
g50
tp1092
a(I0
g50
tp1093
a(I0
g53
tp1094
a(I0
g55
tp1095
a(I0
g77
tp1096
a(I0
g57
tp1097
a(I0
g57
tp1098
a(I0
g57
tp1099
a(I0
g57
tp1100
a(I0
g77
tp1101
a(I0
g50
tp1102
a(I0
g50
tp1103
a(I0
g53
tp1104
a(I0
g57
tp1105
a(I0
g57
tp1106
a(I0
g57
tp1107
a(I0
g57
tp1108
a(I0
g57
tp1109
a(I0
g57
tp1110
a(I0
g57
tp1111
a(I0
g57
tp1112
a(I0
g57
tp1113
a(I0
g55
tp1114
a(I0
g57
tp1115
a(I0
g57
tp1116
a(I0
g53
tp1117
a(I0
g55
tp1118
a(I0
g57
tp1119
a(I0
g57
tp1120
a(I0
g57
tp1121
a(I0
g57
tp1122
a(I0
g57
tp1123
a(I0
g57
tp1124
a(I0
g77
tp1125
a(I0
g50
tp1126
a(I0
g77
tp1127
a(I0
g50
tp1128
a(I0
g77
tp1129
a(I0
g50
tp1130
a(I0
g53
tp1131
a(I0
g55
tp1132
a(I0
g77
tp1133
a(I0
g57
tp1134
a(I0
g50
tp1135
a(I0
g77
tp1136
a(I0
g57
tp1137
a(I0
g77
tp1138
a(I0
g77
tp1139
a(I0
g50
tp1140
a(I0
g50
tp1141
a(I0
g77
tp1142
a(I0
g57
tp1143
a(I0
g57
tp1144
a(I0
g77
tp1145
a(I0
g50
tp1146
a(I0
g50
tp1147
a(I0
g50
tp1148
a(I0
g53
tp1149
a(I0
g55
tp1150
a(I0
g57
tp1151
a(I0
g57
tp1152
a(I0
g57
tp1153
a(I0
g57
tp1154
a(I0
g53
tp1155
a(I0
g55
tp1156
a(I0
g57
tp1157
a(I0
g57
tp1158
a(I0
g57
tp1159
a(I0
g77
tp1160
a(I0
g57
tp1161
a(I0
g77
tp1162
a(I0
g77
tp1163
a(I0
g50
tp1164
a(I0
g50
tp1165
a(I0
g77
tp1166
a(I0
g50
tp1167
a(I0
g50
tp1168
a(I0
g53
tp1169
a(I0
g57
tp1170
a(I0
g57
tp1171
a(I0
g57
tp1172
a(I0
g57
tp1173
a(I0
g57
tp1174
a(I0
g57
tp1175
a(I0
g53
tp1176
a(I0
g53
tp1177
a(I0
g55
tp1178
a(I0
g53
tp1179
a(I0
g55
tp1180
a(I0
g53
tp1181
a(I0
g77
tp1182
a(I0
g50
tp1183
a(I0
g77
tp1184
a(I0
g50
tp1185
a(I0
g57
tp1186
a(I0
g57
tp1187
a(I0
g57
tp1188
a(I0
g55
tp1189
a(I0
g55
tp1190
a(I0
g53
tp1191
a(I0
g57
tp1192
a(I0
g57
tp1193
a(I0
g57
tp1194
a(I0
g57
tp1195
a(I0
g57
tp1196
a(I0
g57
tp1197
a(I0
g55
tp1198
a(I0
g57
tp1199
a(I0
g57
tp1200
a(I0
g55
tp1201
a(I0
g77
tp1202
a(I0
g77
tp1203
a(I0
g77
tp1204
a(I0
g50
tp1205
a(I0
g50
tp1206
a(I0
g77
tp1207
a(I0
g57
tp1208
a(I0
g77
tp1209
a(I0
g50
tp1210
a(I0
g50
tp1211
a(I0
g77
tp1212
a(I0
g77
tp1213
a(I0
g50
tp1214
a(I0
g50
tp1215
a(I0
g77
tp1216
a(I0
g77
tp1217
a(I0
g50
tp1218
a(I0
g50
tp1219
a(I0
g77
tp1220
a(I0
g77
tp1221
a(I0
g50
tp1222
a(I0
g50
tp1223
a(I0
g77
tp1224
a(I0
g77
tp1225
a(I0
g50
tp1226
a(I0
g50
tp1227
a(I0
g77
tp1228
a(I0
g77
tp1229
a(I0
g50
tp1230
a(I0
g50
tp1231
a(I0
g77
tp1232
a(I0
g77
tp1233
a(I0
g50
tp1234
a(I0
g50
tp1235
a(I0
g77
tp1236
a(I0
g77
tp1237
a(I0
g50
tp1238
a(I0
g50
tp1239
a(I0
g77
tp1240
a(I0
g77
tp1241
a(I0
g50
tp1242
a(I0
g50
tp1243
a(I0
g77
tp1244
a(I0
g77
tp1245
a(I0
g50
tp1246
a(I0
g50
tp1247
a(I0
g57
tp1248
a(I0
g77
tp1249
a(I0
g57
tp1250
a(I0
g77
tp1251
a(I0
g50
tp1252
a(I0
g50
tp1253
a(I0
g77
tp1254
a(I0
g77
tp1255
a(I0
g50
tp1256
a(I0
g50
tp1257
a(I0
g77
tp1258
a(I0
g77
tp1259
a(I0
g50
tp1260
a(I0
g50
tp1261
a(I0
g77
tp1262
a(I0
g77
tp1263
a(I0
g57
tp1264
a(I0
g50
tp1265
a(I0
g50
tp1266
a(I0
g77
tp1267
a(I0
g50
tp1268
a(I0
g77
tp1269
a(I0
g77
tp1270
a(I0
g50
tp1271
a(I0
g50
tp1272
a(I0
g77
tp1273
a(I0
g77
tp1274
a(I0
g57
tp1275
a(I0
g50
tp1276
a(I0
g50
tp1277
a(I0
g57
tp1278
a(I0
g50
tp1279
a(I0
g53
tp1280
a(I0
g55
tp1281
a(I0
g57
tp1282
a(I0
g57
tp1283
a(I0
g57
tp1284
a(I0
g57
tp1285
a(I0
g57
tp1286
a(I0
g57
tp1287
a(I0
g57
tp1288
a(I0
g57
tp1289
a(I0
g53
tp1290
a(I0
g55
tp1291
a(I0
g57
tp1292
a(I0
g57
tp1293
a(I0
g57
tp1294
a(I0
g57
tp1295
a(I0
g77
tp1296
a(I0
g57
tp1297
a(I0
g50
tp1298
a(I0
g77
tp1299
a(I0
g57
tp1300
a(I0
g57
tp1301
a(I0
g57
tp1302
a(I0
g57
tp1303
a(I0
g57
tp1304
a(I0
g57
tp1305
a(I0
g57
tp1306
a(I0
g57
tp1307
a(I0
g50
tp1308
a(I0
g77
tp1309
a(I0
g50
tp1310
a(I0
g77
tp1311
a(I0
g57
tp1312
a(I0
g57
tp1313
a(I0
g50
tp1314
a(I0
g77
tp1315
a(I0
g57
tp1316
a(I0
g57
tp1317
a(I0
g57
tp1318
a(I0
g57
tp1319
a(I0
g57
tp1320
a(I0
g50
tp1321
a(I0
g77
tp1322
a(I0
g77
tp1323
a(I0
g77
tp1324
a(I0
g50
tp1325
a(I0
g50
tp1326
a(I0
g77
tp1327
a(I0
g57
tp1328
a(I0
g57
tp1329
a(I0
g57
tp1330
a(I0
g77
tp1331
a(I0
g50
tp1332
a(I0
g50
tp1333
a(I0
g57
tp1334
a(I0
g57
tp1335
a(I0
g57
tp1336
a(I0
g77
tp1337
a(I0
g77
tp1338
a(I0
g50
tp1339
a(I0
g50
tp1340
a(I0
g77
tp1341
a(I0
g77
tp1342
a(I0
g50
tp1343
a(I0
g50
tp1344
a(I0
g77
tp1345
a(I0
g77
tp1346
a(I0
g50
tp1347
a(I0
g50
tp1348
a(I0
g77
tp1349
a(I0
g77
tp1350
a(I0
g50
tp1351
a(I0
g50
tp1352
a(I0
g77
tp1353
a(I0
g50
tp1354
a(I0
g77
tp1355
a(I0
g77
tp1356
a(I0
g50
tp1357
a(I0
g50
tp1358
a(I0
g77
tp1359
a(I0
g57
tp1360
a(I0
g77
tp1361
a(I0
g50
tp1362
a(I0
g50
tp1363
a(I0
g77
tp1364
a(I0
g57
tp1365
a(I0
g77
tp1366
a(I0
g50
tp1367
a(I0
g50
tp1368
a(I0
g77
tp1369
a(I0
g77
tp1370
a(I0
g50
tp1371
a(I0
g50
tp1372
a(I0
g77
tp1373
a(I0
g77
tp1374
a(I0
g50
tp1375
a(I0
g50
tp1376
a(I0
g77
tp1377
a(I0
g77
tp1378
a(I0
g50
tp1379
a(I0
g50
tp1380
a(I0
g77
tp1381
a(I0
g77
tp1382
a(I0
g57
tp1383
a(I0
g50
tp1384
a(I0
g50
tp1385
a(I0
g77
tp1386
a(I0
g77
tp1387
a(I0
g50
tp1388
a(I0
g50
tp1389
a(I0
g57
tp1390
a(I0
g57
tp1391
a(I0
g57
tp1392
a(I0
g77
tp1393
a(I0
g77
tp1394
a(I0
g50
tp1395
a(I0
g50
tp1396
a(I0
g77
tp1397
a(I0
g77
tp1398
a(I0
g50
tp1399
a(I0
g50
tp1400
a(I0
g77
tp1401
a(I0
g77
tp1402
a(I0
g50
tp1403
a(I0
g50
tp1404
a(I0
g77
tp1405
a(I0
g77
tp1406
a(I0
g50
tp1407
a(I0
g50
tp1408
a(I0
g57
tp1409
a(I0
g77
tp1410
a(I0
g77
tp1411
a(I0
g50
tp1412
a(I0
g50
tp1413
a(I0
g57
tp1414
a(I0
g50
tp1415
a(I0
g53
tp1416
a(I0
g55
tp1417
a(I0
g57
tp1418
a(I0
g57
tp1419
a(I0
g57
tp1420
a(I0
g57
tp1421
a(I0
g57
tp1422
a(I0
g57
tp1423
a(I0
g57
tp1424
a(I0
g57
tp1425
a(I0
g57
tp1426
a(I0
g57
tp1427
a(I0
g57
tp1428
a(I0
g57
tp1429
a(I0
g57
tp1430
a(I0
g57
tp1431
a(I0
g57
tp1432
a(I0
g57
tp1433
a(I0
g57
tp1434
a(I0
g57
tp1435
a(I0
g57
tp1436
a(I0
g57
tp1437
a(I0
g57
tp1438
a(I0
g57
tp1439
a(I0
g77
tp1440
a(I0
g50
tp1441
a(I0
g77
tp1442
a(I0
g50
tp1443
a(I0
g77
tp1444
a(I0
g50
tp1445
a(I0
g77
tp1446
a(I0
g50
tp1447
a(I0
g77
tp1448
a(I0
g50
tp1449
a(I0
g77
tp1450
a(I0
g50
tp1451
a(I0
g77
tp1452
a(I0
g50
tp1453
a(I0
g77
tp1454
a(I0
g57
tp1455
a(I0
g77
tp1456
a(I0
g77
tp1457
a(I0
g50
tp1458
a(I0
g50
tp1459
a(I0
g57
tp1460
a(I0
g57
tp1461
a(I0
g57
tp1462
a(I0
g57
tp1463
a(I0
g57
tp1464
a(I0
g57
tp1465
a(I0
g77
tp1466
a(I0
g57
tp1467
a(I0
g57
tp1468
a(I0
g57
tp1469
a(I0
g57
tp1470
a(I0
g77
tp1471
a(I0
g50
tp1472
a(I0
g50
tp1473
a(I0
g57
tp1474
a(I0
g57
tp1475
a(I0
g57
tp1476
a(I0
g57
tp1477
a(I0
g50
tp1478
a(I0
g53
tp1479
a(I0
g55
tp1480
a(I0
g57
tp1481
a(I0
g77
tp1482
a(I0
g57
tp1483
a(I0
g50
tp1484
a(I0
g77
tp1485
a(I0
g57
tp1486
a(I0
g50
tp1487
a(I0
g77
tp1488
a(I0
g77
tp1489
a(I0
g57
tp1490
a(I0
g57
tp1491
a(I0
g57
tp1492
a(I0
g57
tp1493
a(I0
g77
tp1494
a(I0
g50
tp1495
a(I0
g50
tp1496
a(I0
g77
tp1497
a(I0
g50
tp1498
a(I0
g77
tp1499
a(I0
g57
tp1500
a(I0
g57
tp1501
a(I0
g77
tp1502
a(I0
g50
tp1503
a(I0
g50
tp1504
a(I0
g77
tp1505
a(I0
g77
tp1506
a(I0
g50
tp1507
a(I0
g50
tp1508
a(I0
g77
tp1509
a(I0
g77
tp1510
a(I0
g50
tp1511
a(I0
g50
tp1512
a(I0
g50
tp1513
a(I0
g53
tp1514
a(I0
g57
tp1515
a(I0
g57
tp1516
a(I0
g57
tp1517
a(I0
g55
tp1518
a(I0
g57
tp1519
a(I0
g57
tp1520
a(I0
g57
tp1521
a(I0
g57
tp1522
a(I0
g57
tp1523
a(I0
g57
tp1524
a(I0
g57
tp1525
a(I0
g57
tp1526
a(I0
g57
tp1527
a(I0
g57
tp1528
a(I0
g57
tp1529
a(I0
g57
tp1530
a(I0
g57
tp1531
a(I0
g57
tp1532
a(I0
g57
tp1533
a(I0
g57
tp1534
a(I0
g57
tp1535
a(I0
g57
tp1536
a(I0
g57
tp1537
a(I0
g57
tp1538
a(I0
g53
tp1539
a(I0
g55
tp1540
a(I0
g77
tp1541
a(I0
g57
tp1542
a(I0
g57
tp1543
a(I0
g57
tp1544
a(I0
g57
tp1545
a(I0
g57
tp1546
a(I0
g50
tp1547
a(I0
g77
tp1548
a(I0
g57
tp1549
a(I0
g50
tp1550
a(I0
g77
tp1551
a(I0
g50
tp1552
a(I0
g77
tp1553
a(I0
g50
tp1554
a(I0
g77
tp1555
a(I0
g50
tp1556
a(I0
g77
tp1557
a(I0
g50
tp1558
a(I0
g77
tp1559
a(I0
g77
tp1560
a(I0
g57
tp1561
a(I0
g77
tp1562
a(I0
g50
tp1563
a(I0
g50
tp1564
a(I0
g57
tp1565
a(I0
g77
tp1566
a(I0
g57
tp1567
a(I0
g77
tp1568
a(I0
g50
tp1569
a(I0
g50
tp1570
a(I0
g77
tp1571
a(I0
g77
tp1572
a(I0
g50
tp1573
a(I0
g50
tp1574
a(I0
g57
tp1575
a(I0
g77
tp1576
a(I0
g77
tp1577
a(I0
g50
tp1578
a(I0
g50
tp1579
a(I0
g77
tp1580
a(I0
g77
tp1581
a(I0
g50
tp1582
a(I0
g57
tp1583
a(I0
g50
tp1584
a(I0
g77
tp1585
a(I0
g77
tp1586
a(I0
g50
tp1587
a(I0
g50
tp1588
a(I0
g77
tp1589
a(I0
g77
tp1590
a(I0
g50
tp1591
a(I0
g50
tp1592
a(I0
g77
tp1593
a(I0
g50
tp1594
a(I0
g57
tp1595
a(I0
g57
tp1596
a(I0
g77
tp1597
a(I0
g77
tp1598
a(I0
g50
tp1599
a(I0
g50
tp1600
a(I0
g77
tp1601
a(I0
g77
tp1602
a(I0
g50
tp1603
a(I0
g50
tp1604
a(I0
g77
tp1605
a(I0
g77
tp1606
a(I0
g50
tp1607
a(I0
g50
tp1608
a(I0
g77
tp1609
a(I0
g77
tp1610
a(I0
g50
tp1611
a(I0
g50
tp1612
a(I0
g77
tp1613
a(I0
g77
tp1614
a(I0
g50
tp1615
a(I0
g50
tp1616
a(I0
g77
tp1617
a(I0
g77
tp1618
a(I0
g50
tp1619
a(I0
g50
tp1620
a(I0
g77
tp1621
a(I0
g77
tp1622
a(I0
g50
tp1623
a(I0
g50
tp1624
a(I0
g77
tp1625
a(I0
g77
tp1626
a(I0
g57
tp1627
a(I0
g57
tp1628
a(I0
g50
tp1629
a(I0
g50
tp1630
a(I0
g77
tp1631
a(I0
g77
tp1632
a(I0
g50
tp1633
a(I0
g50
tp1634
a(I0
g77
tp1635
a(I0
g77
tp1636
a(I0
g50
tp1637
a(I0
g50
tp1638
a(I0
g77
tp1639
a(I0
g77
tp1640
a(I0
g50
tp1641
a(I0
g50
tp1642
a(I0
g77
tp1643
a(I0
g77
tp1644
a(I0
g50
tp1645
a(I0
g50
tp1646
a(I0
g77
tp1647
a(I0
g77
tp1648
a(I0
g50
tp1649
a(I0
g50
tp1650
a(I0
g57
tp1651
a(I0
g77
tp1652
a(I0
g77
tp1653
a(I0
g50
tp1654
a(I0
g50
tp1655
a(I0
g77
tp1656
a(I0
g77
tp1657
a(I0
g50
tp1658
a(I0
g50
tp1659
a(I0
g77
tp1660
a(I0
g77
tp1661
a(I0
g50
tp1662
a(I0
g57
tp1663
a(I0
g57
tp1664
a(I0
g57
tp1665
a(I0
g57
tp1666
a(I0
g57
tp1667
a(I0
g57
tp1668
a(I0
g57
tp1669
a(I0
g57
tp1670
a(I0
g50
tp1671
a(I0
g77
tp1672
a(I0
g77
tp1673
a(I0
g57
tp1674
a(I0
g57
tp1675
a(I0
g50
tp1676
a(I0
g50
tp1677
a(I0
g57
tp1678
a(I0
g77
tp1679
a(I0
g50
tp1680
a(I0
g57
tp1681
a(I0
g50
tp1682
a(I0
g53
tp1683
a(I0
g53
tp1684
a(I0
g53
tp1685
a(I0
g77
tp1686
a(I0
g77
tp1687
a(I0
g50
tp1688
a(I0
g50
tp1689
a(I0
g55
tp1690
a(I0
g55
tp1691
a(I0
g53
tp1692
a(I0
g53
tp1693
a(I0
g77
tp1694
a(I0
g57
tp1695
a(I0
g57
tp1696
a(I0
g57
tp1697
a(I0
g77
tp1698
a(I0
g50
tp1699
a(I0
g50
tp1700
a(I0
g55
tp1701
a(I0
g55
tp1702
a(I0
g53
tp1703
a(I0
g53
tp1704
a(I0
g77
tp1705
a(I0
g77
tp1706
a(I0
g50
tp1707
a(I0
g50
tp1708
a(I0
g55
tp1709
a(I0
g55
tp1710
a(I0
g53
tp1711
a(I0
g53
tp1712
a(I0
g77
tp1713
a(I0
g77
tp1714
a(I0
g50
tp1715
a(I0
g50
tp1716
a(I0
g55
tp1717
a(I0
g55
tp1718
a(I0
g53
tp1719
a(I0
g53
tp1720
a(I0
g77
tp1721
a(I0
g77
tp1722
a(I0
g57
tp1723
a(I0
g57
tp1724
a(I0
g50
tp1725
a(I0
g50
tp1726
a(I0
g55
tp1727
a(I0
g55
tp1728
a(I0
g55
tp1729
a(I0
g53
tp1730
a(I0
g57
tp1731
a(I0
g57
tp1732
a(I0
g57
tp1733
a(I0
g57
tp1734
a(I0
g57
tp1735
a(I0
g57
tp1736
a(I0
g57
tp1737
a(I0
g57
tp1738
a(I0
g57
tp1739
a(I0
g57
tp1740
a(I0
g57
tp1741
a(I0
g57
tp1742
a(I0
g57
tp1743
a(I0
g55
tp1744
a(I0
g57
tp1745
a(I0
g57
tp1746
a(I0
g57
tp1747
a(I0
g57
tp1748
a(I0
g57
tp1749
a(I0
g57
tp1750
a(I0
g53
tp1751
a(I0
g57
tp1752
a(I0
g57
tp1753
a(I0
g57
tp1754
a(I0
g55
tp1755
a(I0
g57
tp1756
a(I0
g57
tp1757
a(I0
g57
tp1758
a(I0
g57
tp1759
a(I0
g57
tp1760
a(I0
g57
tp1761
a(I0
g57
tp1762
a(I0
g57
tp1763
a(I0
g57
tp1764
a(I0
g57
tp1765
a(I0
g57
tp1766
a(I0
g57
tp1767
a(I0
g57
tp1768
a(I0
g57
tp1769
a(I0
g57
tp1770
a(I0
g57
tp1771
a(I0
g57
tp1772
a(I0
g57
tp1773
a(I0
g57
tp1774
a(I0
g57
tp1775
a(I0
g53
tp1776
a(I0
g57
tp1777
a(I0
g57
tp1778
a(I0
g57
tp1779
a(I0
g57
tp1780
a(I0
g57
tp1781
a(I0
g57
tp1782
a(I0
g57
tp1783
a(I0
g57
tp1784
a(I0
g57
tp1785
a(I0
g57
tp1786
a(I0
g57
tp1787
a(I0
g57
tp1788
a(I0
g57
tp1789
a(I0
g57
tp1790
a(I0
g57
tp1791
a(I0
g57
tp1792
a(I0
g57
tp1793
a(I0
g57
tp1794
a(I0
g57
tp1795
a(I0
g57
tp1796
a(I0
g57
tp1797
a(I0
g53
tp1798
a(I0
g53
tp1799
a(I0
g55
tp1800
a(I0
g55
tp1801
a(I0
g53
tp1802
a(I0
g53
tp1803
a(I0
g77
tp1804
a(I0
g77
tp1805
a(I0
g50
tp1806
a(I0
g50
tp1807
a(I0
g55
tp1808
a(I0
g55
tp1809
a(I0
g53
tp1810
a(I0
g53
tp1811
a(I0
g77
tp1812
a(I0
g77
tp1813
a(I0
g50
tp1814
a(I0
g50
tp1815
a(I0
g55
tp1816
a(I0
g55
tp1817
a(I0
g53
tp1818
a(I0
g53
tp1819
a(I0
g57
tp1820
a(I0
g77
tp1821
a(I0
g77
tp1822
a(I0
g50
tp1823
a(I0
g50
tp1824
a(I0
g55
tp1825
a(I0
g55
tp1826
a(I0
g53
tp1827
a(I0
g53
tp1828
a(I0
g77
tp1829
a(I0
g77
tp1830
a(I0
g50
tp1831
a(I0
g50
tp1832
a(I0
g55
tp1833
a(I0
g55
tp1834
a(I0
g53
tp1835
a(I0
g53
tp1836
a(I0
g57
tp1837
a(I0
g57
tp1838
a(I0
g57
tp1839
a(I0
g77
tp1840
a(I0
g77
tp1841
a(I0
g50
tp1842
a(I0
g50
tp1843
a(I0
g55
tp1844
a(I0
g57
tp1845
a(I0
g57
tp1846
a(I0
g55
tp1847
a(I0
g53
tp1848
a(I0
g53
tp1849
a(I0
g57
tp1850
a(I0
g57
tp1851
a(I0
g57
tp1852
a(I0
g57
tp1853
a(I0
g57
tp1854
a(I0
g77
tp1855
a(I0
g50
tp1856
a(I0
g77
tp1857
a(I0
g50
tp1858
a(I0
g77
tp1859
a(I0
g50
tp1860
a(I0
g77
tp1861
a(I0
g50
tp1862
a(I0
g77
tp1863
a(I0
g50
tp1864
a(I0
g77
tp1865
a(I0
g50
tp1866
a(I0
g77
tp1867
a(I0
g57
tp1868
a(I0
g50
tp1869
a(I0
g77
tp1870
a(I0
g50
tp1871
a(I0
g77
tp1872
a(I0
g50
tp1873
a(I0
g77
tp1874
a(I0
g50
tp1875
a(I0
g77
tp1876
a(I0
g50
tp1877
a(I0
g77
tp1878
a(I0
g50
tp1879
a(I0
g77
tp1880
a(I0
g50
tp1881
a(I0
g77
tp1882
a(I0
g50
tp1883
a(I0
g57
tp1884
a(I0
g57
tp1885
a(I0
g57
tp1886
a(I0
g57
tp1887
a(I0
g57
tp1888
a(I0
g57
tp1889
a(I0
g57
tp1890
a(I0
g57
tp1891
a(I0
g77
tp1892
a(I0
g50
tp1893
a(I0
g57
tp1894
a(I0
g57
tp1895
a(I0
g57
tp1896
a(I0
g57
tp1897
a(I0
g57
tp1898
a(I0
g57
tp1899
a(I0
g57
tp1900
a(I0
g57
tp1901
a(I0
g57
tp1902
a(I0
g57
tp1903
a(I0
g57
tp1904
a(I0
g77
tp1905
a(I0
g50
tp1906
a(I0
g57
tp1907
a(I0
g57
tp1908
a(I0
g57
tp1909
a(I0
g57
tp1910
a(I0
g57
tp1911
a(I0
g57
tp1912
a(I0
g57
tp1913
a(I0
g57
tp1914
a(I0
g57
tp1915
a(I0
g57
tp1916
a(I0
g57
tp1917
a(I0
g57
tp1918
a(I0
g57
tp1919
a(I0
g57
tp1920
a(I0
g57
tp1921
a(I0
g57
tp1922
a(I0
g57
tp1923
a(I0
g57
tp1924
a(I0
g57
tp1925
a(I0
g57
tp1926
a(I0
g57
tp1927
a(I0
g55
tp1928
a(I0
g57
tp1929
a(I0
g57
tp1930
a(I0
g57
tp1931
a(I0
g57
tp1932
a(I0
g57
tp1933
a(I0
g57
tp1934
a(I0
g57
tp1935
a(I0
g57
tp1936
a(I0
g57
tp1937
a(I0
g57
tp1938
a(I0
g57
tp1939
a(I0
g57
tp1940
a(I0
g57
tp1941
a(I0
g57
tp1942
a(I0
g57
tp1943
a(I0
g57
tp1944
a(I0
g57
tp1945
a(I0
g57
tp1946
a(I0
g57
tp1947
a(I0
g57
tp1948
a(I0
g57
tp1949
a(I0
g57
tp1950
a(I0
g57
tp1951
a(I0
g57
tp1952
a(I0
g57
tp1953
a(I0
g57
tp1954
a(I0
g57
tp1955
a(I0
g57
tp1956
as.