(dp1
S'layout'
p2
(ilayout
Layout
p3
(dp4
S'capsules'
p5
(lp6
sS'numGhosts'
p7
I1
sS'food'
p8
(igame
Grid
p9
(dp10
S'CELLS_PER_INT'
p11
I30
sS'width'
p12
I7
sS'data'
p13
(lp14
(lp15
I00
aI00
aI00
aI00
aI00
aI00
aI00
aa(lp16
I00
aI01
aI00
aI00
aI00
aI00
aI00
aa(lp17
I00
aI00
aI00
aI00
aI00
aI00
aI00
aa(lp18
I00
aI00
aI00
aI01
aI00
aI00
aI00
aa(lp19
I00
aI00
aI00
aI00
aI00
aI00
aI00
aa(lp20
I00
aI00
aI00
aI00
aI00
aI00
aI00
aa(lp21
I00
aI00
aI00
aI00
aI00
aI00
aI00
aasS'height'
p22
I7
sbsS'agentPositions'
p23
(lp24
(I01
(I2
I5
tp25
tp26
a(I00
(I3
I1
ttp27
asg22
I7
sg12
I7
sS'walls'
p28
(igame
Grid
p29
(dp30
g11
I30
sg12
I7
sg13
(lp31
(lp32
I01
aI01
aI01
aI01
aI01
aI01
aI01
aa(lp33
I01
aI00
aI00
aI00
aI00
aI00
aI01
aa(lp34
I01
aI00
aI01
aI01
aI01
aI00
aI01
aa(lp35
I01
aI00
aI01
aI00
aI01
aI00
aI01
aa(lp36
I01
aI00
aI01
aI00
aI01
aI00
aI01
aa(lp37
I01
aI00
aI00
aI00
aI00
aI00
aI01
aa(lp38
I01
aI01
aI01
aI01
aI01
aI01
aI01
aasg22
I7
sbsS'totalFood'
p39
I2
sS'layoutText'
p40
(lp41
S'%%%%%%%'
p42
aS'% P   %'
p43
aS'% %%% %'
p44
aS'% %.  %'
p45
aS'% %%% %'
p46
aS'%. G  %'
p47
aS'%%%%%%%'
p48
asbsS'actions'
p49
(lp50
(I0
S'East'
p51
tp52
a(I0
S'Stop'
p53
tp54
a(I0
g51
tp55
a(I0
g51
tp56
a(I0
S'South'
p57
tp58
a(I0
g57
tp59
a(I0
g57
tp60
a(I0
g53
tp61
a(I0
S'North'
p62
tp63
a(I0
S'West'
p64
tp65
a(I0
g64
tp66
a(I0
g53
tp67
a(I0
g51
tp68
a(I0
g51
tp69
a(I0
g53
tp70
a(I0
g62
tp71
a(I0
g53
tp72
a(I0
g53
tp73
a(I0
g53
tp74
a(I0
g57
tp75
a(I0
g64
tp76
a(I0
g53
tp77
a(I0
g53
tp78
a(I0
g51
tp79
a(I0
g62
tp80
a(I0
g57
tp81
a(I0
g64
tp82
a(I0
g64
tp83
a(I0
g53
tp84
a(I0
g51
tp85
a(I0
g51
tp86
a(I0
g53
tp87
a(I0
g62
tp88
a(I0
g57
tp89
a(I0
g64
tp90
a(I0
g64
tp91
a(I0
g53
tp92
a(I0
g53
tp93
a(I0
g51
tp94
a(I0
g51
tp95
a(I0
g62
tp96
a(I0
g62
tp97
a(I0
g64
tp98
a(I0
g64
tp99
a(I0
g53
tp100
a(I0
g51
tp101
a(I0
g53
tp102
a(I0
g53
tp103
a(I0
g51
tp104
a(I0
g64
tp105
a(I0
g53
tp106
a(I0
g51
tp107
a(I0
g53
tp108
a(I0
g57
tp109
a(I0
g53
tp110
a(I0
g53
tp111
a(I0
g62
tp112
a(I0
g53
tp113
a(I0
g57
tp114
a(I0
g62
tp115
a(I0
g57
tp116
a(I0
g57
tp117
a(I0
g64
tp118
a(I0
g51
tp119
a(I0
g62
tp120
a(I0
g62
tp121
a(I0
g57
tp122
a(I0
g62
tp123
a(I0
g53
tp124
a(I0
g53
tp125
a(I0
g53
tp126
a(I0
g53
tp127
a(I0
g53
tp128
a(I0
g53
tp129
a(I0
g64
tp130
a(I0
g51
tp131
a(I0
g57
tp132
a(I0
g62
tp133
a(I0
g53
tp134
a(I0
g64
tp135
a(I0
g51
tp136
a(I0
g57
tp137
a(I0
g62
tp138
a(I0
g64
tp139
a(I0
g51
tp140
a(I0
g57
tp141
a(I0
g62
tp142
a(I0
g64
tp143
a(I0
g51
tp144
a(I0
g57
tp145
a(I0
g62
tp146
a(I0
g53
tp147
a(I0
g64
tp148
a(I0
g53
tp149
a(I0
g51
tp150
a(I0
g57
tp151
a(I0
g62
tp152
a(I0
g64
tp153
a(I0
g51
tp154
a(I0
g57
tp155
a(I0
g62
tp156
a(I0
g64
tp157
a(I0
g51
tp158
a(I0
g53
tp159
a(I0
g53
tp160
a(I0
g53
tp161
a(I0
g57
tp162
a(I0
g62
tp163
a(I0
g53
tp164
a(I0
g53
tp165
a(I0
g53
tp166
a(I0
g53
tp167
a(I0
g64
tp168
a(I0
g51
tp169
a(I0
g64
tp170
a(I0
g53
tp171
a(I0
g53
tp172
a(I0
g64
tp173
a(I0
g51
tp174
a(I0
g51
tp175
a(I0
g64
tp176
a(I0
g64
tp177
a(I0
g51
tp178
a(I0
g51
tp179
a(I0
g64
tp180
a(I0
g51
tp181
a(I0
g53
tp182
a(I0
g53
tp183
a(I0
g53
tp184
a(I0
g53
tp185
a(I0
g53
tp186
a(I0
g53
tp187
a(I0
g53
tp188
a(I0
g53
tp189
a(I0
g53
tp190
a(I0
g53
tp191
a(I0
g53
tp192
a(I0
g53
tp193
a(I0
g64
tp194
a(I0
g53
tp195
a(I0
g64
tp196
a(I0
g53
tp197
a(I0
g51
tp198
a(I0
g53
tp199
a(I0
g51
tp200
a(I0
g64
tp201
a(I0
g64
tp202
a(I0
g51
tp203
a(I0
g51
tp204
a(I0
g64
tp205
a(I0
g64
tp206
a(I0
g51
tp207
a(I0
g53
tp208
a(I0
g51
tp209
a(I0
g64
tp210
a(I0
g64
tp211
a(I0
g51
tp212
a(I0
g51
tp213
a(I0
g64
tp214
a(I0
g64
tp215
a(I0
g51
tp216
a(I0
g64
tp217
a(I0
g53
tp218
a(I0
g53
tp219
a(I0
g53
tp220
a(I0
g51
tp221
a(I0
g51
tp222
a(I0
g64
tp223
a(I0
g64
tp224
a(I0
g51
tp225
a(I0
g51
tp226
a(I0
g64
tp227
a(I0
g64
tp228
a(I0
g51
tp229
a(I0
g51
tp230
a(I0
g64
tp231
a(I0
g64
tp232
a(I0
g64
tp233
a(I0
g51
tp234
a(I0
g64
tp235
a(I0
g53
tp236
a(I0
g53
tp237
a(I0
g53
tp238
a(I0
g53
tp239
a(I0
g53
tp240
a(I0
g53
tp241
a(I0
g64
tp242
a(I0
g57
tp243
a(I0
g62
tp244
a(I0
g51
tp245
a(I0
g51
tp246
a(I0
g64
tp247
a(I0
g64
tp248
a(I0
g57
tp249
a(I0
g62
tp250
a(I0
g51
tp251
a(I0
g51
tp252
a(I0
g64
tp253
a(I0
g64
tp254
a(I0
g57
tp255
a(I0
g62
tp256
a(I0
g51
tp257
a(I0
g51
tp258
a(I0
g64
tp259
a(I0
g51
tp260
a(I0
g64
tp261
a(I0
g53
tp262
a(I0
g51
tp263
a(I0
g51
tp264
a(I0
g53
tp265
a(I0
g53
tp266
a(I0
g53
tp267
a(I0
g53
tp268
a(I0
g53
tp269
a(I0
g53
tp270
a(I0
g53
tp271
a(I0
g53
tp272
a(I0
g53
tp273
a(I0
g53
tp274
a(I0
g53
tp275
a(I0
g53
tp276
a(I0
g53
tp277
a(I0
g53
tp278
a(I0
g53
tp279
a(I0
g53
tp280
a(I0
g53
tp281
a(I0
g53
tp282
a(I0
g53
tp283
a(I0
g53
tp284
a(I0
g53
tp285
a(I0
g53
tp286
a(I0
g53
tp287
a(I0
g53
tp288
a(I0
g53
tp289
a(I0
g53
tp290
a(I0
g53
tp291
a(I0
g53
tp292
a(I0
g53
tp293
a(I0
g64
tp294
a(I0
g64
tp295
a(I0
g51
tp296
a(I0
g51
tp297
a(I0
g64
tp298
a(I0
g64
tp299
a(I0
g51
tp300
a(I0
g51
tp301
a(I0
g51
tp302
a(I0
g64
tp303
a(I0
g51
tp304
a(I0
g64
tp305
a(I0
g64
tp306
a(I0
g64
tp307
a(I0
g64
tp308
a(I0
g57
tp309
a(I0
g62
tp310
a(I0
g51
tp311
a(I0
g51
tp312
a(I0
g64
tp313
a(I0
g53
tp314
a(I0
g64
tp315
a(I0
g57
tp316
a(I0
g62
tp317
a(I0
g57
tp318
a(I0
g62
tp319
a(I0
g51
tp320
a(I0
g51
tp321
a(I0
g64
tp322
a(I0
g51
tp323
a(I0
g51
tp324
a(I0
g64
tp325
a(I0
g64
tp326
a(I0
g53
tp327
a(I0
g64
tp328
a(I0
g57
tp329
a(I0
g53
tp330
a(I0
g62
tp331
a(I0
g51
tp332
a(I0
g53
tp333
a(I0
g53
tp334
a(I0
g64
tp335
a(I0
g51
tp336
a(I0
g53
tp337
a(I0
g53
tp338
a(I0
g53
tp339
a(I0
g51
tp340
a(I0
g64
tp341
a(I0
g64
tp342
a(I0
g57
tp343
a(I0
g62
tp344
a(I0
g51
tp345
a(I0
g51
tp346
a(I0
g64
tp347
a(I0
g64
tp348
a(I0
g57
tp349
a(I0
g62
tp350
a(I0
g53
tp351
a(I0
g51
tp352
a(I0
g51
tp353
a(I0
g64
tp354
a(I0
g64
tp355
a(I0
g51
tp356
a(I0
g51
tp357
a(I0
g64
tp358
a(I0
g64
tp359
a(I0
g57
tp360
a(I0
g53
tp361
a(I0
g62
tp362
a(I0
g51
tp363
a(I0
g53
tp364
a(I0
g53
tp365
a(I0
g53
tp366
a(I0
g53
tp367
a(I0
g53
tp368
a(I0
g53
tp369
a(I0
g53
tp370
a(I0
g53
tp371
a(I0
g53
tp372
a(I0
g53
tp373
a(I0
g53
tp374
a(I0
g53
tp375
a(I0
g53
tp376
a(I0
g53
tp377
a(I0
g53
tp378
a(I0
g53
tp379
a(I0
g53
tp380
a(I0
g53
tp381
a(I0
g53
tp382
a(I0
g53
tp383
a(I0
g53
tp384
a(I0
g53
tp385
a(I0
g53
tp386
a(I0
g51
tp387
a(I0
g51
tp388
a(I0
g64
tp389
a(I0
g64
tp390
a(I0
g53
tp391
a(I0
g53
tp392
a(I0
g51
tp393
a(I0
g51
tp394
a(I0
g64
tp395
a(I0
g64
tp396
a(I0
g51
tp397
a(I0
g51
tp398
a(I0
g64
tp399
a(I0
g64
tp400
a(I0
g51
tp401
a(I0
g64
tp402
a(I0
g64
tp403
a(I0
g51
tp404
a(I0
g64
tp405
a(I0
g57
tp406
a(I0
g62
tp407
a(I0
g51
tp408
a(I0
g64
tp409
a(I0
g51
tp410
a(I0
g64
tp411
a(I0
g57
tp412
a(I0
g62
tp413
a(I0
g51
tp414
a(I0
g53
tp415
a(I0
g64
tp416
a(I0
g51
tp417
a(I0
g64
tp418
a(I0
g51
tp419
a(I0
g64
tp420
a(I0
g51
tp421
a(I0
g64
tp422
a(I0
g51
tp423
a(I0
g64
tp424
a(I0
g51
tp425
a(I0
g64
tp426
a(I0
g51
tp427
a(I0
g64
tp428
a(I0
g53
tp429
a(I0
g51
tp430
a(I0
g64
tp431
a(I0
g51
tp432
a(I0
g64
tp433
a(I0
g51
tp434
a(I0
g64
tp435
a(I0
g51
tp436
a(I0
g53
tp437
a(I0
g64
tp438
a(I0
g57
tp439
a(I0
g53
tp440
a(I0
g62
tp441
a(I0
g51
tp442
a(I0
g53
tp443
a(I0
g53
tp444
a(I0
g53
tp445
a(I0
g53
tp446
a(I0
g64
tp447
a(I0
g51
tp448
a(I0
g51
tp449
a(I0
g53
tp450
a(I0
g53
tp451
a(I0
g51
tp452
a(I0
g64
tp453
a(I0
g64
tp454
a(I0
g51
tp455
a(I0
g51
tp456
a(I0
g64
tp457
a(I0
g64
tp458
a(I0
g51
tp459
a(I0
g51
tp460
a(I0
g64
tp461
a(I0
g64
tp462
a(I0
g51
tp463
a(I0
g51
tp464
a(I0
g64
tp465
a(I0
g53
tp466
a(I0
g64
tp467
a(I0
g51
tp468
a(I0
g51
tp469
a(I0
g64
tp470
a(I0
g64
tp471
a(I0
g51
tp472
a(I0
g51
tp473
a(I0
g64
tp474
a(I0
g64
tp475
a(I0
g51
tp476
a(I0
g51
tp477
a(I0
g64
tp478
a(I0
g64
tp479
a(I0
g51
tp480
a(I0
g51
tp481
a(I0
g64
tp482
a(I0
g64
tp483
a(I0
g53
tp484
a(I0
g53
tp485
a(I0
g51
tp486
a(I0
g51
tp487
a(I0
g64
tp488
a(I0
g64
tp489
a(I0
g51
tp490
a(I0
g51
tp491
a(I0
g64
tp492
a(I0
g64
tp493
a(I0
g51
tp494
a(I0
g51
tp495
a(I0
g64
tp496
a(I0
g64
tp497
a(I0
g51
tp498
a(I0
g51
tp499
a(I0
g64
tp500
a(I0
g64
tp501
a(I0
g51
tp502
a(I0
g51
tp503
a(I0
g64
tp504
a(I0
g64
tp505
a(I0
g51
tp506
a(I0
g51
tp507
a(I0
g64
tp508
a(I0
g64
tp509
a(I0
g51
tp510
a(I0
g51
tp511
a(I0
g64
tp512
a(I0
g64
tp513
a(I0
g53
tp514
a(I0
g51
tp515
a(I0
g51
tp516
a(I0
g64
tp517
a(I0
g64
tp518
a(I0
g64
tp519
a(I0
g51
tp520
a(I0
g53
tp521
a(I0
g64
tp522
a(I0
g57
tp523
a(I0
g62
tp524
a(I0
g53
tp525
a(I0
g53
tp526
a(I0
g57
tp527
a(I0
g53
tp528
a(I0
g57
tp529
a(I0
g53
tp530
a(I0
g53
tp531
a(I0
g53
tp532
a(I0
g62
tp533
a(I0
g62
tp534
a(I0
g53
tp535
a(I0
g53
tp536
a(I0
g53
tp537
a(I0
g53
tp538
a(I0
g53
tp539
a(I0
g53
tp540
a(I0
g53
tp541
a(I0
g53
tp542
a(I0
g53
tp543
a(I0
g53
tp544
a(I0
g51
tp545
a(I0
g64
tp546
a(I0
g51
tp547
a(I0
g64
tp548
a(I0
g51
tp549
a(I0
g51
tp550
a(I0
g53
tp551
a(I0
g53
tp552
a(I0
g51
tp553
a(I0
g64
tp554
a(I0
g64
tp555
a(I0
g51
tp556
a(I0
g51
tp557
a(I0
g64
tp558
a(I0
g64
tp559
a(I0
g51
tp560
a(I0
g51
tp561
a(I0
g64
tp562
a(I0
g64
tp563
a(I0
g53
tp564
a(I0
g51
tp565
a(I0
g64
tp566
a(I0
g51
tp567
a(I0
g51
tp568
a(I0
g64
tp569
a(I0
g64
tp570
a(I0
g51
tp571
a(I0
g51
tp572
a(I0
g64
tp573
a(I0
g64
tp574
a(I0
g51
tp575
a(I0
g53
tp576
a(I0
g51
tp577
a(I0
g64
tp578
a(I0
g64
tp579
a(I0
g51
tp580
a(I0
g64
tp581
a(I0
g64
tp582
a(I0
g57
tp583
a(I0
g62
tp584
a(I0
g53
tp585
a(I0
g53
tp586
a(I0
g53
tp587
a(I0
g53
tp588
a(I0
g53
tp589
a(I0
g53
tp590
a(I0
g53
tp591
a(I0
g53
tp592
a(I0
g53
tp593
a(I0
g53
tp594
a(I0
g53
tp595
a(I0
g53
tp596
a(I0
g53
tp597
a(I0
g53
tp598
a(I0
g53
tp599
a(I0
g53
tp600
a(I0
g53
tp601
a(I0
g57
tp602
a(I0
g53
tp603
a(I0
g57
tp604
a(I0
g62
tp605
a(I0
g62
tp606
a(I0
g51
tp607
a(I0
g53
tp608
a(I0
g53
tp609
a(I0
g53
tp610
a(I0
g53
tp611
a(I0
g53
tp612
a(I0
g53
tp613
a(I0
g53
tp614
a(I0
g53
tp615
a(I0
g64
tp616
a(I0
g51
tp617
a(I0
g64
tp618
a(I0
g51
tp619
a(I0
g64
tp620
a(I0
g51
tp621
a(I0
g64
tp622
a(I0
g51
tp623
a(I0
g64
tp624
a(I0
g51
tp625
a(I0
g64
tp626
a(I0
g51
tp627
a(I0
g64
tp628
a(I0
g51
tp629
a(I0
g64
tp630
a(I0
g51
tp631
a(I0
g64
tp632
a(I0
g51
tp633
a(I0
g64
tp634
a(I0
g51
tp635
a(I0
g64
tp636
a(I0
g51
tp637
a(I0
g64
tp638
a(I0
g51
tp639
a(I0
g64
tp640
a(I0
g51
tp641
a(I0
g64
tp642
a(I0
g51
tp643
a(I0
g64
tp644
a(I0
g51
tp645
a(I0
g64
tp646
a(I0
g53
tp647
a(I0
g53
tp648
a(I0
g53
tp649
a(I0
g53
tp650
a(I0
g51
tp651
a(I0
g64
tp652
a(I0
g51
tp653
a(I0
g64
tp654
a(I0
g51
tp655
a(I0
g64
tp656
a(I0
g51
tp657
a(I0
g64
tp658
a(I0
g51
tp659
a(I0
g64
tp660
a(I0
g53
tp661
a(I0
g51
tp662
a(I0
g64
tp663
a(I0
g51
tp664
a(I0
g64
tp665
a(I0
g53
tp666
a(I0
g57
tp667
a(I0
g62
tp668
a(I0
g51
tp669
a(I0
g51
tp670
a(I0
g53
tp671
a(I0
g53
tp672
a(I0
g53
tp673
a(I0
g53
tp674
a(I0
g53
tp675
a(I0
g53
tp676
a(I0
g53
tp677
a(I0
g53
tp678
a(I0
g53
tp679
a(I0
g53
tp680
a(I0
g51
tp681
a(I0
g64
tp682
a(I0
g64
tp683
a(I0
g51
tp684
a(I0
g51
tp685
a(I0
g64
tp686
a(I0
g64
tp687
a(I0
g51
tp688
a(I0
g51
tp689
a(I0
g64
tp690
a(I0
g64
tp691
a(I0
g51
tp692
a(I0
g51
tp693
a(I0
g64
tp694
a(I0
g64
tp695
a(I0
g51
tp696
a(I0
g51
tp697
a(I0
g64
tp698
a(I0
g64
tp699
a(I0
g51
tp700
a(I0
g53
tp701
a(I0
g51
tp702
a(I0
g64
tp703
a(I0
g64
tp704
a(I0
g53
tp705
a(I0
g53
tp706
a(I0
g51
tp707
a(I0
g51
tp708
a(I0
g64
tp709
a(I0
g64
tp710
a(I0
g51
tp711
a(I0
g51
tp712
a(I0
g64
tp713
a(I0
g64
tp714
a(I0
g51
tp715
a(I0
g51
tp716
a(I0
g53
tp717
a(I0
g64
tp718
a(I0
g64
tp719
a(I0
g51
tp720
a(I0
g53
tp721
a(I0
g51
tp722
a(I0
g64
tp723
a(I0
g64
tp724
a(I0
g51
tp725
a(I0
g51
tp726
a(I0
g64
tp727
a(I0
g64
tp728
a(I0
g51
tp729
a(I0
g51
tp730
a(I0
g64
tp731
a(I0
g51
tp732
a(I0
g64
tp733
a(I0
g64
tp734
a(I0
g51
tp735
a(I0
g53
tp736
a(I0
g53
tp737
a(I0
g53
tp738
a(I0
g51
tp739
a(I0
g64
tp740
a(I0
g64
tp741
a(I0
g51
tp742
a(I0
g51
tp743
a(I0
g53
tp744
a(I0
g64
tp745
a(I0
g64
tp746
a(I0
g51
tp747
a(I0
g51
tp748
a(I0
g64
tp749
a(I0
g64
tp750
a(I0
g51
tp751
a(I0
g51
tp752
a(I0
g64
tp753
a(I0
g64
tp754
a(I0
g51
tp755
a(I0
g51
tp756
a(I0
g64
tp757
a(I0
g64
tp758
a(I0
g51
tp759
a(I0
g53
tp760
a(I0
g53
tp761
a(I0
g53
tp762
a(I0
g53
tp763
a(I0
g51
tp764
a(I0
g64
tp765
a(I0
g64
tp766
a(I0
g53
tp767
a(I0
g53
tp768
a(I0
g53
tp769
a(I0
g53
tp770
a(I0
g51
tp771
a(I0
g53
tp772
a(I0
g53
tp773
a(I0
g51
tp774
a(I0
g64
tp775
a(I0
g64
tp776
a(I0
g53
tp777
a(I0
g53
tp778
a(I0
g53
tp779
a(I0
g53
tp780
a(I0
g53
tp781
a(I0
g53
tp782
a(I0
g64
tp783
a(I0
g51
tp784
a(I0
g64
tp785
a(I0
g57
tp786
a(I0
g57
tp787
a(I0
g62
tp788
a(I0
g62
tp789
a(I0
g53
tp790
a(I0
g53
tp791
a(I0
g53
tp792
a(I0
g53
tp793
a(I0
g53
tp794
a(I0
g53
tp795
a(I0
g53
tp796
a(I0
g53
tp797
a(I0
g53
tp798
a(I0
g53
tp799
a(I0
g57
tp800
a(I0
g53
tp801
a(I0
g53
tp802
a(I0
g53
tp803
a(I0
g53
tp804
a(I0
g53
tp805
a(I0
g57
tp806
a(I0
g57
tp807
a(I0
g53
tp808
a(I0
g53
tp809
a(I0
g53
tp810
a(I0
g53
tp811
a(I0
g53
tp812
a(I0
g53
tp813
a(I0
g53
tp814
a(I0
g53
tp815
a(I0
g53
tp816
a(I0
g53
tp817
a(I0
g53
tp818
a(I0
g53
tp819
a(I0
g53
tp820
a(I0
g53
tp821
a(I0
g53
tp822
a(I0
g53
tp823
a(I0
g62
tp824
a(I0
g53
tp825
a(I0
g53
tp826
a(I0
g53
tp827
a(I0
g62
tp828
a(I0
g57
tp829
a(I0
g57
tp830
a(I0
g53
tp831
a(I0
g53
tp832
a(I0
g53
tp833
a(I0
g53
tp834
a(I0
g53
tp835
a(I0
g53
tp836
a(I0
g53
tp837
a(I0
g53
tp838
a(I0
g53
tp839
a(I0
g53
tp840
a(I0
g53
tp841
a(I0
g53
tp842
a(I0
g53
tp843
a(I0
g53
tp844
a(I0
g53
tp845
a(I0
g53
tp846
a(I0
g53
tp847
a(I0
g53
tp848
a(I0
g53
tp849
a(I0
g53
tp850
a(I0
g53
tp851
a(I0
g53
tp852
a(I0
g53
tp853
a(I0
g53
tp854
a(I0
g53
tp855
a(I0
g53
tp856
a(I0
g53
tp857
a(I0
g62
tp858
a(I0
g62
tp859
a(I0
g57
tp860
a(I0
g57
tp861
a(I0
g62
tp862
a(I0
g62
tp863
a(I0
g57
tp864
a(I0
g62
tp865
a(I0
g57
tp866
a(I0
g57
tp867
a(I0
g62
tp868
a(I0
g62
tp869
a(I0
g57
tp870
a(I0
g57
tp871
a(I0
g62
tp872
a(I0
g62
tp873
a(I0
g57
tp874
a(I0
g62
tp875
a(I0
g62
tp876
a(I0
g57
tp877
a(I0
g57
tp878
a(I0
g62
tp879
a(I0
g57
tp880
a(I0
g57
tp881
a(I0
g62
tp882
a(I0
g62
tp883
a(I0
g57
tp884
a(I0
g57
tp885
a(I0
g62
tp886
a(I0
g53
tp887
a(I0
g53
tp888
a(I0
g53
tp889
a(I0
g62
tp890
a(I0
g57
tp891
a(I0
g57
tp892
a(I0
g53
tp893
a(I0
g53
tp894
a(I0
g53
tp895
a(I0
g53
tp896
a(I0
g62
tp897
a(I0
g62
tp898
a(I0
g57
tp899
a(I0
g57
tp900
a(I0
g62
tp901
a(I0
g62
tp902
a(I0
g62
tp903
a(I0
g51
tp904
a(I0
g51
tp905
a(I0
g64
tp906
a(I0
g53
tp907
a(I0
g53
tp908
a(I0
g53
tp909
a(I0
g53
tp910
a(I0
g53
tp911
a(I0
g53
tp912
a(I0
g53
tp913
a(I0
g53
tp914
a(I0
g64
tp915
a(I0
g53
tp916
a(I0
g53
tp917
a(I0
g53
tp918
a(I0
g53
tp919
a(I0
g53
tp920
a(I0
g53
tp921
a(I0
g53
tp922
a(I0
g53
tp923
a(I0
g57
tp924
a(I0
g57
tp925
a(I0
g62
tp926
a(I0
g57
tp927
a(I0
g62
tp928
a(I0
g62
tp929
a(I0
g57
tp930
a(I0
g53
tp931
a(I0
g53
tp932
a(I0
g53
tp933
a(I0
g53
tp934
a(I0
g62
tp935
a(I0
g53
tp936
a(I0
g53
tp937
a(I0
g53
tp938
a(I0
g53
tp939
a(I0
g53
tp940
a(I0
g51
tp941
a(I0
g53
tp942
a(I0
g64
tp943
a(I0
g53
tp944
a(I0
g53
tp945
a(I0
g53
tp946
a(I0
g51
tp947
a(I0
g64
tp948
a(I0
g53
tp949
a(I0
g53
tp950
a(I0
g53
tp951
a(I0
g53
tp952
a(I0
g53
tp953
a(I0
g53
tp954
a(I0
g53
tp955
a(I0
g57
tp956
a(I0
g57
tp957
a(I0
g62
tp958
a(I0
g62
tp959
a(I0
g53
tp960
a(I0
g57
tp961
a(I0
g57
tp962
a(I0
g62
tp963
a(I0
g62
tp964
a(I0
g57
tp965
a(I0
g57
tp966
a(I0
g62
tp967
a(I0
g62
tp968
a(I0
g57
tp969
a(I0
g57
tp970
a(I0
g62
tp971
a(I0
g62
tp972
a(I0
g51
tp973
a(I0
g53
tp974
a(I0
g51
tp975
a(I0
g53
tp976
a(I0
g53
tp977
a(I0
g53
tp978
a(I0
g53
tp979
a(I0
g53
tp980
a(I0
g53
tp981
a(I0
g53
tp982
a(I0
g51
tp983
a(I0
g64
tp984
a(I0
g64
tp985
a(I0
g53
tp986
a(I0
g53
tp987
a(I0
g53
tp988
a(I0
g53
tp989
as.