(dp1
S'layout'
p2
(ilayout
Layout
p3
(dp4
S'capsules'
p5
(lp6
sS'numGhosts'
p7
I1
sS'food'
p8
(igame
Grid
p9
(dp10
S'CELLS_PER_INT'
p11
I30
sS'width'
p12
I7
sS'data'
p13
(lp14
(lp15
I00
aI00
aI00
aI00
aI00
aI00
aI00
aa(lp16
I00
aI01
aI00
aI00
aI00
aI00
aI00
aa(lp17
I00
aI00
aI00
aI00
aI00
aI00
aI00
aa(lp18
I00
aI00
aI00
aI01
aI00
aI00
aI00
aa(lp19
I00
aI00
aI00
aI00
aI00
aI00
aI00
aa(lp20
I00
aI00
aI00
aI00
aI00
aI00
aI00
aa(lp21
I00
aI00
aI00
aI00
aI00
aI00
aI00
aasS'height'
p22
I7
sbsS'agentPositions'
p23
(lp24
(I01
(I2
I5
tp25
tp26
a(I00
(I3
I1
ttp27
asg22
I7
sg12
I7
sS'walls'
p28
(igame
Grid
p29
(dp30
g11
I30
sg12
I7
sg13
(lp31
(lp32
I01
aI01
aI01
aI01
aI01
aI01
aI01
aa(lp33
I01
aI00
aI00
aI00
aI00
aI00
aI01
aa(lp34
I01
aI00
aI01
aI01
aI01
aI00
aI01
aa(lp35
I01
aI00
aI01
aI00
aI01
aI00
aI01
aa(lp36
I01
aI00
aI01
aI00
aI01
aI00
aI01
aa(lp37
I01
aI00
aI00
aI00
aI00
aI00
aI01
aa(lp38
I01
aI01
aI01
aI01
aI01
aI01
aI01
aasg22
I7
sbsS'totalFood'
p39
I2
sS'layoutText'
p40
(lp41
S'%%%%%%%'
p42
aS'% P   %'
p43
aS'% %%% %'
p44
aS'% %.  %'
p45
aS'% %%% %'
p46
aS'%. G  %'
p47
aS'%%%%%%%'
p48
asbsS'actions'
p49
(lp50
(I0
S'West'
p51
tp52
a(I0
S'South'
p53
tp54
a(I0
g53
tp55
a(I0
g53
tp56
a(I0
g53
tp57
a(I0
S'Stop'
p58
tp59
a(I0
g58
tp60
a(I0
S'East'
p61
tp62
a(I0
g61
tp63
a(I0
g58
tp64
a(I0
g61
tp65
a(I0
g51
tp66
a(I0
g51
tp67
a(I0
g61
tp68
a(I0
g51
tp69
a(I0
g61
tp70
a(I0
g61
tp71
a(I0
g51
tp72
a(I0
g61
tp73
a(I0
g61
tp74
a(I0
g51
tp75
a(I0
g51
tp76
a(I0
g51
tp77
a(I0
g61
tp78
a(I0
g61
tp79
a(I0
g51
tp80
a(I0
g51
tp81
a(I0
g61
tp82
a(I0
g61
tp83
a(I0
g51
tp84
a(I0
g61
tp85
a(I0
g51
tp86
a(I0
g58
tp87
a(I0
g51
tp88
a(I0
g61
tp89
a(I0
g51
tp90
a(I0
g51
tp91
a(I0
S'North'
p92
tp93
a(I0
g53
tp94
a(I0
g92
tp95
a(I0
g53
tp96
a(I0
g58
tp97
a(I0
g92
tp98
a(I0
g53
tp99
a(I0
g92
tp100
a(I0
g58
tp101
a(I0
g53
tp102
a(I0
g92
tp103
a(I0
g53
tp104
a(I0
g92
tp105
a(I0
g92
tp106
a(I0
g53
tp107
a(I0
g53
tp108
a(I0
g61
tp109
a(I0
g51
tp110
a(I0
g58
tp111
a(I0
g58
tp112
a(I0
g58
tp113
a(I0
g92
tp114
a(I0
g92
tp115
a(I0
g53
tp116
a(I0
g92
tp117
a(I0
g53
tp118
a(I0
g92
tp119
a(I0
g92
tp120
a(I0
g58
tp121
a(I0
g58
tp122
a(I0
g58
tp123
a(I0
g58
tp124
a(I0
g58
tp125
a(I0
g58
tp126
a(I0
g53
tp127
a(I0
g58
tp128
a(I0
g53
tp129
a(I0
g53
tp130
a(I0
g92
tp131
a(I0
g92
tp132
a(I0
g53
tp133
a(I0
g53
tp134
a(I0
g61
tp135
a(I0
g61
tp136
a(I0
g58
tp137
a(I0
g61
tp138
a(I0
g51
tp139
a(I0
g51
tp140
a(I0
g61
tp141
a(I0
g61
tp142
a(I0
g51
tp143
a(I0
g51
tp144
a(I0
g61
tp145
a(I0
g61
tp146
a(I0
g51
tp147
a(I0
g51
tp148
a(I0
g58
tp149
a(I0
g61
tp150
a(I0
g61
tp151
a(I0
g51
tp152
a(I0
g51
tp153
a(I0
g51
tp154
a(I0
g61
tp155
a(I0
g51
tp156
a(I0
g61
tp157
a(I0
g58
tp158
a(I0
g51
tp159
a(I0
g61
tp160
a(I0
g61
tp161
a(I0
g61
tp162
a(I0
g51
tp163
a(I0
g58
tp164
a(I0
g61
tp165
a(I0
g51
tp166
a(I0
g61
tp167
a(I0
g61
tp168
a(I0
g92
tp169
a(I0
g92
tp170
a(I0
g51
tp171
a(I0
g51
tp172
as.