(dp1
S'layout'
p2
(ilayout
Layout
p3
(dp4
S'capsules'
p5
(lp6
sS'numGhosts'
p7
I1
sS'food'
p8
(igame
Grid
p9
(dp10
S'CELLS_PER_INT'
p11
I30
sS'width'
p12
I7
sS'data'
p13
(lp14
(lp15
I00
aI00
aI00
aI00
aI00
aI00
aI00
aa(lp16
I00
aI01
aI00
aI00
aI00
aI00
aI00
aa(lp17
I00
aI00
aI00
aI00
aI00
aI00
aI00
aa(lp18
I00
aI00
aI00
aI01
aI00
aI00
aI00
aa(lp19
I00
aI00
aI00
aI00
aI00
aI00
aI00
aa(lp20
I00
aI00
aI00
aI00
aI00
aI00
aI00
aa(lp21
I00
aI00
aI00
aI00
aI00
aI00
aI00
aasS'height'
p22
I7
sbsS'agentPositions'
p23
(lp24
(I01
(I2
I5
tp25
tp26
a(I00
(I3
I1
ttp27
asg22
I7
sg12
I7
sS'walls'
p28
(igame
Grid
p29
(dp30
g11
I30
sg12
I7
sg13
(lp31
(lp32
I01
aI01
aI01
aI01
aI01
aI01
aI01
aa(lp33
I01
aI00
aI00
aI00
aI00
aI00
aI01
aa(lp34
I01
aI00
aI01
aI01
aI01
aI00
aI01
aa(lp35
I01
aI00
aI01
aI00
aI01
aI00
aI01
aa(lp36
I01
aI00
aI01
aI00
aI01
aI00
aI01
aa(lp37
I01
aI00
aI00
aI00
aI00
aI00
aI01
aa(lp38
I01
aI01
aI01
aI01
aI01
aI01
aI01
aasg22
I7
sbsS'totalFood'
p39
I2
sS'layoutText'
p40
(lp41
S'%%%%%%%'
p42
aS'% P   %'
p43
aS'% %%% %'
p44
aS'% %.  %'
p45
aS'% %%% %'
p46
aS'%. G  %'
p47
aS'%%%%%%%'
p48
asbsS'actions'
p49
(lp50
(I0
S'East'
p51
tp52
a(I0
g51
tp53
a(I0
g51
tp54
a(I0
S'West'
p55
tp56
a(I0
g51
tp57
a(I0
S'Stop'
p58
tp59
a(I0
g58
tp60
a(I0
g58
tp61
a(I0
S'South'
p62
tp63
a(I0
g62
tp64
a(I0
g62
tp65
a(I0
g62
tp66
a(I0
g58
tp67
a(I0
g58
tp68
a(I0
g58
tp69
a(I0
g55
tp70
a(I0
g55
tp71
a(I0
g55
tp72
a(I0
g55
tp73
a(I0
g58
tp74
a(I0
g58
tp75
a(I0
g58
tp76
a(I0
g58
tp77
a(I0
g58
tp78
a(I0
g58
tp79
a(I0
g58
tp80
a(I0
g58
tp81
a(I0
g58
tp82
a(I0
g58
tp83
a(I0
g58
tp84
a(I0
S'North'
p85
tp86
a(I0
g62
tp87
a(I0
g85
tp88
a(I0
g58
tp89
a(I0
g58
tp90
a(I0
g58
tp91
a(I0
g58
tp92
a(I0
g85
tp93
a(I0
g58
tp94
a(I0
g62
tp95
a(I0
g85
tp96
a(I0
g58
tp97
a(I0
g58
tp98
a(I0
g58
tp99
a(I0
g62
tp100
a(I0
g58
tp101
a(I0
g62
tp102
a(I0
g58
tp103
a(I0
g85
tp104
a(I0
g58
tp105
a(I0
g58
tp106
a(I0
g58
tp107
a(I0
g58
tp108
a(I0
g58
tp109
a(I0
g58
tp110
a(I0
g58
tp111
a(I0
g58
tp112
a(I0
g62
tp113
a(I0
g51
tp114
a(I0
g55
tp115
a(I0
g51
tp116
a(I0
g58
tp117
a(I0
g58
tp118
a(I0
g58
tp119
a(I0
g51
tp120
a(I0
g51
tp121
a(I0
g55
tp122
a(I0
g55
tp123
a(I0
g51
tp124
a(I0
g51
tp125
a(I0
g55
tp126
a(I0
g55
tp127
a(I0
g51
tp128
a(I0
g55
tp129
a(I0
g58
tp130
a(I0
g55
tp131
a(I0
g85
tp132
a(I0
g58
tp133
a(I0
g58
tp134
a(I0
g58
tp135
a(I0
g58
tp136
a(I0
g58
tp137
a(I0
g58
tp138
a(I0
g58
tp139
a(I0
g85
tp140
a(I0
g85
tp141
a(I0
g85
tp142
a(I0
g58
tp143
a(I0
g62
tp144
a(I0
g85
tp145
a(I0
g62
tp146
a(I0
g62
tp147
a(I0
g85
tp148
a(I0
g85
tp149
a(I0
g51
tp150
a(I0
g51
tp151
a(I0
g51
tp152
a(I0
g55
tp153
a(I0
g55
tp154
a(I0
g55
tp155
a(I0
g62
tp156
a(I0
g85
tp157
a(I0
g51
tp158
a(I0
g51
tp159
a(I0
g55
tp160
a(I0
g55
tp161
a(I0
g62
tp162
a(I0
g85
tp163
a(I0
g58
tp164
a(I0
g58
tp165
a(I0
g51
tp166
a(I0
g51
tp167
a(I0
g55
tp168
a(I0
g51
tp169
a(I0
g55
tp170
a(I0
g55
tp171
a(I0
g62
tp172
a(I0
g85
tp173
a(I0
g62
tp174
a(I0
g85
tp175
a(I0
g62
tp176
a(I0
g85
tp177
a(I0
g51
tp178
a(I0
g51
tp179
a(I0
g55
tp180
a(I0
g58
tp181
a(I0
g55
tp182
a(I0
g62
tp183
a(I0
g58
tp184
a(I0
g62
tp185
a(I0
g85
tp186
a(I0
g85
tp187
a(I0
g58
tp188
a(I0
g51
tp189
a(I0
g51
tp190
a(I0
g51
tp191
a(I0
g55
tp192
a(I0
g58
tp193
a(I0
g58
tp194
a(I0
g58
tp195
a(I0
g58
tp196
a(I0
g58
tp197
a(I0
g55
tp198
a(I0
g55
tp199
a(I0
g62
tp200
a(I0
g85
tp201
a(I0
g62
tp202
a(I0
g85
tp203
a(I0
g62
tp204
a(I0
g62
tp205
a(I0
g85
tp206
a(I0
g85
tp207
a(I0
g62
tp208
a(I0
g58
tp209
a(I0
g58
tp210
a(I0
g85
tp211
a(I0
g51
tp212
a(I0
g51
tp213
a(I0
g51
tp214
a(I0
g55
tp215
a(I0
g58
tp216
a(I0
g55
tp217
a(I0
g55
tp218
a(I0
g62
tp219
a(I0
g85
tp220
a(I0
g62
tp221
a(I0
g85
tp222
a(I0
g51
tp223
a(I0
g51
tp224
a(I0
g55
tp225
a(I0
g51
tp226
a(I0
g55
tp227
a(I0
g58
tp228
a(I0
g55
tp229
a(I0
g62
tp230
a(I0
g85
tp231
a(I0
g62
tp232
a(I0
g58
tp233
a(I0
g85
tp234
a(I0
g62
tp235
a(I0
g85
tp236
a(I0
g62
tp237
a(I0
g85
tp238
a(I0
g51
tp239
a(I0
g51
tp240
a(I0
g55
tp241
a(I0
g58
tp242
a(I0
g55
tp243
a(I0
g62
tp244
a(I0
g85
tp245
a(I0
g51
tp246
a(I0
g51
tp247
a(I0
g55
tp248
a(I0
g55
tp249
a(I0
g58
tp250
a(I0
g62
tp251
a(I0
g62
tp252
a(I0
g85
tp253
a(I0
g85
tp254
a(I0
g62
tp255
a(I0
g85
tp256
a(I0
g62
tp257
a(I0
g62
tp258
a(I0
g85
tp259
a(I0
g85
tp260
a(I0
g51
tp261
a(I0
g51
tp262
a(I0
g55
tp263
a(I0
g58
tp264
a(I0
g58
tp265
a(I0
g58
tp266
a(I0
g55
tp267
a(I0
g58
tp268
a(I0
g58
tp269
a(I0
g58
tp270
a(I0
g62
tp271
a(I0
g85
tp272
a(I0
g62
tp273
a(I0
g62
tp274
a(I0
g85
tp275
a(I0
g62
tp276
a(I0
g58
tp277
a(I0
g58
tp278
a(I0
g85
tp279
a(I0
g85
tp280
a(I0
g51
tp281
a(I0
g51
tp282
a(I0
g58
tp283
a(I0
g55
tp284
a(I0
g55
tp285
a(I0
g62
tp286
a(I0
g85
tp287
a(I0
g51
tp288
a(I0
g51
tp289
a(I0
g51
tp290
a(I0
g55
tp291
a(I0
g51
tp292
a(I0
g58
tp293
a(I0
g58
tp294
a(I0
g58
tp295
a(I0
g58
tp296
a(I0
g58
tp297
a(I0
g58
tp298
a(I0
g51
tp299
a(I0
g58
tp300
a(I0
g62
tp301
a(I0
g62
tp302
a(I0
g55
tp303
a(I0
g55
tp304
as.