(dp1
S'layout'
p2
(ilayout
Layout
p3
(dp4
S'capsules'
p5
(lp6
sS'numGhosts'
p7
I1
sS'food'
p8
(igame
Grid
p9
(dp10
S'CELLS_PER_INT'
p11
I30
sS'width'
p12
I7
sS'data'
p13
(lp14
(lp15
I00
aI00
aI00
aI00
aI00
aI00
aa(lp16
I00
aI01
aI00
aI00
aI01
aI00
aa(lp17
I00
aI00
aI00
aI00
aI00
aI00
aa(lp18
I00
aI00
aI01
aI00
aI00
aI00
aa(lp19
I00
aI00
aI00
aI00
aI00
aI00
aa(lp20
I00
aI01
aI00
aI00
aI01
aI00
aa(lp21
I00
aI00
aI00
aI00
aI00
aI00
aasS'height'
p22
I6
sbsS'agentPositions'
p23
(lp24
(I01
(I3
I4
tp25
tp26
a(I00
(I3
I1
ttp27
asg22
I6
sg12
I7
sS'walls'
p28
(igame
Grid
p29
(dp30
g11
I30
sg12
I7
sg13
(lp31
(lp32
I01
aI01
aI01
aI01
aI01
aI01
aa(lp33
I01
aI00
aI00
aI00
aI00
aI01
aa(lp34
I01
aI00
aI01
aI01
aI00
aI01
aa(lp35
I01
aI00
aI00
aI01
aI00
aI01
aa(lp36
I01
aI00
aI01
aI01
aI00
aI01
aa(lp37
I01
aI00
aI00
aI00
aI00
aI01
aa(lp38
I01
aI01
aI01
aI01
aI01
aI01
aasg22
I6
sbsS'totalFood'
p39
I5
sS'layoutText'
p40
(lp41
S'%%%%%%%'
p42
aS'%. P .%'
p43
aS'% %%% %'
p44
aS'% %.% %'
p45
aS'%. G .%'
p46
aS'%%%%%%%'
p47
asbsS'actions'
p48
(lp49
(I0
S'West'
p50
tp51
a(I0
g50
tp52
a(I0
S'East'
p53
tp54
a(I0
g53
tp55
a(I0
g50
tp56
a(I0
g50
tp57
a(I0
S'South'
p58
tp59
a(I0
S'North'
p60
tp61
a(I0
g53
tp62
a(I0
g53
tp63
a(I0
g50
tp64
a(I0
g50
tp65
a(I0
g58
tp66
a(I0
g60
tp67
a(I0
S'Stop'
p68
tp69
a(I0
g68
tp70
a(I0
g68
tp71
a(I0
g58
tp72
a(I0
g60
tp73
a(I0
g53
tp74
a(I0
g50
tp75
a(I0
g53
tp76
a(I0
g68
tp77
a(I0
g68
tp78
a(I0
g68
tp79
a(I0
g50
tp80
a(I0
g53
tp81
a(I0
g68
tp82
a(I0
g68
tp83
a(I0
g68
tp84
a(I0
g68
tp85
a(I0
g68
tp86
a(I0
g68
tp87
a(I0
g68
tp88
a(I0
g68
tp89
a(I0
g50
tp90
a(I0
g68
tp91
a(I0
g53
tp92
a(I0
g50
tp93
a(I0
g53
tp94
a(I0
g50
tp95
a(I0
g58
tp96
a(I0
g60
tp97
a(I0
g68
tp98
a(I0
g53
tp99
a(I0
g68
tp100
a(I0
g68
tp101
a(I0
g68
tp102
a(I0
g68
tp103
a(I0
g68
tp104
a(I0
g68
tp105
a(I0
g68
tp106
a(I0
g68
tp107
a(I0
g68
tp108
a(I0
g53
tp109
a(I0
g50
tp110
a(I0
g50
tp111
a(I0
g58
tp112
a(I0
g60
tp113
a(I0
g53
tp114
a(I0
g68
tp115
a(I0
g68
tp116
a(I0
g68
tp117
a(I0
g68
tp118
a(I0
g68
tp119
a(I0
g68
tp120
a(I0
g68
tp121
a(I0
g53
tp122
a(I0
g53
tp123
a(I0
g53
tp124
a(I0
g68
tp125
a(I0
g68
tp126
a(I0
g50
tp127
a(I0
g50
tp128
a(I0
g50
tp129
a(I0
g50
tp130
a(I0
g68
tp131
a(I0
g68
tp132
a(I0
g68
tp133
a(I0
g68
tp134
a(I0
g68
tp135
a(I0
g68
tp136
a(I0
g68
tp137
a(I0
g68
tp138
a(I0
g68
tp139
a(I0
g68
tp140
a(I0
g68
tp141
a(I0
g53
tp142
a(I0
g50
tp143
a(I0
g68
tp144
a(I0
g68
tp145
a(I0
g68
tp146
a(I0
g68
tp147
a(I0
g68
tp148
a(I0
g68
tp149
a(I0
g68
tp150
a(I0
g68
tp151
a(I0
g68
tp152
a(I0
g68
tp153
a(I0
g68
tp154
a(I0
g68
tp155
a(I0
g68
tp156
a(I0
g68
tp157
a(I0
g68
tp158
a(I0
g68
tp159
a(I0
g68
tp160
a(I0
g68
tp161
a(I0
g68
tp162
a(I0
g68
tp163
a(I0
g68
tp164
a(I0
g68
tp165
a(I0
g68
tp166
a(I0
g68
tp167
a(I0
g68
tp168
a(I0
g68
tp169
a(I0
g68
tp170
a(I0
g68
tp171
a(I0
g68
tp172
a(I0
g68
tp173
a(I0
g68
tp174
a(I0
g68
tp175
a(I0
g68
tp176
a(I0
g68
tp177
a(I0
g68
tp178
a(I0
g68
tp179
a(I0
g68
tp180
a(I0
g68
tp181
a(I0
g68
tp182
a(I0
g68
tp183
a(I0
g68
tp184
a(I0
g68
tp185
a(I0
g68
tp186
a(I0
g68
tp187
a(I0
g68
tp188
a(I0
g68
tp189
a(I0
g68
tp190
a(I0
g68
tp191
a(I0
g68
tp192
a(I0
g68
tp193
a(I0
g68
tp194
a(I0
g68
tp195
a(I0
g68
tp196
a(I0
g68
tp197
a(I0
g68
tp198
a(I0
g68
tp199
a(I0
g68
tp200
a(I0
g68
tp201
a(I0
g68
tp202
a(I0
g68
tp203
a(I0
g68
tp204
a(I0
g68
tp205
a(I0
g68
tp206
a(I0
g68
tp207
a(I0
g68
tp208
a(I0
g68
tp209
a(I0
g68
tp210
a(I0
g68
tp211
a(I0
g68
tp212
a(I0
g68
tp213
a(I0
g68
tp214
a(I0
g68
tp215
a(I0
g68
tp216
a(I0
g68
tp217
a(I0
g68
tp218
a(I0
g68
tp219
a(I0
g68
tp220
a(I0
g53
tp221
a(I0
g50
tp222
a(I0
g68
tp223
a(I0
g68
tp224
a(I0
g68
tp225
a(I0
g68
tp226
a(I0
g68
tp227
a(I0
g68
tp228
a(I0
g68
tp229
a(I0
g68
tp230
a(I0
g68
tp231
a(I0
g68
tp232
a(I0
g58
tp233
a(I0
g58
tp234
a(I0
g58
tp235
a(I0
g68
tp236
a(I0
g68
tp237
a(I0
g68
tp238
a(I0
g68
tp239
a(I0
g68
tp240
a(I0
g68
tp241
a(I0
g68
tp242
a(I0
g68
tp243
a(I0
g68
tp244
a(I0
g68
tp245
a(I0
g68
tp246
a(I0
g68
tp247
a(I0
g68
tp248
a(I0
g68
tp249
a(I0
g68
tp250
a(I0
g68
tp251
a(I0
g68
tp252
a(I0
g68
tp253
a(I0
g68
tp254
a(I0
g53
tp255
a(I0
g50
tp256
a(I0
g68
tp257
a(I0
g68
tp258
a(I0
g68
tp259
a(I0
g68
tp260
a(I0
g68
tp261
a(I0
g68
tp262
a(I0
g68
tp263
a(I0
g68
tp264
a(I0
g68
tp265
a(I0
g68
tp266
a(I0
g68
tp267
a(I0
g68
tp268
a(I0
g68
tp269
a(I0
g68
tp270
a(I0
g68
tp271
a(I0
g68
tp272
a(I0
g68
tp273
a(I0
g68
tp274
a(I0
g68
tp275
a(I0
g68
tp276
a(I0
g68
tp277
a(I0
g68
tp278
a(I0
g68
tp279
a(I0
g68
tp280
a(I0
g68
tp281
a(I0
g68
tp282
a(I0
g68
tp283
a(I0
g68
tp284
a(I0
g68
tp285
a(I0
g68
tp286
a(I0
g68
tp287
a(I0
g68
tp288
a(I0
g68
tp289
a(I0
g68
tp290
a(I0
g68
tp291
a(I0
g68
tp292
a(I0
g68
tp293
a(I0
g68
tp294
a(I0
g68
tp295
a(I0
g68
tp296
a(I0
g68
tp297
a(I0
g68
tp298
a(I0
g68
tp299
a(I0
g68
tp300
a(I0
g68
tp301
a(I0
g68
tp302
a(I0
g68
tp303
a(I0
g68
tp304
a(I0
g68
tp305
a(I0
g68
tp306
a(I0
g68
tp307
a(I0
g68
tp308
a(I0
g68
tp309
a(I0
g68
tp310
a(I0
g68
tp311
a(I0
g68
tp312
a(I0
g68
tp313
a(I0
g68
tp314
a(I0
g68
tp315
a(I0
g68
tp316
a(I0
g68
tp317
a(I0
g68
tp318
a(I0
g68
tp319
a(I0
g68
tp320
a(I0
g53
tp321
a(I0
g53
tp322
a(I0
g60
tp323
a(I0
g68
tp324
a(I0
g68
tp325
a(I0
g68
tp326
a(I0
g68
tp327
a(I0
g68
tp328
a(I0
g68
tp329
a(I0
g58
tp330
a(I0
g53
tp331
a(I0
g53
tp332
as.