(dp1
S'layout'
p2
(ilayout
Layout
p3
(dp4
S'capsules'
p5
(lp6
sS'numGhosts'
p7
I1
sS'food'
p8
(igame
Grid
p9
(dp10
S'CELLS_PER_INT'
p11
I30
sS'width'
p12
I7
sS'data'
p13
(lp14
(lp15
I00
aI00
aI00
aI00
aI00
aI00
aI00
aa(lp16
I00
aI01
aI00
aI00
aI00
aI00
aI00
aa(lp17
I00
aI00
aI00
aI00
aI00
aI00
aI00
aa(lp18
I00
aI00
aI00
aI01
aI00
aI00
aI00
aa(lp19
I00
aI00
aI00
aI00
aI00
aI00
aI00
aa(lp20
I00
aI00
aI00
aI00
aI00
aI00
aI00
aa(lp21
I00
aI00
aI00
aI00
aI00
aI00
aI00
aasS'height'
p22
I7
sbsS'agentPositions'
p23
(lp24
(I01
(I2
I5
tp25
tp26
a(I00
(I3
I1
ttp27
asg22
I7
sg12
I7
sS'walls'
p28
(igame
Grid
p29
(dp30
g11
I30
sg12
I7
sg13
(lp31
(lp32
I01
aI01
aI01
aI01
aI01
aI01
aI01
aa(lp33
I01
aI00
aI00
aI00
aI00
aI00
aI01
aa(lp34
I01
aI00
aI01
aI01
aI01
aI00
aI01
aa(lp35
I01
aI00
aI01
aI00
aI01
aI00
aI01
aa(lp36
I01
aI00
aI01
aI00
aI01
aI00
aI01
aa(lp37
I01
aI00
aI00
aI00
aI00
aI00
aI01
aa(lp38
I01
aI01
aI01
aI01
aI01
aI01
aI01
aasg22
I7
sbsS'totalFood'
p39
I2
sS'layoutText'
p40
(lp41
S'%%%%%%%'
p42
aS'% P   %'
p43
aS'% %%% %'
p44
aS'% %.  %'
p45
aS'% %%% %'
p46
aS'%. G  %'
p47
aS'%%%%%%%'
p48
asbsS'actions'
p49
(lp50
(I0
S'West'
p51
tp52
a(I0
S'South'
p53
tp54
a(I0
g53
tp55
a(I0
S'Stop'
p56
tp57
a(I0
g53
tp58
a(I0
g53
tp59
a(I0
S'East'
p60
tp61
a(I0
g51
tp62
a(I0
S'North'
p63
tp64
a(I0
g56
tp65
a(I0
g53
tp66
a(I0
g63
tp67
a(I0
g63
tp68
a(I0
g63
tp69
a(I0
g53
tp70
a(I0
g56
tp71
a(I0
g63
tp72
a(I0
g56
tp73
a(I0
g63
tp74
a(I0
g53
tp75
a(I0
g53
tp76
a(I0
g53
tp77
a(I0
g53
tp78
a(I0
g60
tp79
a(I0
g60
tp80
a(I0
g56
tp81
a(I0
g56
tp82
a(I0
g51
tp83
a(I0
g51
tp84
a(I0
g63
tp85
a(I0
g63
tp86
a(I0
g63
tp87
a(I0
g63
tp88
a(I0
g60
tp89
a(I0
g60
tp90
a(I0
g51
tp91
a(I0
g51
tp92
a(I0
g60
tp93
a(I0
g60
tp94
a(I0
g51
tp95
a(I0
g51
tp96
a(I0
g53
tp97
a(I0
g63
tp98
a(I0
g60
tp99
a(I0
g60
tp100
a(I0
g56
tp101
a(I0
g56
tp102
a(I0
g51
tp103
a(I0
g51
tp104
a(I0
g53
tp105
a(I0
g63
tp106
a(I0
g60
tp107
a(I0
g51
tp108
a(I0
g53
tp109
a(I0
g53
tp110
a(I0
g63
tp111
a(I0
g63
tp112
a(I0
g53
tp113
a(I0
g53
tp114
a(I0
g53
tp115
a(I0
g56
tp116
a(I0
g63
tp117
a(I0
g63
tp118
a(I0
g63
tp119
a(I0
g53
tp120
a(I0
g53
tp121
a(I0
g63
tp122
a(I0
g63
tp123
a(I0
g60
tp124
a(I0
g51
tp125
a(I0
g56
tp126
a(I0
g56
tp127
a(I0
g56
tp128
a(I0
g56
tp129
a(I0
g56
tp130
a(I0
g56
tp131
a(I0
g56
tp132
a(I0
g56
tp133
a(I0
g56
tp134
a(I0
g56
tp135
a(I0
g60
tp136
a(I0
g51
tp137
a(I0
g56
tp138
a(I0
g56
tp139
a(I0
g53
tp140
a(I0
g53
tp141
a(I0
g63
tp142
a(I0
g63
tp143
a(I0
g53
tp144
a(I0
g53
tp145
a(I0
g63
tp146
a(I0
g53
tp147
a(I0
g53
tp148
a(I0
g63
tp149
a(I0
g63
tp150
a(I0
g53
tp151
a(I0
g53
tp152
a(I0
g53
tp153
a(I0
g60
tp154
a(I0
g60
tp155
a(I0
g51
tp156
a(I0
g51
tp157
a(I0
g63
tp158
a(I0
g63
tp159
a(I0
g53
tp160
a(I0
g53
tp161
a(I0
g63
tp162
a(I0
g53
tp163
a(I0
g63
tp164
a(I0
g53
tp165
a(I0
g63
tp166
a(I0
g63
tp167
a(I0
g56
tp168
a(I0
g56
tp169
a(I0
g53
tp170
a(I0
g53
tp171
a(I0
g56
tp172
a(I0
g56
tp173
a(I0
g60
tp174
a(I0
g60
tp175
a(I0
g51
tp176
a(I0
g60
tp177
a(I0
g56
tp178
a(I0
g60
tp179
a(I0
g60
tp180
a(I0
g51
tp181
a(I0
g56
tp182
a(I0
g51
tp183
a(I0
g60
tp184
a(I0
g60
tp185
a(I0
g51
tp186
a(I0
g60
tp187
a(I0
g51
tp188
a(I0
g51
tp189
a(I0
g60
tp190
a(I0
g60
tp191
a(I0
g51
tp192
a(I0
g51
tp193
a(I0
g60
tp194
a(I0
g60
tp195
a(I0
g51
tp196
a(I0
g51
tp197
a(I0
g60
tp198
a(I0
g60
tp199
a(I0
g51
tp200
a(I0
g51
tp201
a(I0
g56
tp202
a(I0
g60
tp203
a(I0
g60
tp204
a(I0
g51
tp205
a(I0
g51
tp206
a(I0
g60
tp207
a(I0
g60
tp208
a(I0
g51
tp209
a(I0
g51
tp210
a(I0
g60
tp211
a(I0
g51
tp212
a(I0
g51
tp213
a(I0
g56
tp214
a(I0
g56
tp215
a(I0
g56
tp216
a(I0
g56
tp217
a(I0
g60
tp218
a(I0
g56
tp219
a(I0
g56
tp220
a(I0
g60
tp221
a(I0
g51
tp222
a(I0
g51
tp223
a(I0
g56
tp224
a(I0
g56
tp225
a(I0
g51
tp226
a(I0
g63
tp227
a(I0
g63
tp228
a(I0
g53
tp229
a(I0
g53
tp230
a(I0
g60
tp231
a(I0
g60
tp232
a(I0
g51
tp233
a(I0
g51
tp234
a(I0
g63
tp235
a(I0
g63
tp236
a(I0
g53
tp237
a(I0
g53
tp238
a(I0
g63
tp239
a(I0
g53
tp240
a(I0
g60
tp241
a(I0
g60
tp242
a(I0
g56
tp243
a(I0
g51
tp244
a(I0
g51
tp245
a(I0
g60
tp246
a(I0
g51
tp247
a(I0
g60
tp248
a(I0
g51
tp249
a(I0
g60
tp250
a(I0
g51
tp251
a(I0
g63
tp252
a(I0
g56
tp253
a(I0
g53
tp254
a(I0
g63
tp255
a(I0
g63
tp256
a(I0
g53
tp257
a(I0
g53
tp258
a(I0
g60
tp259
a(I0
g56
tp260
a(I0
g60
tp261
a(I0
g51
tp262
a(I0
g56
tp263
a(I0
g51
tp264
a(I0
g56
tp265
a(I0
g63
tp266
a(I0
g53
tp267
a(I0
g63
tp268
a(I0
g63
tp269
a(I0
g56
tp270
a(I0
g56
tp271
a(I0
g63
tp272
a(I0
g53
tp273
a(I0
g53
tp274
a(I0
g53
tp275
a(I0
g60
tp276
a(I0
g60
tp277
a(I0
g51
tp278
a(I0
g56
tp279
a(I0
g56
tp280
a(I0
g56
tp281
a(I0
g56
tp282
a(I0
g56
tp283
a(I0
g51
tp284
a(I0
g60
tp285
a(I0
g60
tp286
a(I0
g56
tp287
a(I0
g56
tp288
a(I0
g51
tp289
a(I0
g56
tp290
a(I0
g56
tp291
a(I0
g56
tp292
a(I0
g60
tp293
a(I0
g51
tp294
a(I0
g51
tp295
a(I0
g56
tp296
a(I0
g63
tp297
a(I0
g63
tp298
a(I0
g53
tp299
a(I0
g53
tp300
a(I0
g63
tp301
a(I0
g63
tp302
a(I0
g53
tp303
a(I0
g63
tp304
a(I0
g56
tp305
a(I0
g53
tp306
a(I0
g53
tp307
a(I0
g60
tp308
a(I0
g60
tp309
a(I0
g60
tp310
a(I0
g51
tp311
a(I0
g60
tp312
a(I0
g60
tp313
a(I0
g51
tp314
a(I0
g51
tp315
a(I0
g60
tp316
a(I0
g60
tp317
a(I0
g51
tp318
a(I0
g51
tp319
a(I0
g60
tp320
a(I0
g60
tp321
a(I0
g51
tp322
a(I0
g56
tp323
a(I0
g56
tp324
a(I0
g51
tp325
a(I0
g60
tp326
a(I0
g60
tp327
a(I0
g51
tp328
a(I0
g51
tp329
a(I0
g60
tp330
a(I0
g60
tp331
a(I0
g51
tp332
a(I0
g51
tp333
a(I0
g51
tp334
a(I0
g51
tp335
a(I0
g60
tp336
a(I0
g51
tp337
a(I0
g60
tp338
a(I0
g60
tp339
a(I0
g56
tp340
a(I0
g56
tp341
a(I0
g56
tp342
a(I0
g56
tp343
a(I0
g56
tp344
a(I0
g56
tp345
a(I0
g56
tp346
a(I0
g51
tp347
a(I0
g56
tp348
a(I0
g51
tp349
a(I0
g60
tp350
a(I0
g51
tp351
a(I0
g60
tp352
a(I0
g60
tp353
a(I0
g51
tp354
a(I0
g56
tp355
a(I0
g56
tp356
a(I0
g51
tp357
a(I0
g56
tp358
a(I0
g63
tp359
a(I0
g63
tp360
a(I0
g53
tp361
a(I0
g53
tp362
a(I0
g60
tp363
a(I0
g60
tp364
a(I0
g56
tp365
a(I0
g60
tp366
a(I0
g51
tp367
a(I0
g60
tp368
a(I0
g60
tp369
a(I0
g51
tp370
a(I0
g51
tp371
a(I0
g60
tp372
a(I0
g60
tp373
a(I0
g51
tp374
a(I0
g51
tp375
a(I0
g60
tp376
a(I0
g60
tp377
a(I0
g51
tp378
a(I0
g51
tp379
a(I0
g56
tp380
a(I0
g51
tp381
a(I0
g56
tp382
a(I0
g60
tp383
a(I0
g60
tp384
a(I0
g51
tp385
a(I0
g51
tp386
a(I0
g60
tp387
a(I0
g60
tp388
a(I0
g51
tp389
a(I0
g51
tp390
a(I0
g51
tp391
a(I0
g63
tp392
a(I0
g63
tp393
a(I0
g53
tp394
a(I0
g63
tp395
a(I0
g53
tp396
a(I0
g53
tp397
a(I0
g63
tp398
a(I0
g53
tp399
a(I0
g60
tp400
a(I0
g60
tp401
a(I0
g56
tp402
a(I0
g56
tp403
a(I0
g56
tp404
a(I0
g60
tp405
a(I0
g51
tp406
a(I0
g60
tp407
a(I0
g51
tp408
a(I0
g56
tp409
a(I0
g56
tp410
a(I0
g51
tp411
a(I0
g60
tp412
a(I0
g60
tp413
a(I0
g51
tp414
a(I0
g56
tp415
a(I0
g51
tp416
a(I0
g60
tp417
a(I0
g56
tp418
a(I0
g60
tp419
a(I0
g51
tp420
a(I0
g51
tp421
a(I0
g60
tp422
a(I0
g60
tp423
a(I0
g51
tp424
a(I0
g60
tp425
a(I0
g56
tp426
a(I0
g56
tp427
a(I0
g56
tp428
a(I0
g56
tp429
a(I0
g51
tp430
a(I0
g60
tp431
a(I0
g51
tp432
a(I0
g51
tp433
a(I0
g60
tp434
a(I0
g60
tp435
a(I0
g51
tp436
a(I0
g51
tp437
a(I0
g60
tp438
a(I0
g60
tp439
a(I0
g51
tp440
a(I0
g51
tp441
a(I0
g56
tp442
a(I0
g60
tp443
a(I0
g60
tp444
a(I0
g51
tp445
a(I0
g51
tp446
a(I0
g60
tp447
a(I0
g60
tp448
a(I0
g60
tp449
a(I0
g56
tp450
a(I0
g56
tp451
a(I0
g56
tp452
a(I0
g56
tp453
a(I0
g56
tp454
a(I0
g51
tp455
a(I0
g51
tp456
a(I0
g60
tp457
a(I0
g60
tp458
a(I0
g51
tp459
a(I0
g51
tp460
a(I0
g60
tp461
a(I0
g51
tp462
a(I0
g51
tp463
a(I0
g51
tp464
a(I0
g60
tp465
a(I0
g51
tp466
a(I0
g56
tp467
a(I0
g56
tp468
a(I0
g56
tp469
a(I0
g56
tp470
a(I0
g56
tp471
a(I0
g56
tp472
a(I0
g56
tp473
a(I0
g56
tp474
a(I0
g60
tp475
a(I0
g51
tp476
a(I0
g56
tp477
a(I0
g56
tp478
a(I0
g63
tp479
a(I0
g53
tp480
a(I0
g63
tp481
a(I0
g53
tp482
a(I0
g63
tp483
a(I0
g53
tp484
a(I0
g56
tp485
a(I0
g56
tp486
a(I0
g63
tp487
a(I0
g53
tp488
a(I0
g63
tp489
a(I0
g53
tp490
a(I0
g60
tp491
a(I0
g60
tp492
a(I0
g56
tp493
a(I0
g56
tp494
a(I0
g56
tp495
a(I0
g51
tp496
a(I0
g51
tp497
a(I0
g60
tp498
a(I0
g51
tp499
a(I0
g56
tp500
a(I0
g63
tp501
a(I0
g63
tp502
a(I0
g56
tp503
a(I0
g56
tp504
a(I0
g56
tp505
a(I0
g56
tp506
a(I0
g56
tp507
a(I0
g56
tp508
a(I0
g56
tp509
a(I0
g53
tp510
a(I0
g56
tp511
a(I0
g56
tp512
a(I0
g56
tp513
a(I0
g56
tp514
a(I0
g56
tp515
a(I0
g53
tp516
a(I0
g63
tp517
a(I0
g53
tp518
a(I0
g56
tp519
a(I0
g63
tp520
a(I0
g53
tp521
a(I0
g60
tp522
a(I0
g60
tp523
a(I0
g56
tp524
a(I0
g56
tp525
a(I0
g56
tp526
a(I0
g56
tp527
a(I0
g56
tp528
a(I0
g51
tp529
a(I0
g60
tp530
a(I0
g56
tp531
a(I0
g56
tp532
a(I0
g60
tp533
a(I0
g60
tp534
a(I0
g51
tp535
a(I0
g51
tp536
a(I0
g56
tp537
a(I0
g60
tp538
a(I0
g60
tp539
a(I0
g51
tp540
a(I0
g51
tp541
a(I0
g60
tp542
a(I0
g51
tp543
a(I0
g60
tp544
a(I0
g60
tp545
a(I0
g51
tp546
a(I0
g51
tp547
a(I0
g60
tp548
a(I0
g60
tp549
a(I0
g51
tp550
a(I0
g51
tp551
a(I0
g60
tp552
a(I0
g60
tp553
a(I0
g51
tp554
a(I0
g51
tp555
a(I0
g60
tp556
a(I0
g60
tp557
a(I0
g51
tp558
a(I0
g51
tp559
a(I0
g56
tp560
a(I0
g51
tp561
a(I0
g51
tp562
a(I0
g63
tp563
a(I0
g53
tp564
a(I0
g63
tp565
a(I0
g53
tp566
a(I0
g63
tp567
a(I0
g56
tp568
a(I0
g53
tp569
a(I0
g63
tp570
a(I0
g63
tp571
a(I0
g56
tp572
a(I0
g56
tp573
a(I0
g53
tp574
a(I0
g63
tp575
a(I0
g63
tp576
a(I0
g53
tp577
a(I0
g63
tp578
a(I0
g56
tp579
a(I0
g56
tp580
a(I0
g53
tp581
a(I0
g56
tp582
a(I0
g53
tp583
a(I0
g53
tp584
a(I0
g56
tp585
a(I0
g56
tp586
a(I0
g63
tp587
a(I0
g63
tp588
a(I0
g53
tp589
a(I0
g53
tp590
a(I0
g60
tp591
a(I0
g60
tp592
a(I0
g56
tp593
a(I0
g56
tp594
a(I0
g51
tp595
a(I0
g56
tp596
a(I0
g56
tp597
a(I0
g56
tp598
a(I0
g56
tp599
a(I0
g56
tp600
a(I0
g56
tp601
a(I0
g60
tp602
a(I0
g56
tp603
a(I0
g56
tp604
a(I0
g56
tp605
a(I0
g56
tp606
a(I0
g56
tp607
a(I0
g56
tp608
a(I0
g60
tp609
a(I0
g60
tp610
a(I0
g51
tp611
a(I0
g51
tp612
a(I0
g56
tp613
a(I0
g56
tp614
a(I0
g56
tp615
a(I0
g56
tp616
a(I0
g60
tp617
a(I0
g60
tp618
a(I0
g51
tp619
a(I0
g51
tp620
a(I0
g60
tp621
a(I0
g60
tp622
a(I0
g51
tp623
a(I0
g56
tp624
a(I0
g51
tp625
a(I0
g60
tp626
a(I0
g60
tp627
a(I0
g51
tp628
a(I0
g51
tp629
a(I0
g60
tp630
a(I0
g60
tp631
a(I0
g51
tp632
a(I0
g51
tp633
a(I0
g60
tp634
a(I0
g60
tp635
a(I0
g51
tp636
a(I0
g51
tp637
a(I0
g60
tp638
a(I0
g60
tp639
a(I0
g51
tp640
a(I0
g51
tp641
a(I0
g60
tp642
a(I0
g60
tp643
a(I0
g51
tp644
a(I0
g51
tp645
a(I0
g60
tp646
a(I0
g51
tp647
a(I0
g60
tp648
a(I0
g60
tp649
a(I0
g51
tp650
a(I0
g56
tp651
a(I0
g56
tp652
a(I0
g56
tp653
a(I0
g56
tp654
a(I0
g56
tp655
a(I0
g56
tp656
a(I0
g56
tp657
a(I0
g56
tp658
a(I0
g56
tp659
a(I0
g56
tp660
a(I0
g56
tp661
a(I0
g56
tp662
a(I0
g56
tp663
a(I0
g56
tp664
a(I0
g56
tp665
a(I0
g56
tp666
a(I0
g56
tp667
a(I0
g56
tp668
a(I0
g56
tp669
a(I0
g56
tp670
a(I0
g51
tp671
a(I0
g51
tp672
a(I0
g60
tp673
a(I0
g60
tp674
a(I0
g60
tp675
a(I0
g51
tp676
a(I0
g60
tp677
a(I0
g63
tp678
a(I0
g56
tp679
a(I0
g56
tp680
a(I0
g56
tp681
a(I0
g56
tp682
a(I0
g56
tp683
a(I0
g56
tp684
a(I0
g56
tp685
a(I0
g56
tp686
a(I0
g56
tp687
a(I0
g56
tp688
a(I0
g56
tp689
a(I0
g56
tp690
a(I0
g56
tp691
a(I0
g63
tp692
a(I0
g51
tp693
a(I0
g51
tp694
as.