(dp1
S'layout'
p2
(ilayout
Layout
p3
(dp4
S'capsules'
p5
(lp6
sS'numGhosts'
p7
I1
sS'food'
p8
(igame
Grid
p9
(dp10
S'CELLS_PER_INT'
p11
I30
sS'width'
p12
I7
sS'data'
p13
(lp14
(lp15
I00
aI00
aI00
aI00
aI00
aI00
aI00
aa(lp16
I00
aI01
aI00
aI00
aI00
aI00
aI00
aa(lp17
I00
aI00
aI00
aI00
aI00
aI00
aI00
aa(lp18
I00
aI00
aI00
aI01
aI00
aI00
aI00
aa(lp19
I00
aI00
aI00
aI00
aI00
aI00
aI00
aa(lp20
I00
aI00
aI00
aI00
aI00
aI00
aI00
aa(lp21
I00
aI00
aI00
aI00
aI00
aI00
aI00
aasS'height'
p22
I7
sbsS'agentPositions'
p23
(lp24
(I01
(I2
I5
tp25
tp26
a(I00
(I3
I1
tp27
tp28
asg22
I7
sg12
I7
sS'walls'
p29
(igame
Grid
p30
(dp31
g11
I30
sg12
I7
sg13
(lp32
(lp33
I01
aI01
aI01
aI01
aI01
aI01
aI01
aa(lp34
I01
aI00
aI00
aI00
aI00
aI00
aI01
aa(lp35
I01
aI00
aI01
aI01
aI01
aI00
aI01
aa(lp36
I01
aI00
aI01
aI00
aI01
aI00
aI01
aa(lp37
I01
aI00
aI01
aI00
aI01
aI00
aI01
aa(lp38
I01
aI00
aI00
aI00
aI00
aI00
aI01
aa(lp39
I01
aI01
aI01
aI01
aI01
aI01
aI01
aasg22
I7
sbsS'totalFood'
p40
I2
sS'layoutText'
p41
(lp42
S'%%%%%%%'
p43
aS'% P   %'
p44
aS'% %%% %'
p45
aS'% %.  %'
p46
aS'% %%% %'
p47
aS'%. G  %'
p48
aS'%%%%%%%'
p49
asbsS'actions'
p50
(lp51
(I0
S'East'
p52
tp53
a(I1
S'West'
p54
tp55
a(I0
S'Stop'
p56
tp57
a(I1
g54
tp58
a(I0
g52
tp59
a(I1
S'North'
p60
tp61
a(I0
g52
tp62
a(I1
g60
tp63
a(I0
S'South'
p64
tp65
a(I1
g60
tp66
a(I0
g64
tp67
a(I1
g60
tp68
a(I0
g54
tp69
a(I1
g52
tp70
a(I0
g54
tp71
a(I1
g52
tp72
a(I0
g52
tp73
a(I1
g52
tp74
a(I0
g52
tp75
a(I1
g52
tp76
a(I0
g54
tp77
a(I1
g64
tp78
a(I0
g54
tp79
a(I1
g64
tp80
a(I0
g52
tp81
a(I1
g64
tp82
a(I0
g56
tp83
a(I1
g64
tp84
a(I0
g54
tp85
a(I1
g54
tp86
a(I0
g56
tp87
a(I1
g54
tp88
a(I0
g52
tp89
a(I1
g54
tp90
a(I0
g52
tp91
a(I1
g54
tp92
a(I0
g60
tp93
a(I1
g60
tp94
a(I0
g64
tp95
a(I1
g60
tp96
a(I0
g54
tp97
a(I1
g60
tp98
a(I0
g54
tp99
a(I1
g60
tp100
a(I0
g52
tp101
a(I1
g52
tp102
a(I0
g56
tp103
a(I1
g52
tp104
a(I0
g56
tp105
a(I1
g52
tp106
a(I0
g56
tp107
a(I1
g52
tp108
a(I0
g56
tp109
a(I1
g64
tp110
a(I0
g56
tp111
a(I1
g64
tp112
a(I0
g54
tp113
a(I1
g64
tp114
a(I0
g52
tp115
a(I1
g64
tp116
a(I0
g52
tp117
a(I1
g54
tp118
a(I0
g54
tp119
a(I1
g54
tp120
a(I0
g54
tp121
a(I1
g54
tp122
a(I0
g52
tp123
a(I1
g54
tp124
a(I0
g52
tp125
a(I1
g60
tp126
a(I0
g54
tp127
a(I1
g60
tp128
a(I0
g54
tp129
a(I1
g60
tp130
a(I0
g52
tp131
a(I1
g60
tp132
a(I0
g52
tp133
a(I1
g52
tp134
a(I0
g54
tp135
a(I1
g52
tp136
a(I0
g54
tp137
a(I1
g52
tp138
a(I0
g52
tp139
a(I1
g52
tp140
a(I0
g52
tp141
a(I1
g64
tp142
a(I0
g60
tp143
as.