(dp1
S'layout'
p2
(ilayout
Layout
p3
(dp4
S'capsules'
p5
(lp6
sS'numGhosts'
p7
I1
sS'food'
p8
(igame
Grid
p9
(dp10
S'CELLS_PER_INT'
p11
I30
sS'width'
p12
I9
sS'data'
p13
(lp14
(lp15
I00
aI00
aI00
aI00
aI00
aI00
aa(lp16
I00
aI01
aI00
aI00
aI01
aI00
aa(lp17
I00
aI00
aI00
aI00
aI00
aI00
aa(lp18
I00
aI00
aI00
aI00
aI00
aI00
aa(lp19
I00
aI00
aI00
aI00
aI00
aI00
aa(lp20
I00
aI00
aI00
aI00
aI00
aI00
aa(lp21
I00
aI00
aI00
aI00
aI00
aI00
aa(lp22
I00
aI01
aI00
aI00
aI00
aI00
aa(lp23
I00
aI00
aI00
aI00
aI00
aI00
aasS'height'
p24
I6
sbsS'agentPositions'
p25
(lp26
(I01
(I7
I4
tp27
tp28
a(I00
(I4
I2
tp29
tp30
asg24
I6
sg12
I9
sS'walls'
p31
(igame
Grid
p32
(dp33
g11
I30
sg12
I9
sg13
(lp34
(lp35
I01
aI01
aI01
aI01
aI01
aI01
aa(lp36
I01
aI00
aI00
aI00
aI00
aI01
aa(lp37
I01
aI00
aI00
aI00
aI00
aI01
aa(lp38
I01
aI00
aI01
aI01
aI00
aI01
aa(lp39
I01
aI00
aI00
aI01
aI00
aI01
aa(lp40
I01
aI00
aI01
aI01
aI00
aI01
aa(lp41
I01
aI00
aI00
aI00
aI00
aI01
aa(lp42
I01
aI00
aI00
aI00
aI00
aI01
aa(lp43
I01
aI01
aI01
aI01
aI01
aI01
aasg24
I6
sbsS'totalFood'
p44
I3
sS'layoutText'
p45
(lp46
S'%%%%%%%%%'
p47
aS'%.     P%'
p48
aS'%  %%%  %'
p49
aS'%  %G%  %'
p50
aS'%.     .%'
p51
aS'%%%%%%%%%'
p52
asbsS'actions'
p53
(lp54
(I0
S'South'
p55
tp56
a(I1
g55
tp57
a(I0
S'North'
p58
tp59
a(I1
S'West'
p60
tp61
a(I0
S'Stop'
p62
tp63
a(I1
g60
tp64
a(I0
g62
tp65
a(I1
g60
tp66
a(I0
g60
tp67
a(I1
g58
tp68
a(I0
g62
tp69
a(I1
g58
tp70
a(I0
g62
tp71
a(I1
g58
tp72
a(I0
g60
tp73
a(I1
S'East'
p74
tp75
a(I0
g60
tp76
a(I1
g55
tp77
a(I0
g60
tp78
a(I1
g55
tp79
a(I0
g60
tp80
a(I1
g55
tp81
a(I0
g60
tp82
a(I1
g74
tp83
a(I0
g74
tp84
a(I1
g74
tp85
a(I0
g60
tp86
a(I1
g74
tp87
a(I0
g55
tp88
a(I1
g74
tp89
a(I0
g62
tp90
a(I1
g58
tp91
a(I0
g62
tp92
a(I1
g58
tp93
a(I0
g62
tp94
a(I1
g58
tp95
a(I0
g62
tp96
a(I1
g74
tp97
a(I0
g62
tp98
a(I1
g55
tp99
a(I0
g62
tp100
a(I1
g60
tp101
a(I0
g62
tp102
a(I1
g58
tp103
a(I0
g62
tp104
a(I1
g74
tp105
a(I0
g62
tp106
a(I1
g55
tp107
a(I0
g62
tp108
a(I1
g55
tp109
a(I0
g62
tp110
a(I1
g55
tp111
a(I0
g62
tp112
a(I1
g60
tp113
a(I0
g62
tp114
a(I1
g60
tp115
a(I0
g62
tp116
a(I1
g60
tp117
a(I0
g62
tp118
a(I1
g60
tp119
a(I0
g62
tp120
a(I1
g60
tp121
a(I0
g62
tp122
a(I1
g60
tp123
a(I0
g58
tp124
a(I1
g58
tp125
a(I0
g62
tp126
a(I1
g74
tp127
a(I0
g62
tp128
a(I1
g55
tp129
a(I0
g74
tp130
a(I1
g60
tp131
a(I0
g60
tp132
a(I1
g58
tp133
a(I0
g62
tp134
a(I1
g58
tp135
a(I0
g62
tp136
a(I1
g74
tp137
a(I0
g62
tp138
a(I1
g55
tp139
a(I0
g62
tp140
a(I1
g60
tp141
a(I0
g74
tp142
a(I1
g58
tp143
a(I0
g60
tp144
a(I1
g74
tp145
a(I0
g62
tp146
a(I1
g55
tp147
a(I0
g62
tp148
a(I1
g60
tp149
a(I0
g74
tp150
a(I1
g55
tp151
a(I0
g60
tp152
a(I1
g74
tp153
a(I0
g74
tp154
a(I1
g74
tp155
a(I0
g60
tp156
a(I1
g74
tp157
a(I0
g62
tp158
a(I1
g74
tp159
a(I0
g62
tp160
a(I1
g74
tp161
a(I0
g62
tp162
a(I1
g74
tp163
a(I0
g62
tp164
a(I1
g58
tp165
a(I0
g62
tp166
a(I1
g58
tp167
a(I0
g62
tp168
a(I1
g60
tp169
a(I0
g62
tp170
a(I1
g55
tp171
a(I0
g62
tp172
a(I1
g74
tp173
a(I0
g62
tp174
a(I1
g55
tp175
a(I0
g62
tp176
a(I1
g60
tp177
a(I0
g62
tp178
a(I1
g58
tp179
a(I0
g62
tp180
a(I1
g58
tp181
a(I0
g62
tp182
a(I1
g58
tp183
a(I0
g62
tp184
a(I1
g60
tp185
a(I0
g62
tp186
a(I1
g60
tp187
a(I0
g62
tp188
a(I1
g60
tp189
a(I0
g62
tp190
a(I1
g60
tp191
a(I0
g62
tp192
a(I1
g60
tp193
as.