(dp1
S'layout'
p2
(ilayout
Layout
p3
(dp4
S'capsules'
p5
(lp6
sS'numGhosts'
p7
I1
sS'food'
p8
(igame
Grid
p9
(dp10
S'CELLS_PER_INT'
p11
I30
sS'width'
p12
I7
sS'data'
p13
(lp14
(lp15
I00
aI00
aI00
aI00
aI00
aI00
aI00
aa(lp16
I00
aI01
aI00
aI00
aI00
aI00
aI00
aa(lp17
I00
aI00
aI00
aI00
aI00
aI00
aI00
aa(lp18
I00
aI00
aI00
aI01
aI00
aI00
aI00
aa(lp19
I00
aI00
aI00
aI00
aI00
aI00
aI00
aa(lp20
I00
aI00
aI00
aI00
aI00
aI00
aI00
aa(lp21
I00
aI00
aI00
aI00
aI00
aI00
aI00
aasS'height'
p22
I7
sbsS'agentPositions'
p23
(lp24
(I01
(I2
I5
tp25
tp26
a(I00
(I3
I1
ttp27
asg22
I7
sg12
I7
sS'walls'
p28
(igame
Grid
p29
(dp30
g11
I30
sg12
I7
sg13
(lp31
(lp32
I01
aI01
aI01
aI01
aI01
aI01
aI01
aa(lp33
I01
aI00
aI00
aI00
aI00
aI00
aI01
aa(lp34
I01
aI00
aI01
aI01
aI01
aI00
aI01
aa(lp35
I01
aI00
aI01
aI00
aI01
aI00
aI01
aa(lp36
I01
aI00
aI01
aI00
aI01
aI00
aI01
aa(lp37
I01
aI00
aI00
aI00
aI00
aI00
aI01
aa(lp38
I01
aI01
aI01
aI01
aI01
aI01
aI01
aasg22
I7
sbsS'totalFood'
p39
I2
sS'layoutText'
p40
(lp41
S'%%%%%%%'
p42
aS'% P   %'
p43
aS'% %%% %'
p44
aS'% %.  %'
p45
aS'% %%% %'
p46
aS'%. G  %'
p47
aS'%%%%%%%'
p48
asbsS'actions'
p49
(lp50
(I0
S'East'
p51
tp52
a(I0
S'West'
p53
tp54
a(I0
g51
tp55
a(I0
g51
tp56
a(I0
S'Stop'
p57
tp58
a(I0
g57
tp59
a(I0
g53
tp60
a(I0
g53
tp61
a(I0
g51
tp62
a(I0
g51
tp63
a(I0
g53
tp64
a(I0
g53
tp65
a(I0
g51
tp66
a(I0
g57
tp67
a(I0
g57
tp68
a(I0
g51
tp69
a(I0
g53
tp70
a(I0
g53
tp71
a(I0
g51
tp72
a(I0
g51
tp73
a(I0
g53
tp74
a(I0
g53
tp75
a(I0
g51
tp76
a(I0
g57
tp77
a(I0
g57
tp78
a(I0
g57
tp79
a(I0
g51
tp80
a(I0
g53
tp81
a(I0
g53
tp82
a(I0
g51
tp83
a(I0
g57
tp84
a(I0
g57
tp85
a(I0
g53
tp86
a(I0
g51
tp87
a(I0
g57
tp88
a(I0
g57
tp89
a(I0
g57
tp90
a(I0
g57
tp91
a(I0
g57
tp92
a(I0
g57
tp93
a(I0
g57
tp94
a(I0
g57
tp95
a(I0
g57
tp96
a(I0
g57
tp97
a(I0
g57
tp98
a(I0
g57
tp99
a(I0
g57
tp100
a(I0
g57
tp101
a(I0
g57
tp102
a(I0
g53
tp103
a(I0
g57
tp104
a(I0
g53
tp105
a(I0
g57
tp106
a(I0
g57
tp107
a(I0
g57
tp108
a(I0
g57
tp109
a(I0
g57
tp110
a(I0
g51
tp111
a(I0
g51
tp112
a(I0
g57
tp113
a(I0
g57
tp114
a(I0
g57
tp115
a(I0
g53
tp116
a(I0
g53
tp117
a(I0
g51
tp118
a(I0
g53
tp119
a(I0
S'South'
p120
tp121
a(I0
g57
tp122
a(I0
g57
tp123
a(I0
g57
tp124
a(I0
g120
tp125
a(I0
S'North'
p126
tp127
a(I0
g126
tp128
a(I0
g120
tp129
a(I0
g126
tp130
a(I0
g51
tp131
a(I0
g51
tp132
a(I0
g57
tp133
a(I0
g57
tp134
a(I0
g57
tp135
a(I0
g57
tp136
a(I0
g53
tp137
a(I0
g57
tp138
a(I0
g57
tp139
a(I0
g57
tp140
a(I0
g57
tp141
a(I0
g57
tp142
a(I0
g57
tp143
a(I0
g57
tp144
a(I0
g53
tp145
a(I0
g57
tp146
a(I0
g51
tp147
a(I0
g53
tp148
a(I0
g120
tp149
a(I0
g120
tp150
a(I0
g57
tp151
a(I0
g126
tp152
a(I0
g126
tp153
a(I0
g120
tp154
a(I0
g126
tp155
a(I0
g120
tp156
a(I0
g57
tp157
a(I0
g57
tp158
a(I0
g57
tp159
a(I0
g120
tp160
a(I0
g126
tp161
a(I0
g126
tp162
a(I0
g120
tp163
a(I0
g120
tp164
a(I0
g57
tp165
a(I0
g120
tp166
a(I0
g57
tp167
a(I0
g57
tp168
a(I0
g57
tp169
a(I0
g57
tp170
a(I0
g57
tp171
a(I0
g57
tp172
a(I0
g57
tp173
a(I0
g57
tp174
a(I0
g57
tp175
a(I0
g57
tp176
a(I0
g57
tp177
a(I0
g57
tp178
a(I0
g57
tp179
a(I0
g57
tp180
a(I0
g57
tp181
a(I0
g57
tp182
a(I0
g57
tp183
a(I0
g57
tp184
a(I0
g57
tp185
a(I0
g126
tp186
a(I0
g57
tp187
a(I0
g57
tp188
a(I0
g57
tp189
a(I0
g57
tp190
a(I0
g57
tp191
a(I0
g57
tp192
a(I0
g126
tp193
a(I0
g126
tp194
a(I0
g120
tp195
a(I0
g120
tp196
a(I0
g126
tp197
a(I0
g126
tp198
a(I0
g120
tp199
a(I0
g120
tp200
a(I0
g126
tp201
a(I0
g126
tp202
a(I0
g120
tp203
a(I0
g120
tp204
a(I0
g126
tp205
a(I0
g126
tp206
a(I0
g51
tp207
a(I0
g51
tp208
a(I0
g51
tp209
a(I0
g53
tp210
a(I0
g53
tp211
a(I0
g57
tp212
a(I0
g57
tp213
a(I0
g57
tp214
a(I0
g53
tp215
a(I0
g57
tp216
a(I0
g57
tp217
a(I0
g57
tp218
a(I0
g57
tp219
a(I0
g57
tp220
a(I0
g57
tp221
a(I0
g57
tp222
a(I0
g57
tp223
a(I0
g57
tp224
a(I0
g120
tp225
a(I0
g120
tp226
a(I0
g126
tp227
a(I0
g126
tp228
a(I0
g120
tp229
a(I0
g126
tp230
a(I0
g57
tp231
a(I0
g120
tp232
a(I0
g126
tp233
a(I0
g51
tp234
a(I0
g51
tp235
a(I0
g57
tp236
a(I0
g53
tp237
a(I0
g53
tp238
a(I0
g57
tp239
a(I0
g57
tp240
a(I0
g57
tp241
a(I0
g57
tp242
a(I0
g57
tp243
a(I0
g57
tp244
a(I0
g57
tp245
a(I0
g57
tp246
a(I0
g57
tp247
a(I0
g57
tp248
a(I0
g57
tp249
a(I0
g57
tp250
a(I0
g57
tp251
a(I0
g57
tp252
a(I0
g57
tp253
a(I0
g57
tp254
a(I0
g57
tp255
a(I0
g57
tp256
a(I0
g57
tp257
a(I0
g57
tp258
a(I0
g57
tp259
a(I0
g57
tp260
a(I0
g120
tp261
a(I0
g120
tp262
a(I0
g57
tp263
a(I0
g57
tp264
a(I0
g57
tp265
a(I0
g57
tp266
a(I0
g57
tp267
a(I0
g126
tp268
a(I0
g126
tp269
a(I0
g120
tp270
a(I0
g120
tp271
a(I0
g126
tp272
a(I0
g126
tp273
a(I0
g120
tp274
a(I0
g120
tp275
a(I0
g126
tp276
a(I0
g126
tp277
a(I0
g120
tp278
a(I0
g120
tp279
a(I0
g57
tp280
a(I0
g57
tp281
a(I0
g57
tp282
a(I0
g57
tp283
a(I0
g57
tp284
a(I0
g57
tp285
a(I0
g57
tp286
a(I0
g57
tp287
a(I0
g57
tp288
a(I0
g57
tp289
a(I0
g57
tp290
a(I0
g57
tp291
a(I0
g126
tp292
a(I0
g126
tp293
a(I0
g120
tp294
a(I0
g120
tp295
a(I0
g126
tp296
a(I0
g126
tp297
a(I0
g120
tp298
a(I0
g120
tp299
a(I0
g126
tp300
a(I0
g126
tp301
a(I0
g120
tp302
a(I0
g120
tp303
a(I0
g126
tp304
a(I0
g126
tp305
a(I0
g120
tp306
a(I0
g120
tp307
a(I0
g126
tp308
a(I0
g57
tp309
a(I0
g57
tp310
a(I0
g57
tp311
a(I0
g57
tp312
a(I0
g126
tp313
a(I0
g51
tp314
a(I0
g53
tp315
a(I0
g51
tp316
a(I0
g53
tp317
a(I0
g51
tp318
a(I0
g53
tp319
a(I0
g51
tp320
a(I0
g53
tp321
a(I0
g51
tp322
a(I0
g53
tp323
a(I0
g51
tp324
a(I0
g53
tp325
a(I0
g51
tp326
a(I0
g53
tp327
a(I0
g51
tp328
a(I0
g51
tp329
a(I0
g53
tp330
a(I0
g53
tp331
a(I0
g57
tp332
a(I0
g120
tp333
a(I0
g120
tp334
a(I0
g57
tp335
a(I0
g126
tp336
a(I0
g126
tp337
a(I0
g57
tp338
a(I0
g120
tp339
a(I0
g120
tp340
a(I0
g126
tp341
a(I0
g126
tp342
a(I0
g120
tp343
a(I0
g120
tp344
a(I0
g126
tp345
a(I0
g126
tp346
a(I0
g120
tp347
a(I0
g120
tp348
a(I0
g126
tp349
a(I0
g57
tp350
a(I0
g57
tp351
a(I0
g126
tp352
a(I0
g120
tp353
a(I0
g120
tp354
a(I0
g126
tp355
a(I0
g126
tp356
a(I0
g120
tp357
a(I0
g120
tp358
a(I0
g126
tp359
a(I0
g126
tp360
a(I0
g120
tp361
a(I0
g120
tp362
a(I0
g57
tp363
a(I0
g57
tp364
a(I0
g57
tp365
a(I0
g57
tp366
a(I0
g126
tp367
a(I0
g57
tp368
a(I0
g57
tp369
a(I0
g126
tp370
a(I0
g120
tp371
a(I0
g120
tp372
a(I0
g126
tp373
a(I0
g126
tp374
a(I0
g120
tp375
a(I0
g120
tp376
a(I0
g126
tp377
a(I0
g120
tp378
a(I0
g126
tp379
a(I0
g120
tp380
a(I0
g120
tp381
a(I0
g126
tp382
a(I0
g126
tp383
a(I0
g126
tp384
a(I0
g120
tp385
a(I0
g126
tp386
a(I0
g51
tp387
a(I0
g51
tp388
a(I0
g53
tp389
a(I0
g53
tp390
a(I0
g120
tp391
a(I0
g126
tp392
a(I0
g51
tp393
a(I0
g51
tp394
a(I0
g53
tp395
a(I0
g53
tp396
a(I0
g120
tp397
a(I0
g126
tp398
a(I0
g51
tp399
a(I0
g57
tp400
a(I0
g51
tp401
a(I0
g57
tp402
a(I0
g53
tp403
a(I0
g53
tp404
a(I0
g120
tp405
a(I0
g126
tp406
a(I0
g51
tp407
a(I0
g51
tp408
a(I0
g53
tp409
a(I0
g53
tp410
a(I0
g120
tp411
a(I0
g126
tp412
a(I0
g51
tp413
a(I0
g51
tp414
a(I0
g53
tp415
a(I0
g53
tp416
a(I0
g120
tp417
a(I0
g126
tp418
a(I0
g51
tp419
a(I0
g51
tp420
a(I0
g53
tp421
a(I0
g53
tp422
a(I0
g120
tp423
a(I0
g126
tp424
a(I0
g51
tp425
a(I0
g51
tp426
a(I0
g57
tp427
a(I0
g53
tp428
a(I0
g53
tp429
a(I0
g57
tp430
a(I0
g51
tp431
a(I0
g51
tp432
a(I0
g53
tp433
a(I0
g51
tp434
a(I0
g57
tp435
a(I0
g51
tp436
a(I0
g53
tp437
a(I0
g53
tp438
a(I0
g57
tp439
a(I0
g53
tp440
a(I0
g51
tp441
a(I0
g53
tp442
a(I0
g120
tp443
a(I0
g126
tp444
a(I0
g120
tp445
a(I0
g120
tp446
a(I0
g126
tp447
a(I0
g126
tp448
a(I0
g120
tp449
a(I0
g126
tp450
a(I0
g51
tp451
a(I0
g51
tp452
a(I0
g57
tp453
a(I0
g57
tp454
a(I0
g53
tp455
a(I0
g53
tp456
a(I0
g120
tp457
a(I0
g120
tp458
a(I0
g126
tp459
a(I0
g126
tp460
a(I0
g120
tp461
a(I0
g126
tp462
a(I0
g51
tp463
a(I0
g57
tp464
a(I0
g51
tp465
a(I0
g53
tp466
a(I0
g53
tp467
a(I0
g120
tp468
a(I0
g126
tp469
a(I0
g120
tp470
a(I0
g120
tp471
a(I0
g126
tp472
a(I0
g126
tp473
a(I0
g51
tp474
a(I0
g51
tp475
a(I0
g53
tp476
a(I0
g53
tp477
a(I0
g57
tp478
a(I0
g51
tp479
a(I0
g51
tp480
a(I0
g53
tp481
a(I0
g53
tp482
a(I0
g120
tp483
a(I0
g126
tp484
a(I0
g51
tp485
a(I0
g51
tp486
a(I0
g53
tp487
a(I0
g53
tp488
a(I0
g57
tp489
a(I0
g57
tp490
a(I0
g57
tp491
a(I0
g57
tp492
a(I0
g57
tp493
a(I0
g120
tp494
a(I0
g126
tp495
a(I0
g51
tp496
a(I0
g51
tp497
a(I0
g53
tp498
a(I0
g53
tp499
a(I0
g120
tp500
a(I0
g126
tp501
a(I0
g120
tp502
a(I0
g120
tp503
a(I0
g126
tp504
a(I0
g126
tp505
a(I0
g51
tp506
a(I0
g51
tp507
a(I0
g53
tp508
a(I0
g53
tp509
a(I0
g120
tp510
a(I0
g126
tp511
a(I0
g51
tp512
a(I0
g57
tp513
a(I0
g53
tp514
a(I0
g51
tp515
a(I0
g51
tp516
a(I0
g53
tp517
a(I0
g57
tp518
a(I0
g53
tp519
a(I0
g51
tp520
a(I0
g51
tp521
a(I0
g53
tp522
a(I0
g53
tp523
a(I0
g51
tp524
a(I0
g53
tp525
a(I0
g51
tp526
a(I0
g53
tp527
a(I0
g57
tp528
a(I0
g57
tp529
a(I0
g57
tp530
a(I0
g120
tp531
a(I0
g120
tp532
a(I0
g126
tp533
a(I0
g126
tp534
a(I0
g51
tp535
a(I0
g51
tp536
a(I0
g53
tp537
a(I0
g51
tp538
a(I0
g57
tp539
a(I0
g53
tp540
a(I0
g57
tp541
a(I0
g57
tp542
a(I0
g53
tp543
a(I0
g57
tp544
a(I0
g120
tp545
a(I0
g57
tp546
a(I0
g126
tp547
a(I0
g51
tp548
a(I0
g53
tp549
a(I0
g51
tp550
a(I0
g53
tp551
a(I0
g57
tp552
a(I0
g57
tp553
a(I0
g57
tp554
a(I0
g120
tp555
a(I0
g57
tp556
a(I0
g126
tp557
a(I0
g51
tp558
a(I0
g51
tp559
a(I0
g53
tp560
a(I0
g53
tp561
a(I0
g120
tp562
a(I0
g126
tp563
a(I0
g51
tp564
a(I0
g51
tp565
a(I0
g53
tp566
a(I0
g53
tp567
a(I0
g51
tp568
a(I0
g51
tp569
a(I0
g53
tp570
a(I0
g51
tp571
a(I0
g57
tp572
a(I0
g57
tp573
a(I0
g53
tp574
a(I0
g53
tp575
a(I0
g57
tp576
a(I0
g57
tp577
a(I0
g120
tp578
a(I0
g126
tp579
a(I0
g120
tp580
a(I0
g126
tp581
a(I0
g120
tp582
a(I0
g126
tp583
a(I0
g51
tp584
a(I0
g57
tp585
a(I0
g51
tp586
a(I0
g53
tp587
a(I0
g53
tp588
a(I0
g120
tp589
a(I0
g126
tp590
a(I0
g51
tp591
a(I0
g57
tp592
a(I0
g51
tp593
a(I0
g53
tp594
a(I0
g51
tp595
a(I0
g53
tp596
a(I0
g53
tp597
a(I0
g120
tp598
a(I0
g126
tp599
a(I0
g51
tp600
a(I0
g57
tp601
a(I0
g51
tp602
a(I0
g53
tp603
a(I0
g53
tp604
a(I0
g120
tp605
a(I0
g126
tp606
a(I0
g51
tp607
a(I0
g51
tp608
a(I0
g53
tp609
a(I0
g53
tp610
a(I0
g120
tp611
a(I0
g120
tp612
a(I0
g120
tp613
a(I0
g57
tp614
a(I0
g57
tp615
a(I0
g57
tp616
a(I0
g57
tp617
a(I0
g57
tp618
a(I0
g57
tp619
a(I0
g57
tp620
a(I0
g126
tp621
a(I0
g126
tp622
a(I0
g126
tp623
a(I0
g120
tp624
a(I0
g126
tp625
a(I0
g51
tp626
a(I0
g53
tp627
a(I0
g57
tp628
a(I0
g120
tp629
a(I0
g126
tp630
a(I0
g51
tp631
a(I0
g51
tp632
a(I0
g53
tp633
a(I0
g53
tp634
a(I0
g120
tp635
a(I0
g126
tp636
a(I0
g51
tp637
a(I0
g51
tp638
a(I0
g53
tp639
a(I0
g53
tp640
a(I0
g51
tp641
a(I0
g57
tp642
a(I0
g51
tp643
a(I0
g53
tp644
a(I0
g57
tp645
a(I0
g53
tp646
a(I0
g120
tp647
a(I0
g126
tp648
a(I0
g120
tp649
a(I0
g120
tp650
a(I0
g126
tp651
a(I0
g120
tp652
a(I0
g120
tp653
a(I0
g126
tp654
a(I0
g126
tp655
a(I0
g126
tp656
a(I0
g120
tp657
a(I0
g126
tp658
a(I0
g51
tp659
a(I0
g51
tp660
a(I0
g53
tp661
a(I0
g53
tp662
a(I0
g120
tp663
a(I0
g57
tp664
a(I0
g57
tp665
a(I0
g120
tp666
a(I0
g126
tp667
a(I0
g126
tp668
a(I0
g120
tp669
a(I0
g120
tp670
a(I0
g126
tp671
a(I0
g126
tp672
a(I0
g120
tp673
a(I0
g126
tp674
a(I0
g57
tp675
a(I0
g57
tp676
a(I0
g57
tp677
a(I0
g57
tp678
a(I0
g51
tp679
a(I0
g57
tp680
a(I0
g51
tp681
a(I0
g53
tp682
a(I0
g53
tp683
a(I0
g120
tp684
a(I0
g126
tp685
a(I0
g51
tp686
a(I0
g51
tp687
a(I0
g53
tp688
a(I0
g53
tp689
a(I0
g120
tp690
a(I0
g126
tp691
a(I0
g51
tp692
a(I0
g53
tp693
a(I0
g57
tp694
a(I0
g120
tp695
a(I0
g126
tp696
a(I0
g51
tp697
a(I0
g51
tp698
a(I0
g53
tp699
a(I0
g53
tp700
a(I0
g120
tp701
a(I0
g126
tp702
a(I0
g51
tp703
a(I0
g51
tp704
a(I0
g53
tp705
a(I0
g53
tp706
a(I0
g120
tp707
a(I0
g126
tp708
a(I0
g51
tp709
a(I0
g51
tp710
a(I0
g53
tp711
a(I0
g53
tp712
a(I0
g120
tp713
a(I0
g126
tp714
a(I0
g51
tp715
a(I0
g51
tp716
a(I0
g53
tp717
a(I0
g53
tp718
a(I0
g120
tp719
a(I0
g126
tp720
a(I0
g51
tp721
a(I0
g51
tp722
a(I0
g53
tp723
a(I0
g53
tp724
a(I0
g120
tp725
a(I0
g57
tp726
a(I0
g120
tp727
a(I0
g57
tp728
a(I0
g57
tp729
a(I0
g57
tp730
a(I0
g57
tp731
a(I0
g57
tp732
a(I0
g57
tp733
a(I0
g57
tp734
a(I0
g57
tp735
a(I0
g57
tp736
a(I0
g57
tp737
a(I0
g57
tp738
a(I0
g57
tp739
a(I0
g57
tp740
a(I0
g57
tp741
a(I0
g57
tp742
a(I0
g57
tp743
a(I0
g57
tp744
a(I0
g57
tp745
a(I0
g57
tp746
a(I0
g57
tp747
a(I0
g57
tp748
a(I0
g57
tp749
a(I0
g57
tp750
a(I0
g57
tp751
a(I0
g57
tp752
a(I0
g57
tp753
a(I0
g57
tp754
a(I0
g57
tp755
a(I0
g57
tp756
a(I0
g57
tp757
a(I0
g57
tp758
a(I0
g57
tp759
a(I0
g57
tp760
a(I0
g57
tp761
a(I0
g57
tp762
a(I0
g126
tp763
a(I0
g57
tp764
a(I0
g57
tp765
a(I0
g57
tp766
a(I0
g57
tp767
a(I0
g57
tp768
a(I0
g57
tp769
a(I0
g126
tp770
a(I0
g51
tp771
a(I0
g51
tp772
a(I0
g53
tp773
a(I0
g53
tp774
a(I0
g120
tp775
a(I0
g120
tp776
a(I0
g126
tp777
a(I0
g57
tp778
a(I0
g57
tp779
a(I0
g57
tp780
a(I0
g57
tp781
a(I0
g57
tp782
a(I0
g57
tp783
a(I0
g57
tp784
a(I0
g57
tp785
a(I0
g57
tp786
a(I0
g57
tp787
a(I0
g57
tp788
a(I0
g57
tp789
a(I0
g57
tp790
a(I0
g57
tp791
a(I0
g57
tp792
a(I0
g57
tp793
a(I0
g57
tp794
a(I0
g57
tp795
a(I0
g57
tp796
a(I0
g57
tp797
a(I0
g57
tp798
a(I0
g57
tp799
a(I0
g57
tp800
a(I0
g57
tp801
a(I0
g126
tp802
a(I0
g120
tp803
a(I0
g126
tp804
a(I0
g51
tp805
a(I0
g51
tp806
a(I0
g53
tp807
a(I0
g53
tp808
a(I0
g120
tp809
a(I0
g126
tp810
a(I0
g51
tp811
a(I0
g51
tp812
a(I0
g53
tp813
a(I0
g53
tp814
a(I0
g120
tp815
a(I0
g126
tp816
a(I0
g51
tp817
a(I0
g51
tp818
a(I0
g57
tp819
a(I0
g53
tp820
a(I0
g51
tp821
a(I0
g53
tp822
a(I0
g53
tp823
a(I0
g120
tp824
a(I0
g126
tp825
a(I0
g120
tp826
a(I0
g126
tp827
a(I0
g51
tp828
a(I0
g51
tp829
a(I0
g53
tp830
a(I0
g53
tp831
a(I0
g120
tp832
a(I0
g126
tp833
a(I0
g51
tp834
a(I0
g51
tp835
a(I0
g53
tp836
a(I0
g53
tp837
a(I0
g120
tp838
a(I0
g126
tp839
a(I0
g51
tp840
a(I0
g51
tp841
a(I0
g53
tp842
a(I0
g53
tp843
a(I0
g120
tp844
a(I0
g126
tp845
a(I0
g51
tp846
a(I0
g57
tp847
a(I0
g57
tp848
a(I0
g51
tp849
a(I0
g53
tp850
a(I0
g53
tp851
a(I0
g120
tp852
a(I0
g126
tp853
a(I0
g51
tp854
a(I0
g51
tp855
a(I0
g53
tp856
a(I0
g53
tp857
a(I0
g57
tp858
a(I0
g120
tp859
a(I0
g126
tp860
a(I0
g51
tp861
a(I0
g51
tp862
a(I0
g53
tp863
a(I0
g53
tp864
a(I0
g120
tp865
a(I0
g57
tp866
a(I0
g57
tp867
a(I0
g126
tp868
a(I0
g51
tp869
a(I0
g57
tp870
a(I0
g57
tp871
a(I0
g57
tp872
a(I0
g57
tp873
a(I0
g51
tp874
a(I0
g53
tp875
a(I0
g53
tp876
a(I0
g120
tp877
a(I0
g126
tp878
a(I0
g51
tp879
a(I0
g51
tp880
a(I0
g53
tp881
a(I0
g53
tp882
a(I0
g120
tp883
a(I0
g126
tp884
a(I0
g51
tp885
a(I0
g51
tp886
a(I0
g53
tp887
a(I0
g53
tp888
a(I0
g120
tp889
a(I0
g126
tp890
a(I0
g51
tp891
a(I0
g51
tp892
a(I0
g53
tp893
a(I0
g53
tp894
a(I0
g120
tp895
a(I0
g126
tp896
a(I0
g57
tp897
a(I0
g51
tp898
a(I0
g51
tp899
a(I0
g53
tp900
a(I0
g53
tp901
a(I0
g120
tp902
a(I0
g57
tp903
a(I0
g126
tp904
a(I0
g51
tp905
a(I0
g51
tp906
a(I0
g53
tp907
a(I0
g53
tp908
a(I0
g120
tp909
a(I0
g126
tp910
a(I0
g51
tp911
a(I0
g51
tp912
a(I0
g53
tp913
a(I0
g53
tp914
a(I0
g120
tp915
a(I0
g126
tp916
a(I0
g51
tp917
a(I0
g57
tp918
a(I0
g51
tp919
a(I0
g53
tp920
a(I0
g53
tp921
a(I0
g120
tp922
a(I0
g126
tp923
a(I0
g51
tp924
a(I0
g51
tp925
a(I0
g53
tp926
a(I0
g53
tp927
a(I0
g120
tp928
a(I0
g126
tp929
a(I0
g51
tp930
a(I0
g51
tp931
a(I0
g53
tp932
a(I0
g53
tp933
a(I0
g120
tp934
a(I0
g57
tp935
a(I0
g126
tp936
a(I0
g51
tp937
a(I0
g51
tp938
a(I0
g53
tp939
a(I0
g53
tp940
a(I0
g120
tp941
a(I0
g57
tp942
a(I0
g126
tp943
a(I0
g51
tp944
a(I0
g51
tp945
a(I0
g53
tp946
a(I0
g53
tp947
a(I0
g120
tp948
a(I0
g126
tp949
a(I0
g51
tp950
a(I0
g57
tp951
a(I0
g51
tp952
a(I0
g57
tp953
a(I0
g53
tp954
a(I0
g53
tp955
a(I0
g120
tp956
a(I0
g126
tp957
a(I0
g51
tp958
a(I0
g57
tp959
a(I0
g57
tp960
a(I0
g57
tp961
a(I0
g57
tp962
a(I0
g51
tp963
a(I0
g53
tp964
a(I0
g53
tp965
a(I0
g120
tp966
a(I0
g126
tp967
a(I0
g57
tp968
a(I0
g57
tp969
a(I0
g57
tp970
a(I0
g51
tp971
a(I0
g57
tp972
a(I0
g57
tp973
a(I0
g51
tp974
a(I0
g53
tp975
a(I0
g53
tp976
a(I0
g120
tp977
a(I0
g126
tp978
a(I0
g120
tp979
a(I0
g126
tp980
a(I0
g120
tp981
a(I0
g126
tp982
a(I0
g51
tp983
a(I0
g53
tp984
a(I0
g120
tp985
a(I0
g126
tp986
a(I0
g51
tp987
a(I0
g51
tp988
a(I0
g53
tp989
a(I0
g53
tp990
a(I0
g120
tp991
a(I0
g126
tp992
a(I0
g51
tp993
a(I0
g57
tp994
a(I0
g57
tp995
a(I0
g51
tp996
a(I0
g53
tp997
a(I0
g53
tp998
a(I0
g120
tp999
a(I0
g126
tp1000
a(I0
g51
tp1001
a(I0
g51
tp1002
a(I0
g53
tp1003
a(I0
g53
tp1004
a(I0
g120
tp1005
a(I0
g126
tp1006
a(I0
g51
tp1007
a(I0
g51
tp1008
a(I0
g53
tp1009
a(I0
g53
tp1010
a(I0
g120
tp1011
a(I0
g126
tp1012
a(I0
g120
tp1013
a(I0
g126
tp1014
a(I0
g51
tp1015
a(I0
g57
tp1016
a(I0
g57
tp1017
a(I0
g57
tp1018
a(I0
g51
tp1019
a(I0
g53
tp1020
a(I0
g57
tp1021
a(I0
g53
tp1022
a(I0
g51
tp1023
a(I0
g51
tp1024
a(I0
g53
tp1025
a(I0
g53
tp1026
a(I0
g120
tp1027
a(I0
g120
tp1028
a(I0
g126
tp1029
a(I0
g57
tp1030
a(I0
g57
tp1031
a(I0
g57
tp1032
a(I0
g57
tp1033
a(I0
g57
tp1034
a(I0
g57
tp1035
a(I0
g57
tp1036
a(I0
g57
tp1037
a(I0
g57
tp1038
a(I0
g57
tp1039
a(I0
g57
tp1040
a(I0
g57
tp1041
a(I0
g126
tp1042
a(I0
g51
tp1043
a(I0
g51
tp1044
a(I0
g53
tp1045
a(I0
g53
tp1046
a(I0
g120
tp1047
a(I0
g57
tp1048
a(I0
g57
tp1049
a(I0
g57
tp1050
a(I0
g57
tp1051
a(I0
g57
tp1052
a(I0
g57
tp1053
a(I0
g57
tp1054
a(I0
g57
tp1055
a(I0
g57
tp1056
a(I0
g57
tp1057
a(I0
g126
tp1058
a(I0
g51
tp1059
a(I0
g57
tp1060
a(I0
g57
tp1061
a(I0
g57
tp1062
a(I0
g57
tp1063
a(I0
g57
tp1064
a(I0
g57
tp1065
a(I0
g57
tp1066
a(I0
g57
tp1067
a(I0
g57
tp1068
a(I0
g51
tp1069
a(I0
g53
tp1070
a(I0
g53
tp1071
a(I0
g120
tp1072
a(I0
g57
tp1073
a(I0
g57
tp1074
a(I0
g57
tp1075
a(I0
g57
tp1076
a(I0
g57
tp1077
a(I0
g57
tp1078
a(I0
g57
tp1079
a(I0
g57
tp1080
a(I0
g57
tp1081
a(I0
g57
tp1082
a(I0
g57
tp1083
a(I0
g57
tp1084
a(I0
g57
tp1085
a(I0
g57
tp1086
a(I0
g57
tp1087
a(I0
g126
tp1088
a(I0
g51
tp1089
a(I0
g51
tp1090
a(I0
g53
tp1091
a(I0
g53
tp1092
a(I0
g120
tp1093
a(I0
g126
tp1094
a(I0
g51
tp1095
a(I0
g51
tp1096
a(I0
g53
tp1097
a(I0
g53
tp1098
a(I0
g57
tp1099
a(I0
g120
tp1100
a(I0
g126
tp1101
a(I0
g51
tp1102
a(I0
g51
tp1103
a(I0
g53
tp1104
a(I0
g53
tp1105
a(I0
g120
tp1106
a(I0
g126
tp1107
a(I0
g51
tp1108
a(I0
g51
tp1109
a(I0
g53
tp1110
a(I0
g53
tp1111
a(I0
g120
tp1112
a(I0
g126
tp1113
a(I0
g51
tp1114
a(I0
g51
tp1115
a(I0
g53
tp1116
a(I0
g53
tp1117
a(I0
g120
tp1118
a(I0
g126
tp1119
a(I0
g51
tp1120
a(I0
g51
tp1121
a(I0
g53
tp1122
a(I0
g53
tp1123
a(I0
g120
tp1124
a(I0
g120
tp1125
a(I0
g57
tp1126
a(I0
g57
tp1127
a(I0
g57
tp1128
a(I0
g57
tp1129
a(I0
g57
tp1130
a(I0
g57
tp1131
a(I0
g57
tp1132
a(I0
g57
tp1133
a(I0
g57
tp1134
a(I0
g57
tp1135
a(I0
g57
tp1136
a(I0
g57
tp1137
a(I0
g57
tp1138
a(I0
g57
tp1139
a(I0
g57
tp1140
a(I0
g57
tp1141
a(I0
g57
tp1142
a(I0
g57
tp1143
a(I0
g57
tp1144
a(I0
g57
tp1145
a(I0
g57
tp1146
a(I0
g57
tp1147
a(I0
g57
tp1148
a(I0
g57
tp1149
a(I0
g57
tp1150
a(I0
g57
tp1151
a(I0
g57
tp1152
a(I0
g57
tp1153
a(I0
g57
tp1154
a(I0
g57
tp1155
a(I0
g57
tp1156
a(I0
g57
tp1157
a(I0
g57
tp1158
a(I0
g57
tp1159
a(I0
g57
tp1160
a(I0
g57
tp1161
a(I0
g57
tp1162
a(I0
g57
tp1163
a(I0
g57
tp1164
a(I0
g57
tp1165
a(I0
g57
tp1166
a(I0
g57
tp1167
a(I0
g57
tp1168
a(I0
g57
tp1169
a(I0
g57
tp1170
a(I0
g57
tp1171
a(I0
g57
tp1172
a(I0
g57
tp1173
a(I0
g126
tp1174
a(I0
g120
tp1175
a(I0
g126
tp1176
a(I0
g57
tp1177
a(I0
g57
tp1178
a(I0
g57
tp1179
a(I0
g57
tp1180
a(I0
g57
tp1181
a(I0
g57
tp1182
a(I0
g57
tp1183
a(I0
g57
tp1184
a(I0
g57
tp1185
a(I0
g57
tp1186
a(I0
g57
tp1187
a(I0
g126
tp1188
a(I0
g51
tp1189
a(I0
g57
tp1190
a(I0
g57
tp1191
a(I0
g57
tp1192
a(I0
g57
tp1193
a(I0
g57
tp1194
a(I0
g53
tp1195
a(I0
g120
tp1196
a(I0
g57
tp1197
a(I0
g57
tp1198
a(I0
g57
tp1199
a(I0
g120
tp1200
a(I0
g126
tp1201
a(I0
g126
tp1202
a(I0
g57
tp1203
a(I0
g57
tp1204
a(I0
g57
tp1205
a(I0
g57
tp1206
a(I0
g57
tp1207
a(I0
g57
tp1208
a(I0
g57
tp1209
a(I0
g57
tp1210
a(I0
g57
tp1211
a(I0
g57
tp1212
a(I0
g57
tp1213
a(I0
g57
tp1214
a(I0
g57
tp1215
a(I0
g57
tp1216
a(I0
g57
tp1217
a(I0
g57
tp1218
a(I0
g57
tp1219
a(I0
g57
tp1220
a(I0
g51
tp1221
a(I0
g53
tp1222
a(I0
g120
tp1223
a(I0
g126
tp1224
a(I0
g51
tp1225
a(I0
g57
tp1226
a(I0
g57
tp1227
a(I0
g57
tp1228
a(I0
g57
tp1229
a(I0
g57
tp1230
a(I0
g57
tp1231
a(I0
g51
tp1232
a(I0
g53
tp1233
a(I0
g53
tp1234
a(I0
g120
tp1235
a(I0
g57
tp1236
a(I0
g126
tp1237
a(I0
g51
tp1238
a(I0
g57
tp1239
a(I0
g57
tp1240
a(I0
g51
tp1241
a(I0
g53
tp1242
a(I0
g53
tp1243
a(I0
g120
tp1244
a(I0
g126
tp1245
a(I0
g51
tp1246
a(I0
g53
tp1247
a(I0
g51
tp1248
a(I0
g53
tp1249
a(I0
g51
tp1250
a(I0
g53
tp1251
a(I0
g51
tp1252
a(I0
g53
tp1253
a(I0
g57
tp1254
a(I0
g57
tp1255
a(I0
g57
tp1256
a(I0
g51
tp1257
a(I0
g53
tp1258
a(I0
g51
tp1259
a(I0
g53
tp1260
a(I0
g51
tp1261
a(I0
g53
tp1262
a(I0
g57
tp1263
a(I0
g120
tp1264
as.