(dp1
S'layout'
p2
(ilayout
Layout
p3
(dp4
S'capsules'
p5
(lp6
sS'numGhosts'
p7
I1
sS'food'
p8
(igame
Grid
p9
(dp10
S'CELLS_PER_INT'
p11
I30
sS'width'
p12
I7
sS'data'
p13
(lp14
(lp15
I00
aI00
aI00
aI00
aI00
aI00
aI00
aa(lp16
I00
aI01
aI00
aI00
aI00
aI00
aI00
aa(lp17
I00
aI00
aI00
aI00
aI00
aI00
aI00
aa(lp18
I00
aI00
aI00
aI01
aI00
aI00
aI00
aa(lp19
I00
aI00
aI00
aI00
aI00
aI00
aI00
aa(lp20
I00
aI00
aI00
aI00
aI00
aI00
aI00
aa(lp21
I00
aI00
aI00
aI00
aI00
aI00
aI00
aasS'height'
p22
I7
sbsS'agentPositions'
p23
(lp24
(I01
(I2
I5
tp25
tp26
a(I00
(I3
I1
ttp27
asg22
I7
sg12
I7
sS'walls'
p28
(igame
Grid
p29
(dp30
g11
I30
sg12
I7
sg13
(lp31
(lp32
I01
aI01
aI01
aI01
aI01
aI01
aI01
aa(lp33
I01
aI00
aI00
aI00
aI00
aI00
aI01
aa(lp34
I01
aI00
aI01
aI01
aI01
aI00
aI01
aa(lp35
I01
aI00
aI01
aI00
aI01
aI00
aI01
aa(lp36
I01
aI00
aI01
aI00
aI01
aI00
aI01
aa(lp37
I01
aI00
aI00
aI00
aI00
aI00
aI01
aa(lp38
I01
aI01
aI01
aI01
aI01
aI01
aI01
aasg22
I7
sbsS'totalFood'
p39
I2
sS'layoutText'
p40
(lp41
S'%%%%%%%'
p42
aS'% P   %'
p43
aS'% %%% %'
p44
aS'% %.  %'
p45
aS'% %%% %'
p46
aS'%. G  %'
p47
aS'%%%%%%%'
p48
asbsS'actions'
p49
(lp50
(I0
S'West'
p51
tp52
a(I0
S'South'
p53
tp54
a(I0
g53
tp55
a(I0
g53
tp56
a(I0
g53
tp57
a(I0
S'North'
p58
tp59
a(I0
g58
tp60
a(I0
S'Stop'
p61
tp62
a(I0
g58
tp63
a(I0
g53
tp64
a(I0
g61
tp65
a(I0
g58
tp66
a(I0
g58
tp67
a(I0
S'East'
p68
tp69
a(I0
g68
tp70
a(I0
g61
tp71
a(I0
g61
tp72
a(I0
g61
tp73
a(I0
g61
tp74
a(I0
g61
tp75
a(I0
g68
tp76
a(I0
g51
tp77
a(I0
g51
tp78
a(I0
g68
tp79
a(I0
g68
tp80
a(I0
g61
tp81
a(I0
g61
tp82
a(I0
g68
tp83
a(I0
g51
tp84
a(I0
g51
tp85
a(I0
g51
tp86
a(I0
g61
tp87
a(I0
g61
tp88
a(I0
g68
tp89
a(I0
g68
tp90
a(I0
g61
tp91
a(I0
g61
tp92
a(I0
g61
tp93
a(I0
g61
tp94
a(I0
g68
tp95
a(I0
g53
tp96
a(I0
g58
tp97
a(I0
g51
tp98
a(I0
g61
tp99
a(I0
g61
tp100
a(I0
g68
tp101
a(I0
g51
tp102
a(I0
g68
tp103
a(I0
g61
tp104
a(I0
g53
tp105
a(I0
g58
tp106
a(I0
g61
tp107
a(I0
g51
tp108
a(I0
g51
tp109
a(I0
g51
tp110
a(I0
g61
tp111
a(I0
g68
tp112
a(I0
g68
tp113
a(I0
g68
tp114
a(I0
g51
tp115
a(I0
g51
tp116
a(I0
g68
tp117
a(I0
g68
tp118
a(I0
g51
tp119
a(I0
g51
tp120
a(I0
g68
tp121
a(I0
g68
tp122
a(I0
g51
tp123
a(I0
g51
tp124
a(I0
g68
tp125
a(I0
g51
tp126
a(I0
g68
tp127
a(I0
g68
tp128
a(I0
g61
tp129
a(I0
g51
tp130
a(I0
g61
tp131
a(I0
g51
tp132
a(I0
g61
tp133
a(I0
g51
tp134
a(I0
g61
tp135
a(I0
g61
tp136
a(I0
g68
tp137
a(I0
g61
tp138
a(I0
g61
tp139
a(I0
g51
tp140
a(I0
g61
tp141
a(I0
g51
tp142
a(I0
g53
tp143
a(I0
g58
tp144
a(I0
g53
tp145
a(I0
g58
tp146
a(I0
g68
tp147
a(I0
g61
tp148
a(I0
g61
tp149
a(I0
g68
tp150
a(I0
g51
tp151
a(I0
g61
tp152
a(I0
g61
tp153
a(I0
g51
tp154
a(I0
g61
tp155
a(I0
g61
tp156
a(I0
g61
tp157
a(I0
g61
tp158
a(I0
g61
tp159
a(I0
g61
tp160
a(I0
g61
tp161
a(I0
g68
tp162
a(I0
g61
tp163
a(I0
g61
tp164
a(I0
g68
tp165
a(I0
g61
tp166
a(I0
g68
tp167
a(I0
g51
tp168
a(I0
g51
tp169
a(I0
g51
tp170
a(I0
g61
tp171
a(I0
g61
tp172
a(I0
g68
tp173
a(I0
g68
tp174
a(I0
g68
tp175
a(I0
g51
tp176
a(I0
g68
tp177
a(I0
g68
tp178
a(I0
g51
tp179
a(I0
g51
tp180
a(I0
g68
tp181
a(I0
g68
tp182
a(I0
g51
tp183
a(I0
g68
tp184
a(I0
g51
tp185
a(I0
g61
tp186
a(I0
g51
tp187
a(I0
g61
tp188
a(I0
g61
tp189
a(I0
g51
tp190
a(I0
g61
tp191
a(I0
g51
tp192
a(I0
g61
tp193
a(I0
g61
tp194
a(I0
g61
tp195
a(I0
g68
tp196
a(I0
g68
tp197
a(I0
g61
tp198
a(I0
g51
tp199
a(I0
g61
tp200
a(I0
g61
tp201
a(I0
g51
tp202
a(I0
g53
tp203
a(I0
g53
tp204
a(I0
g53
tp205
a(I0
g61
tp206
a(I0
g61
tp207
a(I0
g61
tp208
a(I0
g61
tp209
a(I0
g61
tp210
a(I0
g61
tp211
a(I0
g61
tp212
a(I0
g61
tp213
a(I0
g53
tp214
a(I0
g61
tp215
a(I0
g61
tp216
a(I0
g61
tp217
a(I0
g61
tp218
a(I0
g58
tp219
a(I0
g58
tp220
a(I0
g58
tp221
a(I0
g58
tp222
a(I0
g68
tp223
a(I0
g61
tp224
a(I0
g61
tp225
a(I0
g61
tp226
a(I0
g68
tp227
a(I0
g51
tp228
a(I0
g68
tp229
a(I0
g51
tp230
a(I0
g68
tp231
a(I0
g51
tp232
a(I0
g68
tp233
a(I0
g61
tp234
a(I0
g51
tp235
a(I0
g68
tp236
a(I0
g68
tp237
a(I0
g51
tp238
a(I0
g61
tp239
a(I0
g51
tp240
a(I0
g68
tp241
a(I0
g61
tp242
a(I0
g51
tp243
a(I0
g61
tp244
a(I0
g61
tp245
a(I0
g61
tp246
a(I0
g61
tp247
a(I0
g61
tp248
a(I0
g51
tp249
a(I0
g53
tp250
a(I0
g58
tp251
a(I0
g68
tp252
a(I0
g68
tp253
a(I0
g51
tp254
a(I0
g51
tp255
a(I0
g53
tp256
a(I0
g58
tp257
a(I0
g53
tp258
a(I0
g58
tp259
a(I0
g68
tp260
a(I0
g51
tp261
a(I0
g68
tp262
a(I0
g51
tp263
a(I0
g53
tp264
a(I0
g58
tp265
a(I0
g68
tp266
a(I0
g68
tp267
a(I0
g51
tp268
a(I0
g61
tp269
a(I0
g61
tp270
a(I0
g51
tp271
a(I0
g53
tp272
a(I0
g58
tp273
a(I0
g68
tp274
a(I0
g68
tp275
a(I0
g51
tp276
a(I0
g61
tp277
a(I0
g61
tp278
a(I0
g61
tp279
a(I0
g61
tp280
a(I0
g61
tp281
a(I0
g51
tp282
a(I0
g53
tp283
a(I0
g53
tp284
a(I0
g58
tp285
a(I0
g53
tp286
a(I0
g58
tp287
a(I0
g58
tp288
a(I0
g68
tp289
a(I0
g68
tp290
a(I0
g51
tp291
a(I0
g61
tp292
a(I0
g61
tp293
a(I0
g68
tp294
a(I0
g61
tp295
a(I0
g51
tp296
a(I0
g68
tp297
a(I0
g68
tp298
a(I0
g51
tp299
a(I0
g68
tp300
a(I0
g68
tp301
a(I0
g51
tp302
a(I0
g61
tp303
a(I0
g68
tp304
a(I0
g53
tp305
a(I0
g53
tp306
a(I0
g51
tp307
a(I0
g51
tp308
as.