(dp1
S'layout'
p2
(ilayout
Layout
p3
(dp4
S'capsules'
p5
(lp6
sS'numGhosts'
p7
I1
sS'food'
p8
(igame
Grid
p9
(dp10
S'CELLS_PER_INT'
p11
I30
sS'width'
p12
I7
sS'data'
p13
(lp14
(lp15
I00
aI00
aI00
aI00
aI00
aI00
aI00
aa(lp16
I00
aI01
aI00
aI00
aI00
aI00
aI00
aa(lp17
I00
aI00
aI00
aI00
aI00
aI00
aI00
aa(lp18
I00
aI00
aI00
aI01
aI00
aI00
aI00
aa(lp19
I00
aI00
aI00
aI00
aI00
aI00
aI00
aa(lp20
I00
aI00
aI00
aI00
aI00
aI00
aI00
aa(lp21
I00
aI00
aI00
aI00
aI00
aI00
aI00
aasS'height'
p22
I7
sbsS'agentPositions'
p23
(lp24
(I01
(I2
I5
tp25
tp26
a(I00
(I3
I1
ttp27
asg22
I7
sg12
I7
sS'walls'
p28
(igame
Grid
p29
(dp30
g11
I30
sg12
I7
sg13
(lp31
(lp32
I01
aI01
aI01
aI01
aI01
aI01
aI01
aa(lp33
I01
aI00
aI00
aI00
aI00
aI00
aI01
aa(lp34
I01
aI00
aI01
aI01
aI01
aI00
aI01
aa(lp35
I01
aI00
aI01
aI00
aI01
aI00
aI01
aa(lp36
I01
aI00
aI01
aI00
aI01
aI00
aI01
aa(lp37
I01
aI00
aI00
aI00
aI00
aI00
aI01
aa(lp38
I01
aI01
aI01
aI01
aI01
aI01
aI01
aasg22
I7
sbsS'totalFood'
p39
I2
sS'layoutText'
p40
(lp41
S'%%%%%%%'
p42
aS'% P   %'
p43
aS'% %%% %'
p44
aS'% %.  %'
p45
aS'% %%% %'
p46
aS'%. G  %'
p47
aS'%%%%%%%'
p48
asbsS'actions'
p49
(lp50
(I0
S'East'
p51
tp52
a(I0
g51
tp53
a(I0
g51
tp54
a(I0
S'South'
p55
tp56
a(I0
g55
tp57
a(I0
S'West'
p58
tp59
a(I0
g58
tp60
a(I0
S'Stop'
p61
tp62
a(I0
g61
tp63
a(I0
g51
tp64
a(I0
g58
tp65
a(I0
g61
tp66
a(I0
g51
tp67
a(I0
g61
tp68
a(I0
g51
tp69
a(I0
S'North'
p70
tp71
a(I0
g61
tp72
a(I0
g61
tp73
a(I0
g61
tp74
a(I0
g61
tp75
a(I0
g61
tp76
a(I0
g61
tp77
a(I0
g61
tp78
a(I0
g55
tp79
a(I0
g58
tp80
a(I0
g61
tp81
a(I0
g61
tp82
a(I0
g61
tp83
a(I0
g61
tp84
a(I0
g61
tp85
a(I0
g51
tp86
a(I0
g70
tp87
a(I0
g70
tp88
a(I0
g58
tp89
a(I0
g58
tp90
a(I0
g58
tp91
a(I0
g58
tp92
a(I0
g55
tp93
a(I0
g61
tp94
a(I0
g61
tp95
a(I0
g70
tp96
a(I0
g61
tp97
a(I0
g61
tp98
a(I0
g61
tp99
a(I0
g61
tp100
a(I0
g51
tp101
a(I0
g51
tp102
a(I0
g58
tp103
a(I0
g58
tp104
a(I0
g51
tp105
a(I0
g51
tp106
a(I0
g58
tp107
a(I0
g61
tp108
a(I0
g61
tp109
a(I0
g58
tp110
a(I0
g55
tp111
a(I0
g70
tp112
a(I0
g51
tp113
a(I0
g61
tp114
a(I0
g51
tp115
a(I0
g58
tp116
a(I0
g58
tp117
a(I0
g55
tp118
a(I0
g70
tp119
a(I0
g51
tp120
a(I0
g51
tp121
a(I0
g58
tp122
a(I0
g58
tp123
a(I0
g61
tp124
a(I0
g61
tp125
a(I0
g61
tp126
a(I0
g55
tp127
a(I0
g61
tp128
a(I0
g70
tp129
a(I0
g51
tp130
a(I0
g51
tp131
a(I0
g58
tp132
a(I0
g58
tp133
a(I0
g55
tp134
a(I0
g70
tp135
a(I0
g51
tp136
a(I0
g51
tp137
a(I0
g58
tp138
a(I0
g58
tp139
a(I0
g61
tp140
a(I0
g61
tp141
a(I0
g61
tp142
a(I0
g51
tp143
a(I0
g61
tp144
a(I0
g61
tp145
a(I0
g61
tp146
a(I0
g51
tp147
a(I0
g58
tp148
a(I0
g51
tp149
a(I0
g58
tp150
a(I0
g58
tp151
a(I0
g55
tp152
a(I0
g55
tp153
a(I0
g70
tp154
a(I0
g70
tp155
a(I0
g55
tp156
a(I0
g55
tp157
a(I0
g70
tp158
a(I0
g70
tp159
a(I0
g55
tp160
a(I0
g55
tp161
a(I0
g70
tp162
a(I0
g70
tp163
a(I0
g51
tp164
a(I0
g51
tp165
a(I0
g58
tp166
a(I0
g58
tp167
a(I0
g61
tp168
a(I0
g61
tp169
a(I0
g51
tp170
a(I0
g58
tp171
a(I0
g51
tp172
a(I0
g58
tp173
a(I0
g51
tp174
a(I0
g51
tp175
a(I0
g61
tp176
a(I0
g61
tp177
a(I0
g61
tp178
a(I0
g58
tp179
a(I0
g61
tp180
a(I0
g61
tp181
a(I0
g61
tp182
a(I0
g61
tp183
a(I0
g61
tp184
a(I0
g61
tp185
a(I0
g51
tp186
a(I0
g61
tp187
a(I0
g61
tp188
a(I0
g61
tp189
a(I0
g61
tp190
a(I0
g61
tp191
a(I0
g61
tp192
a(I0
g61
tp193
a(I0
g51
tp194
a(I0
g58
tp195
a(I0
g58
tp196
a(I0
g61
tp197
a(I0
g61
tp198
a(I0
g61
tp199
a(I0
g61
tp200
a(I0
g61
tp201
a(I0
g61
tp202
a(I0
g61
tp203
a(I0
g61
tp204
a(I0
g61
tp205
a(I0
g51
tp206
a(I0
g58
tp207
a(I0
g58
tp208
a(I0
g55
tp209
a(I0
g55
tp210
a(I0
g55
tp211
a(I0
g70
tp212
a(I0
g61
tp213
a(I0
g61
tp214
a(I0
g61
tp215
a(I0
g61
tp216
a(I0
g61
tp217
a(I0
g61
tp218
a(I0
g61
tp219
a(I0
g61
tp220
a(I0
g61
tp221
a(I0
g61
tp222
a(I0
g61
tp223
a(I0
g61
tp224
a(I0
g61
tp225
a(I0
g61
tp226
a(I0
g61
tp227
a(I0
g61
tp228
a(I0
g61
tp229
a(I0
g61
tp230
a(I0
g61
tp231
a(I0
g61
tp232
a(I0
g61
tp233
a(I0
g61
tp234
a(I0
g61
tp235
a(I0
g61
tp236
a(I0
g61
tp237
a(I0
g61
tp238
a(I0
g61
tp239
a(I0
g61
tp240
a(I0
g61
tp241
a(I0
g61
tp242
a(I0
g61
tp243
a(I0
g70
tp244
a(I0
g70
tp245
a(I0
g55
tp246
a(I0
g55
tp247
a(I0
g70
tp248
a(I0
g70
tp249
a(I0
g55
tp250
a(I0
g55
tp251
a(I0
g55
tp252
a(I0
g61
tp253
a(I0
g61
tp254
a(I0
g61
tp255
a(I0
g61
tp256
a(I0
g61
tp257
a(I0
g61
tp258
a(I0
g61
tp259
a(I0
g61
tp260
a(I0
g61
tp261
a(I0
g61
tp262
a(I0
g61
tp263
a(I0
g61
tp264
a(I0
g61
tp265
a(I0
g61
tp266
a(I0
g61
tp267
a(I0
g61
tp268
a(I0
g61
tp269
a(I0
g61
tp270
a(I0
g61
tp271
a(I0
g61
tp272
a(I0
g61
tp273
a(I0
g61
tp274
a(I0
g61
tp275
a(I0
g61
tp276
a(I0
g61
tp277
a(I0
g61
tp278
a(I0
g61
tp279
a(I0
g61
tp280
a(I0
g61
tp281
a(I0
g61
tp282
a(I0
g70
tp283
a(I0
g61
tp284
a(I0
g61
tp285
a(I0
g61
tp286
a(I0
g61
tp287
a(I0
g61
tp288
a(I0
g61
tp289
a(I0
g61
tp290
a(I0
g61
tp291
a(I0
g61
tp292
a(I0
g61
tp293
a(I0
g61
tp294
a(I0
g61
tp295
a(I0
g61
tp296
a(I0
g61
tp297
a(I0
g70
tp298
a(I0
g70
tp299
a(I0
g55
tp300
a(I0
g61
tp301
a(I0
g55
tp302
a(I0
g70
tp303
a(I0
g70
tp304
a(I0
g55
tp305
a(I0
g55
tp306
a(I0
g70
tp307
a(I0
g70
tp308
a(I0
g55
tp309
a(I0
g55
tp310
a(I0
g70
tp311
a(I0
g70
tp312
a(I0
g55
tp313
a(I0
g55
tp314
a(I0
g70
tp315
a(I0
g70
tp316
a(I0
g55
tp317
a(I0
g55
tp318
a(I0
g70
tp319
a(I0
g70
tp320
a(I0
g55
tp321
a(I0
g55
tp322
a(I0
g70
tp323
a(I0
g70
tp324
a(I0
g51
tp325
a(I0
g51
tp326
a(I0
g58
tp327
a(I0
g61
tp328
a(I0
g61
tp329
a(I0
g61
tp330
a(I0
g61
tp331
a(I0
g61
tp332
a(I0
g58
tp333
a(I0
g51
tp334
a(I0
g58
tp335
a(I0
g51
tp336
a(I0
g58
tp337
a(I0
g51
tp338
a(I0
g58
tp339
a(I0
g51
tp340
a(I0
g58
tp341
a(I0
g55
tp342
a(I0
g70
tp343
a(I0
g51
tp344
a(I0
g51
tp345
a(I0
g58
tp346
a(I0
g61
tp347
a(I0
g61
tp348
a(I0
g61
tp349
a(I0
g61
tp350
a(I0
g61
tp351
a(I0
g58
tp352
a(I0
g51
tp353
a(I0
g58
tp354
a(I0
g51
tp355
a(I0
g58
tp356
a(I0
g51
tp357
a(I0
g51
tp358
a(I0
g58
tp359
a(I0
g58
tp360
a(I0
g61
tp361
a(I0
g51
tp362
a(I0
g58
tp363
a(I0
g51
tp364
a(I0
g58
tp365
a(I0
g51
tp366
a(I0
g51
tp367
a(I0
g51
tp368
a(I0
g58
tp369
a(I0
g58
tp370
a(I0
g61
tp371
a(I0
g61
tp372
a(I0
g61
tp373
a(I0
g58
tp374
a(I0
g61
tp375
a(I0
g61
tp376
a(I0
g55
tp377
a(I0
g55
tp378
a(I0
g70
tp379
a(I0
g70
tp380
a(I0
g55
tp381
a(I0
g55
tp382
a(I0
g70
tp383
a(I0
g70
tp384
a(I0
g55
tp385
a(I0
g55
tp386
a(I0
g70
tp387
a(I0
g55
tp388
a(I0
g70
tp389
a(I0
g70
tp390
a(I0
g51
tp391
a(I0
g58
tp392
a(I0
g61
tp393
a(I0
g51
tp394
a(I0
g58
tp395
a(I0
g61
tp396
a(I0
g61
tp397
a(I0
g61
tp398
a(I0
g61
tp399
a(I0
g61
tp400
a(I0
g51
tp401
a(I0
g58
tp402
a(I0
g61
tp403
a(I0
g61
tp404
a(I0
g55
tp405
a(I0
g55
tp406
a(I0
g70
tp407
a(I0
g70
tp408
a(I0
g55
tp409
a(I0
g55
tp410
a(I0
g70
tp411
a(I0
g70
tp412
a(I0
g55
tp413
a(I0
g55
tp414
a(I0
g70
tp415
a(I0
g70
tp416
a(I0
g55
tp417
a(I0
g55
tp418
a(I0
g70
tp419
a(I0
g70
tp420
a(I0
g55
tp421
a(I0
g55
tp422
a(I0
g70
tp423
a(I0
g70
tp424
a(I0
g55
tp425
a(I0
g55
tp426
a(I0
g70
tp427
a(I0
g70
tp428
a(I0
g51
tp429
a(I0
g51
tp430
a(I0
g61
tp431
a(I0
g61
tp432
a(I0
g58
tp433
a(I0
g58
tp434
a(I0
g51
tp435
a(I0
g51
tp436
a(I0
g58
tp437
a(I0
g58
tp438
a(I0
g55
tp439
a(I0
g70
tp440
a(I0
g55
tp441
a(I0
g55
tp442
a(I0
g70
tp443
a(I0
g70
tp444
a(I0
g55
tp445
a(I0
g55
tp446
a(I0
g70
tp447
a(I0
g70
tp448
a(I0
g55
tp449
a(I0
g55
tp450
a(I0
g70
tp451
a(I0
g70
tp452
a(I0
g55
tp453
a(I0
g55
tp454
a(I0
g70
tp455
a(I0
g61
tp456
a(I0
g61
tp457
a(I0
g55
tp458
a(I0
g70
tp459
a(I0
g70
tp460
a(I0
g55
tp461
a(I0
g55
tp462
a(I0
g70
tp463
a(I0
g70
tp464
a(I0
g51
tp465
a(I0
g51
tp466
a(I0
g58
tp467
a(I0
g58
tp468
a(I0
g55
tp469
a(I0
g55
tp470
a(I0
g70
tp471
a(I0
g61
tp472
a(I0
g61
tp473
a(I0
g61
tp474
a(I0
g61
tp475
a(I0
g70
tp476
a(I0
g55
tp477
a(I0
g55
tp478
a(I0
g70
tp479
a(I0
g70
tp480
a(I0
g51
tp481
a(I0
g51
tp482
a(I0
g58
tp483
a(I0
g58
tp484
a(I0
g55
tp485
a(I0
g55
tp486
a(I0
g70
tp487
a(I0
g70
tp488
a(I0
g55
tp489
a(I0
g55
tp490
a(I0
g70
tp491
a(I0
g70
tp492
a(I0
g55
tp493
a(I0
g55
tp494
a(I0
g70
tp495
a(I0
g70
tp496
a(I0
g55
tp497
a(I0
g55
tp498
a(I0
g70
tp499
a(I0
g70
tp500
a(I0
g55
tp501
a(I0
g55
tp502
a(I0
g70
tp503
a(I0
g70
tp504
a(I0
g55
tp505
a(I0
g70
tp506
a(I0
g51
tp507
a(I0
g51
tp508
a(I0
g61
tp509
a(I0
g61
tp510
a(I0
g61
tp511
a(I0
g61
tp512
a(I0
g58
tp513
a(I0
g58
tp514
a(I0
g61
tp515
a(I0
g61
tp516
a(I0
g61
tp517
a(I0
g61
tp518
a(I0
g61
tp519
a(I0
g61
tp520
a(I0
g61
tp521
a(I0
g61
tp522
a(I0
g61
tp523
a(I0
g61
tp524
a(I0
g61
tp525
a(I0
g61
tp526
a(I0
g61
tp527
a(I0
g61
tp528
a(I0
g61
tp529
a(I0
g55
tp530
a(I0
g70
tp531
a(I0
g51
tp532
a(I0
g51
tp533
a(I0
g58
tp534
a(I0
g58
tp535
a(I0
g61
tp536
a(I0
g61
tp537
a(I0
g61
tp538
a(I0
g61
tp539
a(I0
g61
tp540
a(I0
g61
tp541
a(I0
g61
tp542
a(I0
g55
tp543
a(I0
g55
tp544
a(I0
g70
tp545
a(I0
g70
tp546
a(I0
g55
tp547
a(I0
g55
tp548
a(I0
g70
tp549
a(I0
g70
tp550
a(I0
g55
tp551
a(I0
g70
tp552
a(I0
g55
tp553
a(I0
g55
tp554
a(I0
g70
tp555
a(I0
g70
tp556
a(I0
g55
tp557
a(I0
g55
tp558
a(I0
g70
tp559
a(I0
g70
tp560
a(I0
g55
tp561
a(I0
g55
tp562
a(I0
g70
tp563
a(I0
g70
tp564
a(I0
g55
tp565
a(I0
g55
tp566
a(I0
g70
tp567
a(I0
g70
tp568
a(I0
g55
tp569
a(I0
g55
tp570
a(I0
g70
tp571
a(I0
g70
tp572
a(I0
g55
tp573
a(I0
g55
tp574
a(I0
g70
tp575
a(I0
g70
tp576
a(I0
g55
tp577
a(I0
g55
tp578
a(I0
g70
tp579
a(I0
g70
tp580
a(I0
g55
tp581
a(I0
g55
tp582
a(I0
g70
tp583
a(I0
g61
tp584
a(I0
g61
tp585
a(I0
g70
tp586
a(I0
g55
tp587
a(I0
g55
tp588
a(I0
g70
tp589
a(I0
g70
tp590
a(I0
g51
tp591
a(I0
g51
tp592
a(I0
g58
tp593
a(I0
g58
tp594
a(I0
g55
tp595
a(I0
g55
tp596
a(I0
g70
tp597
a(I0
g70
tp598
a(I0
g61
tp599
a(I0
g55
tp600
a(I0
g55
tp601
a(I0
g70
tp602
a(I0
g70
tp603
a(I0
g55
tp604
a(I0
g55
tp605
a(I0
g70
tp606
a(I0
g70
tp607
a(I0
g55
tp608
a(I0
g55
tp609
a(I0
g70
tp610
a(I0
g70
tp611
a(I0
g55
tp612
a(I0
g55
tp613
a(I0
g70
tp614
a(I0
g70
tp615
a(I0
g51
tp616
a(I0
g51
tp617
a(I0
g58
tp618
a(I0
g58
tp619
a(I0
g55
tp620
a(I0
g70
tp621
a(I0
g61
tp622
a(I0
g51
tp623
a(I0
g51
tp624
a(I0
g58
tp625
a(I0
g58
tp626
a(I0
g55
tp627
a(I0
g70
tp628
a(I0
g51
tp629
a(I0
g51
tp630
a(I0
g58
tp631
a(I0
g58
tp632
a(I0
g55
tp633
a(I0
g70
tp634
a(I0
g51
tp635
a(I0
g51
tp636
a(I0
g58
tp637
a(I0
g58
tp638
a(I0
g61
tp639
a(I0
g61
tp640
a(I0
g55
tp641
a(I0
g70
tp642
a(I0
g51
tp643
a(I0
g61
tp644
a(I0
g51
tp645
a(I0
g58
tp646
a(I0
g58
tp647
a(I0
g55
tp648
a(I0
g70
tp649
a(I0
g55
tp650
a(I0
g55
tp651
a(I0
g70
tp652
a(I0
g70
tp653
a(I0
g55
tp654
a(I0
g55
tp655
a(I0
g61
tp656
a(I0
g70
tp657
a(I0
g70
tp658
a(I0
g55
tp659
a(I0
g70
tp660
a(I0
g55
tp661
a(I0
g70
tp662
a(I0
g51
tp663
a(I0
g51
tp664
a(I0
g58
tp665
a(I0
g58
tp666
a(I0
g55
tp667
a(I0
g70
tp668
a(I0
g51
tp669
a(I0
g51
tp670
a(I0
g58
tp671
a(I0
g58
tp672
a(I0
g55
tp673
a(I0
g70
tp674
a(I0
g51
tp675
a(I0
g51
tp676
a(I0
g58
tp677
a(I0
g58
tp678
a(I0
g61
tp679
a(I0
g61
tp680
a(I0
g55
tp681
a(I0
g70
tp682
a(I0
g51
tp683
a(I0
g58
tp684
a(I0
g61
tp685
a(I0
g55
tp686
a(I0
g70
tp687
a(I0
g51
tp688
a(I0
g51
tp689
a(I0
g58
tp690
a(I0
g58
tp691
a(I0
g55
tp692
a(I0
g70
tp693
a(I0
g51
tp694
a(I0
g58
tp695
a(I0
g61
tp696
a(I0
g61
tp697
a(I0
g55
tp698
a(I0
g55
tp699
a(I0
g70
tp700
a(I0
g61
tp701
a(I0
g70
tp702
a(I0
g55
tp703
a(I0
g55
tp704
a(I0
g55
tp705
a(I0
g70
tp706
a(I0
g70
tp707
a(I0
g55
tp708
a(I0
g61
tp709
a(I0
g70
tp710
a(I0
g70
tp711
a(I0
g51
tp712
a(I0
g58
tp713
a(I0
g61
tp714
a(I0
g55
tp715
a(I0
g55
tp716
a(I0
g70
tp717
a(I0
g70
tp718
a(I0
g55
tp719
a(I0
g55
tp720
a(I0
g55
tp721
a(I0
g70
tp722
a(I0
g70
tp723
a(I0
g70
tp724
a(I0
g55
tp725
a(I0
g70
tp726
a(I0
g51
tp727
a(I0
g51
tp728
a(I0
g58
tp729
a(I0
g58
tp730
a(I0
g61
tp731
a(I0
g61
tp732
a(I0
g61
tp733
a(I0
g61
tp734
a(I0
g61
tp735
a(I0
g55
tp736
a(I0
g70
tp737
a(I0
g51
tp738
a(I0
g51
tp739
a(I0
g58
tp740
a(I0
g58
tp741
a(I0
g51
tp742
a(I0
g58
tp743
a(I0
g61
tp744
a(I0
g61
tp745
a(I0
g61
tp746
a(I0
g55
tp747
a(I0
g55
tp748
a(I0
g70
tp749
a(I0
g70
tp750
a(I0
g51
tp751
a(I0
g51
tp752
a(I0
g58
tp753
a(I0
g61
tp754
a(I0
g61
tp755
a(I0
g61
tp756
a(I0
g61
tp757
a(I0
g61
tp758
a(I0
g61
tp759
a(I0
g58
tp760
a(I0
g61
tp761
a(I0
g61
tp762
a(I0
g51
tp763
a(I0
g51
tp764
a(I0
g58
tp765
a(I0
g58
tp766
a(I0
g55
tp767
a(I0
g70
tp768
a(I0
g55
tp769
a(I0
g55
tp770
a(I0
g70
tp771
a(I0
g70
tp772
a(I0
g51
tp773
a(I0
g51
tp774
a(I0
g58
tp775
a(I0
g58
tp776
a(I0
g55
tp777
a(I0
g70
tp778
a(I0
g51
tp779
a(I0
g51
tp780
a(I0
g58
tp781
a(I0
g61
tp782
a(I0
g61
tp783
a(I0
g61
tp784
a(I0
g61
tp785
a(I0
g58
tp786
a(I0
g55
tp787
a(I0
g70
tp788
a(I0
g51
tp789
a(I0
g51
tp790
a(I0
g58
tp791
a(I0
g61
tp792
a(I0
g61
tp793
a(I0
g58
tp794
a(I0
g55
tp795
a(I0
g70
tp796
a(I0
g51
tp797
a(I0
g51
tp798
a(I0
g61
tp799
a(I0
g58
tp800
a(I0
g58
tp801
a(I0
g61
tp802
a(I0
g55
tp803
a(I0
g70
tp804
a(I0
g51
tp805
a(I0
g51
tp806
a(I0
g58
tp807
a(I0
g58
tp808
a(I0
g55
tp809
a(I0
g70
tp810
a(I0
g51
tp811
a(I0
g51
tp812
a(I0
g58
tp813
a(I0
g58
tp814
a(I0
g55
tp815
a(I0
g70
tp816
a(I0
g51
tp817
a(I0
g51
tp818
a(I0
g61
tp819
a(I0
g61
tp820
a(I0
g61
tp821
a(I0
g58
tp822
a(I0
g58
tp823
a(I0
g55
tp824
a(I0
g70
tp825
a(I0
g51
tp826
a(I0
g51
tp827
a(I0
g58
tp828
a(I0
g58
tp829
a(I0
g55
tp830
a(I0
g70
tp831
a(I0
g51
tp832
a(I0
g51
tp833
a(I0
g58
tp834
a(I0
g58
tp835
a(I0
g55
tp836
a(I0
g70
tp837
a(I0
g51
tp838
a(I0
g51
tp839
a(I0
g58
tp840
a(I0
g61
tp841
a(I0
g61
tp842
a(I0
g61
tp843
a(I0
g61
tp844
a(I0
g58
tp845
a(I0
g55
tp846
a(I0
g70
tp847
a(I0
g51
tp848
a(I0
g51
tp849
a(I0
g58
tp850
a(I0
g58
tp851
a(I0
g61
tp852
a(I0
g61
tp853
a(I0
g51
tp854
a(I0
g58
tp855
a(I0
g61
tp856
a(I0
g55
tp857
a(I0
g70
tp858
a(I0
g51
tp859
a(I0
g51
tp860
a(I0
g58
tp861
a(I0
g58
tp862
a(I0
g55
tp863
a(I0
g70
tp864
a(I0
g51
tp865
a(I0
g51
tp866
a(I0
g58
tp867
a(I0
g58
tp868
a(I0
g55
tp869
a(I0
g70
tp870
a(I0
g51
tp871
a(I0
g51
tp872
a(I0
g58
tp873
a(I0
g58
tp874
a(I0
g55
tp875
a(I0
g70
tp876
a(I0
g51
tp877
a(I0
g51
tp878
a(I0
g58
tp879
a(I0
g58
tp880
a(I0
g61
tp881
a(I0
g61
tp882
a(I0
g55
tp883
a(I0
g70
tp884
a(I0
g51
tp885
a(I0
g51
tp886
a(I0
g61
tp887
a(I0
g61
tp888
a(I0
g61
tp889
a(I0
g58
tp890
a(I0
g58
tp891
a(I0
g51
tp892
a(I0
g61
tp893
a(I0
g51
tp894
a(I0
g58
tp895
a(I0
g58
tp896
a(I0
g55
tp897
a(I0
g55
tp898
a(I0
g70
tp899
a(I0
g70
tp900
a(I0
g61
tp901
a(I0
g55
tp902
a(I0
g70
tp903
a(I0
g51
tp904
a(I0
g51
tp905
a(I0
g58
tp906
a(I0
g58
tp907
a(I0
g61
tp908
a(I0
g55
tp909
a(I0
g70
tp910
a(I0
g51
tp911
a(I0
g51
tp912
a(I0
g58
tp913
a(I0
g61
tp914
a(I0
g61
tp915
a(I0
g58
tp916
a(I0
g55
tp917
a(I0
g70
tp918
a(I0
g51
tp919
a(I0
g51
tp920
a(I0
g58
tp921
a(I0
g58
tp922
a(I0
g51
tp923
a(I0
g51
tp924
a(I0
g58
tp925
a(I0
g51
tp926
a(I0
g61
tp927
a(I0
g58
tp928
a(I0
g58
tp929
a(I0
g61
tp930
a(I0
g55
tp931
a(I0
g70
tp932
a(I0
g51
tp933
a(I0
g51
tp934
a(I0
g58
tp935
a(I0
g58
tp936
a(I0
g61
tp937
a(I0
g55
tp938
a(I0
g70
tp939
a(I0
g51
tp940
a(I0
g51
tp941
a(I0
g61
tp942
a(I0
g58
tp943
a(I0
g61
tp944
a(I0
g61
tp945
a(I0
g51
tp946
a(I0
g61
tp947
a(I0
g58
tp948
a(I0
g61
tp949
a(I0
g58
tp950
a(I0
g55
tp951
a(I0
g70
tp952
a(I0
g51
tp953
a(I0
g51
tp954
a(I0
g58
tp955
a(I0
g58
tp956
a(I0
g55
tp957
a(I0
g70
tp958
a(I0
g51
tp959
a(I0
g51
tp960
a(I0
g58
tp961
a(I0
g58
tp962
a(I0
g55
tp963
a(I0
g70
tp964
a(I0
g51
tp965
a(I0
g51
tp966
a(I0
g58
tp967
a(I0
g58
tp968
a(I0
g55
tp969
a(I0
g61
tp970
a(I0
g70
tp971
a(I0
g51
tp972
a(I0
g61
tp973
a(I0
g51
tp974
a(I0
g58
tp975
a(I0
g58
tp976
a(I0
g55
tp977
a(I0
g70
tp978
a(I0
g51
tp979
a(I0
g51
tp980
a(I0
g58
tp981
a(I0
g58
tp982
a(I0
g55
tp983
a(I0
g61
tp984
a(I0
g70
tp985
as.