(dp1
S'layout'
p2
(ilayout
Layout
p3
(dp4
S'capsules'
p5
(lp6
sS'numGhosts'
p7
I1
sS'food'
p8
(igame
Grid
p9
(dp10
S'CELLS_PER_INT'
p11
I30
sS'width'
p12
I7
sS'data'
p13
(lp14
(lp15
I00
aI00
aI00
aI00
aI00
aI00
aI00
aa(lp16
I00
aI01
aI00
aI00
aI00
aI00
aI00
aa(lp17
I00
aI00
aI00
aI00
aI00
aI00
aI00
aa(lp18
I00
aI00
aI00
aI01
aI00
aI00
aI00
aa(lp19
I00
aI00
aI00
aI00
aI00
aI00
aI00
aa(lp20
I00
aI00
aI00
aI00
aI00
aI00
aI00
aa(lp21
I00
aI00
aI00
aI00
aI00
aI00
aI00
aasS'height'
p22
I7
sbsS'agentPositions'
p23
(lp24
(I01
(I2
I5
tp25
tp26
a(I00
(I3
I1
ttp27
asg22
I7
sg12
I7
sS'walls'
p28
(igame
Grid
p29
(dp30
g11
I30
sg12
I7
sg13
(lp31
(lp32
I01
aI01
aI01
aI01
aI01
aI01
aI01
aa(lp33
I01
aI00
aI00
aI00
aI00
aI00
aI01
aa(lp34
I01
aI00
aI01
aI01
aI01
aI00
aI01
aa(lp35
I01
aI00
aI01
aI00
aI01
aI00
aI01
aa(lp36
I01
aI00
aI01
aI00
aI01
aI00
aI01
aa(lp37
I01
aI00
aI00
aI00
aI00
aI00
aI01
aa(lp38
I01
aI01
aI01
aI01
aI01
aI01
aI01
aasg22
I7
sbsS'totalFood'
p39
I2
sS'layoutText'
p40
(lp41
S'%%%%%%%'
p42
aS'% P   %'
p43
aS'% %%% %'
p44
aS'% %.  %'
p45
aS'% %%% %'
p46
aS'%. G  %'
p47
aS'%%%%%%%'
p48
asbsS'actions'
p49
(lp50
(I0
S'West'
p51
tp52
a(I0
S'South'
p53
tp54
a(I0
g53
tp55
a(I0
g53
tp56
a(I0
g53
tp57
a(I0
S'East'
p58
tp59
a(I0
g51
tp60
a(I0
S'Stop'
p61
tp62
a(I0
S'North'
p63
tp64
a(I0
g63
tp65
a(I0
g63
tp66
a(I0
g53
tp67
a(I0
g53
tp68
a(I0
g63
tp69
a(I0
g63
tp70
a(I0
g61
tp71
a(I0
g53
tp72
a(I0
g53
tp73
a(I0
g53
tp74
a(I0
g61
tp75
a(I0
g63
tp76
a(I0
g53
tp77
a(I0
g63
tp78
a(I0
g63
tp79
a(I0
g63
tp80
a(I0
g63
tp81
a(I0
g58
tp82
a(I0
g51
tp83
a(I0
g53
tp84
a(I0
g63
tp85
a(I0
g53
tp86
a(I0
g53
tp87
a(I0
g53
tp88
a(I0
g53
tp89
a(I0
g63
tp90
a(I0
g63
tp91
a(I0
g63
tp92
a(I0
g61
tp93
a(I0
g61
tp94
a(I0
g63
tp95
a(I0
g58
tp96
a(I0
g58
tp97
a(I0
g61
tp98
a(I0
g61
tp99
a(I0
g58
tp100
a(I0
g58
tp101
a(I0
g53
tp102
a(I0
g63
tp103
a(I0
g51
tp104
a(I0
g51
tp105
a(I0
g58
tp106
a(I0
g51
tp107
a(I0
g51
tp108
a(I0
g51
tp109
a(I0
g53
tp110
a(I0
g53
tp111
a(I0
g53
tp112
a(I0
g61
tp113
a(I0
g63
tp114
a(I0
g61
tp115
a(I0
g53
tp116
a(I0
g63
tp117
a(I0
g53
tp118
a(I0
g53
tp119
a(I0
g58
tp120
a(I0
g58
tp121
a(I0
g61
tp122
a(I0
g51
tp123
a(I0
g61
tp124
a(I0
g61
tp125
a(I0
g61
tp126
a(I0
g51
tp127
a(I0
g61
tp128
a(I0
g61
tp129
a(I0
g61
tp130
a(I0
g63
tp131
a(I0
g53
tp132
a(I0
g61
tp133
a(I0
g58
tp134
a(I0
g58
tp135
a(I0
g51
tp136
a(I0
g51
tp137
a(I0
g63
tp138
a(I0
g53
tp139
a(I0
g63
tp140
a(I0
g53
tp141
a(I0
g58
tp142
a(I0
g58
tp143
a(I0
g51
tp144
a(I0
g61
tp145
a(I0
g61
tp146
a(I0
g61
tp147
a(I0
g51
tp148
a(I0
g63
tp149
a(I0
g63
tp150
a(I0
g53
tp151
a(I0
g63
tp152
a(I0
g63
tp153
a(I0
g53
tp154
a(I0
g53
tp155
a(I0
g63
tp156
a(I0
g61
tp157
a(I0
g61
tp158
a(I0
g53
tp159
a(I0
g53
tp160
a(I0
g58
tp161
a(I0
g61
tp162
a(I0
g61
tp163
a(I0
g58
tp164
a(I0
g51
tp165
a(I0
g51
tp166
a(I0
g63
tp167
a(I0
g63
tp168
a(I0
g53
tp169
a(I0
g63
tp170
a(I0
g63
tp171
a(I0
g53
tp172
a(I0
g53
tp173
a(I0
g53
tp174
a(I0
g63
tp175
a(I0
g63
tp176
a(I0
g53
tp177
a(I0
g53
tp178
a(I0
g58
tp179
a(I0
g61
tp180
a(I0
g61
tp181
a(I0
g51
tp182
a(I0
g61
tp183
a(I0
g58
tp184
a(I0
g51
tp185
a(I0
g61
tp186
a(I0
g61
tp187
a(I0
g58
tp188
a(I0
g51
tp189
a(I0
g58
tp190
a(I0
g51
tp191
a(I0
g58
tp192
a(I0
g61
tp193
a(I0
g61
tp194
a(I0
g61
tp195
a(I0
g61
tp196
a(I0
g51
tp197
a(I0
g58
tp198
a(I0
g51
tp199
a(I0
g63
tp200
a(I0
g63
tp201
a(I0
g63
tp202
a(I0
g63
tp203
a(I0
g58
tp204
a(I0
g58
tp205
a(I0
g58
tp206
a(I0
g51
tp207
a(I0
g61
tp208
a(I0
g51
tp209
a(I0
g61
tp210
a(I0
g58
tp211
a(I0
g58
tp212
a(I0
g51
tp213
a(I0
g51
tp214
a(I0
g51
tp215
a(I0
g58
tp216
a(I0
g58
tp217
a(I0
g58
tp218
a(I0
g61
tp219
a(I0
g58
tp220
a(I0
g61
tp221
a(I0
g53
tp222
a(I0
g53
tp223
a(I0
g51
tp224
a(I0
g51
tp225
as.