(dp1
S'layout'
p2
(ilayout
Layout
p3
(dp4
S'capsules'
p5
(lp6
sS'numGhosts'
p7
I1
sS'food'
p8
(igame
Grid
p9
(dp10
S'CELLS_PER_INT'
p11
I30
sS'width'
p12
I7
sS'data'
p13
(lp14
(lp15
I00
aI00
aI00
aI00
aI00
aI00
aI00
aa(lp16
I00
aI01
aI00
aI00
aI00
aI00
aI00
aa(lp17
I00
aI00
aI00
aI00
aI00
aI00
aI00
aa(lp18
I00
aI00
aI00
aI01
aI00
aI00
aI00
aa(lp19
I00
aI00
aI00
aI00
aI00
aI00
aI00
aa(lp20
I00
aI00
aI00
aI00
aI00
aI00
aI00
aa(lp21
I00
aI00
aI00
aI00
aI00
aI00
aI00
aasS'height'
p22
I7
sbsS'agentPositions'
p23
(lp24
(I01
(I2
I5
tp25
tp26
a(I00
(I3
I1
tp27
tp28
asg22
I7
sg12
I7
sS'walls'
p29
(igame
Grid
p30
(dp31
g11
I30
sg12
I7
sg13
(lp32
(lp33
I01
aI01
aI01
aI01
aI01
aI01
aI01
aa(lp34
I01
aI00
aI00
aI00
aI00
aI00
aI01
aa(lp35
I01
aI00
aI01
aI01
aI01
aI00
aI01
aa(lp36
I01
aI00
aI01
aI00
aI01
aI00
aI01
aa(lp37
I01
aI00
aI01
aI00
aI01
aI00
aI01
aa(lp38
I01
aI00
aI00
aI00
aI00
aI00
aI01
aa(lp39
I01
aI01
aI01
aI01
aI01
aI01
aI01
aasg22
I7
sbsS'totalFood'
p40
I2
sS'layoutText'
p41
(lp42
S'%%%%%%%'
p43
aS'% P   %'
p44
aS'% %%% %'
p45
aS'% %.  %'
p46
aS'% %%% %'
p47
aS'%. G  %'
p48
aS'%%%%%%%'
p49
asbsS'actions'
p50
(lp51
(I0
S'West'
p52
tp53
a(I1
g52
tp54
a(I0
S'East'
p55
tp56
a(I1
g52
tp57
a(I0
g55
tp58
a(I1
S'North'
p59
tp60
a(I0
g55
tp61
a(I1
g59
tp62
a(I0
g55
tp63
a(I1
g59
tp64
a(I0
S'South'
p65
tp66
a(I1
g59
tp67
a(I0
g65
tp68
a(I1
g55
tp69
a(I0
g52
tp70
a(I1
g55
tp71
a(I0
S'Stop'
p72
tp73
a(I1
g55
tp74
a(I0
g55
tp75
a(I1
g55
tp76
a(I0
g72
tp77
a(I1
g65
tp78
a(I0
g65
tp79
a(I1
g65
tp80
a(I0
g65
tp81
a(I1
g52
tp82
a(I0
g59
tp83
a(I1
g52
tp84
a(I0
g65
tp85
a(I1
g55
tp86
a(I0
g59
tp87
a(I1
g55
tp88
a(I0
g65
tp89
a(I1
g59
tp90
a(I0
g59
tp91
a(I1
g59
tp92
a(I0
g59
tp93
a(I1
g52
tp94
a(I0
g52
tp95
a(I1
g52
tp96
a(I0
g55
tp97
a(I1
g52
tp98
a(I0
g52
tp99
a(I1
g52
tp100
a(I0
g52
tp101
a(I1
g65
tp102
a(I0
g55
tp103
a(I1
g65
tp104
a(I0
g52
tp105
a(I1
g65
tp106
a(I0
g55
tp107
a(I1
g65
tp108
a(I0
g52
tp109
a(I1
g55
tp110
a(I0
g55
tp111
a(I1
g55
tp112
a(I0
g52
tp113
a(I1
g55
tp114
a(I0
g55
tp115
a(I1
g55
tp116
a(I0
g52
tp117
a(I1
g59
tp118
a(I0
g72
tp119
a(I1
g59
tp120
a(I0
g55
tp121
a(I1
g59
tp122
a(I0
g52
tp123
a(I1
g59
tp124
a(I0
g55
tp125
a(I1
g52
tp126
a(I0
g52
tp127
a(I1
g52
tp128
a(I0
g72
tp129
a(I1
g52
tp130
a(I0
g72
tp131
a(I1
g52
tp132
a(I0
g55
tp133
a(I1
g65
tp134
a(I0
g52
tp135
a(I1
g65
tp136
a(I0
g55
tp137
a(I1
g65
tp138
a(I0
g55
tp139
a(I1
g65
tp140
a(I0
g52
tp141
a(I1
g55
tp142
a(I0
g52
tp143
a(I1
g55
tp144
a(I0
g55
tp145
a(I1
g55
tp146
a(I0
g52
tp147
a(I1
g55
tp148
a(I0
g55
tp149
a(I1
g59
tp150
a(I0
g52
tp151
a(I1
g59
tp152
a(I0
g55
tp153
a(I1
g59
tp154
a(I0
g52
tp155
a(I1
g59
tp156
a(I0
g72
tp157
a(I1
g52
tp158
a(I0
g72
tp159
a(I1
g52
tp160
a(I0
g72
tp161
a(I1
g52
tp162
a(I0
g72
tp163
a(I1
g52
tp164
a(I0
g72
tp165
a(I1
g65
tp166
a(I0
g72
tp167
a(I1
g65
tp168
a(I0
g72
tp169
a(I1
g65
tp170
a(I0
g72
tp171
a(I1
g65
tp172
a(I0
g72
tp173
a(I1
g55
tp174
a(I0
g72
tp175
a(I1
g55
tp176
a(I0
g72
tp177
a(I1
g55
tp178
a(I0
g72
tp179
a(I1
g55
tp180
a(I0
g72
tp181
a(I1
g59
tp182
a(I0
g72
tp183
a(I1
g59
tp184
a(I0
g72
tp185
a(I1
g59
tp186
a(I0
g72
tp187
a(I1
g59
tp188
a(I0
g72
tp189
a(I1
g52
tp190
a(I0
g55
tp191
a(I1
g52
tp192
a(I0
g52
tp193
a(I1
g52
tp194
a(I0
g72
tp195
a(I1
g52
tp196
a(I0
g72
tp197
a(I1
g65
tp198
a(I0
g72
tp199
a(I1
g65
tp200
a(I0
g72
tp201
a(I1
g65
tp202
a(I0
g72
tp203
a(I1
g65
tp204
a(I0
g72
tp205
a(I1
g55
tp206
a(I0
g72
tp207
a(I1
g55
tp208
a(I0
g72
tp209
a(I1
g55
tp210
a(I0
g72
tp211
a(I1
g55
tp212
a(I0
g72
tp213
a(I1
g59
tp214
a(I0
g72
tp215
a(I1
g59
tp216
a(I0
g72
tp217
a(I1
g59
tp218
a(I0
g72
tp219
a(I1
g59
tp220
a(I0
g72
tp221
a(I1
g52
tp222
a(I0
g55
tp223
a(I1
g52
tp224
a(I0
g52
tp225
a(I1
g52
tp226
a(I0
g72
tp227
a(I1
g52
tp228
a(I0
g72
tp229
a(I1
g65
tp230
a(I0
g72
tp231
a(I1
g65
tp232
a(I0
g72
tp233
a(I1
g65
tp234
a(I0
g72
tp235
a(I1
g65
tp236
a(I0
g72
tp237
a(I1
g55
tp238
a(I0
g72
tp239
a(I1
g55
tp240
a(I0
g72
tp241
a(I1
g55
tp242
a(I0
g72
tp243
a(I1
g55
tp244
a(I0
g72
tp245
a(I1
g59
tp246
a(I0
g72
tp247
a(I1
g59
tp248
a(I0
g72
tp249
a(I1
g52
tp250
a(I0
g72
tp251
a(I1
g52
tp252
as.