(dp1
S'layout'
p2
(ilayout
Layout
p3
(dp4
S'capsules'
p5
(lp6
sS'numGhosts'
p7
I1
sS'food'
p8
(igame
Grid
p9
(dp10
S'CELLS_PER_INT'
p11
I30
sS'width'
p12
I7
sS'data'
p13
(lp14
(lp15
I00
aI00
aI00
aI00
aI00
aI00
aa(lp16
I00
aI01
aI00
aI00
aI01
aI00
aa(lp17
I00
aI00
aI00
aI00
aI00
aI00
aa(lp18
I00
aI00
aI01
aI00
aI00
aI00
aa(lp19
I00
aI00
aI00
aI00
aI00
aI00
aa(lp20
I00
aI01
aI00
aI00
aI01
aI00
aa(lp21
I00
aI00
aI00
aI00
aI00
aI00
aasS'height'
p22
I6
sbsS'agentPositions'
p23
(lp24
(I01
(I3
I4
tp25
tp26
a(I00
(I3
I1
ttp27
asg22
I6
sg12
I7
sS'walls'
p28
(igame
Grid
p29
(dp30
g11
I30
sg12
I7
sg13
(lp31
(lp32
I01
aI01
aI01
aI01
aI01
aI01
aa(lp33
I01
aI00
aI00
aI00
aI00
aI01
aa(lp34
I01
aI00
aI01
aI01
aI00
aI01
aa(lp35
I01
aI00
aI00
aI01
aI00
aI01
aa(lp36
I01
aI00
aI01
aI01
aI00
aI01
aa(lp37
I01
aI00
aI00
aI00
aI00
aI01
aa(lp38
I01
aI01
aI01
aI01
aI01
aI01
aasg22
I6
sbsS'totalFood'
p39
I5
sS'layoutText'
p40
(lp41
S'%%%%%%%'
p42
aS'%. P .%'
p43
aS'% %%% %'
p44
aS'% %.% %'
p45
aS'%. G .%'
p46
aS'%%%%%%%'
p47
asbsS'actions'
p48
(lp49
(I0
S'East'
p50
tp51
a(I0
S'West'
p52
tp53
a(I0
g52
tp54
a(I0
g52
tp55
a(I0
g50
tp56
a(I0
g52
tp57
a(I0
g50
tp58
a(I0
g52
tp59
a(I0
g50
tp60
a(I0
g52
tp61
a(I0
g50
tp62
a(I0
g52
tp63
a(I0
g50
tp64
a(I0
g52
tp65
a(I0
g50
tp66
a(I0
g52
tp67
a(I0
S'Stop'
p68
tp69
a(I0
g68
tp70
a(I0
g50
tp71
a(I0
g52
tp72
a(I0
g50
tp73
a(I0
g52
tp74
a(I0
g50
tp75
a(I0
g52
tp76
a(I0
g68
tp77
a(I0
g68
tp78
a(I0
g68
tp79
a(I0
g68
tp80
a(I0
g68
tp81
a(I0
g68
tp82
a(I0
S'South'
p83
tp84
a(I0
g68
tp85
a(I0
g68
tp86
a(I0
g68
tp87
a(I0
g68
tp88
a(I0
g68
tp89
a(I0
g68
tp90
a(I0
g68
tp91
a(I0
g68
tp92
a(I0
g68
tp93
a(I0
g68
tp94
a(I0
S'North'
p95
tp96
a(I0
g68
tp97
a(I0
g68
tp98
a(I0
g68
tp99
a(I0
g68
tp100
a(I0
g68
tp101
a(I0
g68
tp102
a(I0
g68
tp103
a(I0
g68
tp104
a(I0
g68
tp105
a(I0
g68
tp106
a(I0
g68
tp107
a(I0
g68
tp108
a(I0
g68
tp109
a(I0
g68
tp110
a(I0
g68
tp111
a(I0
g68
tp112
a(I0
g50
tp113
a(I0
g52
tp114
a(I0
g68
tp115
a(I0
g68
tp116
a(I0
g68
tp117
a(I0
g68
tp118
a(I0
g68
tp119
a(I0
g68
tp120
a(I0
g68
tp121
a(I0
g68
tp122
a(I0
g68
tp123
a(I0
g68
tp124
a(I0
g68
tp125
a(I0
g68
tp126
a(I0
g68
tp127
a(I0
g68
tp128
a(I0
g68
tp129
a(I0
g68
tp130
a(I0
g68
tp131
a(I0
g68
tp132
a(I0
g68
tp133
a(I0
g68
tp134
a(I0
g68
tp135
a(I0
g68
tp136
a(I0
g68
tp137
a(I0
g50
tp138
a(I0
g68
tp139
a(I0
g52
tp140
a(I0
g68
tp141
a(I0
g68
tp142
a(I0
g68
tp143
a(I0
g68
tp144
a(I0
g68
tp145
a(I0
g68
tp146
a(I0
g68
tp147
a(I0
g68
tp148
a(I0
g68
tp149
a(I0
g68
tp150
a(I0
g68
tp151
a(I0
g68
tp152
a(I0
g68
tp153
a(I0
g68
tp154
a(I0
g68
tp155
a(I0
g68
tp156
a(I0
g68
tp157
a(I0
g68
tp158
a(I0
g83
tp159
a(I0
g68
tp160
a(I0
g68
tp161
a(I0
g68
tp162
a(I0
g68
tp163
a(I0
g68
tp164
a(I0
g68
tp165
a(I0
g68
tp166
a(I0
g68
tp167
a(I0
g68
tp168
a(I0
g68
tp169
a(I0
g68
tp170
a(I0
g68
tp171
a(I0
g68
tp172
a(I0
g68
tp173
a(I0
g68
tp174
a(I0
g68
tp175
a(I0
g83
tp176
a(I0
g68
tp177
a(I0
g68
tp178
a(I0
g68
tp179
a(I0
g68
tp180
a(I0
g68
tp181
a(I0
g68
tp182
a(I0
g68
tp183
a(I0
g83
tp184
a(I0
g68
tp185
a(I0
g68
tp186
a(I0
g68
tp187
a(I0
g95
tp188
a(I0
g68
tp189
a(I0
g68
tp190
a(I0
g68
tp191
a(I0
g68
tp192
a(I0
g68
tp193
a(I0
g68
tp194
a(I0
g68
tp195
a(I0
g68
tp196
a(I0
g68
tp197
a(I0
g68
tp198
a(I0
g68
tp199
a(I0
g68
tp200
a(I0
g68
tp201
a(I0
g68
tp202
a(I0
g68
tp203
a(I0
g68
tp204
a(I0
g68
tp205
a(I0
g68
tp206
a(I0
g68
tp207
a(I0
g68
tp208
a(I0
g68
tp209
a(I0
g68
tp210
a(I0
g68
tp211
a(I0
g68
tp212
a(I0
g68
tp213
a(I0
g68
tp214
a(I0
g68
tp215
a(I0
g68
tp216
a(I0
g68
tp217
a(I0
g68
tp218
a(I0
g68
tp219
a(I0
g68
tp220
a(I0
g68
tp221
a(I0
g68
tp222
a(I0
g68
tp223
a(I0
g68
tp224
a(I0
g68
tp225
a(I0
g68
tp226
a(I0
g68
tp227
a(I0
g68
tp228
a(I0
g68
tp229
a(I0
g68
tp230
a(I0
g68
tp231
a(I0
g68
tp232
a(I0
g68
tp233
a(I0
g95
tp234
a(I0
g68
tp235
a(I0
g68
tp236
a(I0
g68
tp237
a(I0
g68
tp238
a(I0
g68
tp239
a(I0
g68
tp240
as.