(dp1
S'layout'
p2
(ilayout
Layout
p3
(dp4
S'capsules'
p5
(lp6
sS'numGhosts'
p7
I1
sS'food'
p8
(igame
Grid
p9
(dp10
S'CELLS_PER_INT'
p11
I30
sS'width'
p12
I11
sS'data'
p13
(lp14
(lp15
I00
aI00
aI00
aI00
aI00
aI00
aa(lp16
I00
aI01
aI00
aI00
aI01
aI00
aa(lp17
I00
aI00
aI00
aI00
aI00
aI00
aa(lp18
I00
aI00
aI00
aI00
aI00
aI00
aa(lp19
I00
aI00
aI00
aI00
aI00
aI00
aa(lp20
I00
aI00
aI00
aI00
aI00
aI00
aa(lp21
I00
aI00
aI00
aI00
aI00
aI00
aa(lp22
I00
aI00
aI00
aI00
aI00
aI00
aa(lp23
I00
aI00
aI00
aI00
aI00
aI00
aa(lp24
I00
aI01
aI00
aI00
aI00
aI00
aa(lp25
I00
aI00
aI00
aI00
aI00
aI00
aasS'height'
p26
I6
sbsS'agentPositions'
p27
(lp28
(I01
(I9
I4
tp29
tp30
a(I00
(I5
I2
tp31
tp32
asg26
I6
sg12
I11
sS'walls'
p33
(igame
Grid
p34
(dp35
g11
I30
sg12
I11
sg13
(lp36
(lp37
I01
aI01
aI01
aI01
aI01
aI01
aa(lp38
I01
aI00
aI00
aI00
aI00
aI01
aa(lp39
I01
aI00
aI00
aI00
aI00
aI01
aa(lp40
I01
aI00
aI00
aI00
aI00
aI01
aa(lp41
I01
aI00
aI01
aI01
aI00
aI01
aa(lp42
I01
aI00
aI00
aI01
aI00
aI01
aa(lp43
I01
aI00
aI01
aI01
aI00
aI01
aa(lp44
I01
aI00
aI00
aI00
aI00
aI01
aa(lp45
I01
aI00
aI00
aI00
aI00
aI01
aa(lp46
I01
aI00
aI00
aI00
aI00
aI01
aa(lp47
I01
aI01
aI01
aI01
aI01
aI01
aasg26
I6
sbsS'totalFood'
p48
I3
sS'layoutText'
p49
(lp50
S'%%%%%%%%%%%'
p51
aS'%.       P%'
p52
aS'%   %%%   %'
p53
aS'%   %G%   %'
p54
aS'%.       .%'
p55
aS'%%%%%%%%%%%'
p56
asbsS'actions'
p57
(lp58
(I0
S'West'
p59
tp60
a(I1
S'South'
p61
tp62
a(I0
S'East'
p63
tp64
a(I1
g63
tp65
a(I0
S'Stop'
p66
tp67
a(I1
g63
tp68
a(I0
g59
tp69
a(I1
g63
tp70
a(I0
g66
tp71
a(I1
S'North'
p72
tp73
a(I0
g59
tp74
a(I1
g59
tp75
a(I0
g59
tp76
a(I1
g72
tp77
a(I0
g59
tp78
a(I1
g63
tp79
a(I0
g59
tp80
a(I1
g63
tp81
a(I0
g59
tp82
a(I1
g61
tp83
a(I0
g59
tp84
a(I1
g61
tp85
a(I0
g59
tp86
a(I1
g59
tp87
a(I0
g66
tp88
a(I1
g72
tp89
a(I0
g66
tp90
a(I1
g72
tp91
a(I0
g66
tp92
a(I1
g59
tp93
a(I0
g63
tp94
a(I1
g61
tp95
a(I0
g66
tp96
a(I1
g63
tp97
a(I0
g59
tp98
a(I1
g61
tp99
a(I0
g66
tp100
a(I1
g59
tp101
a(I0
g66
tp102
a(I1
g59
tp103
a(I0
g66
tp104
a(I1
g59
tp105
a(I0
g66
tp106
a(I1
g59
tp107
a(I0
g66
tp108
a(I1
g59
tp109
a(I0
g66
tp110
a(I1
g59
tp111
a(I0
g66
tp112
a(I1
g59
tp113
a(I0
g66
tp114
a(I1
g72
tp115
a(I0
g66
tp116
a(I1
g63
tp117
a(I0
g66
tp118
a(I1
g63
tp119
a(I0
g66
tp120
a(I1
g61
tp121
a(I0
g66
tp122
a(I1
g63
tp123
a(I0
g66
tp124
a(I1
g63
tp125
a(I0
g66
tp126
a(I1
g72
tp127
a(I0
g66
tp128
a(I1
g61
tp129
a(I0
g66
tp130
a(I1
g63
tp131
a(I0
g66
tp132
a(I1
g63
tp133
a(I0
g66
tp134
a(I1
g63
tp135
a(I0
g66
tp136
a(I1
g63
tp137
a(I0
g66
tp138
a(I1
g72
tp139
a(I0
g66
tp140
a(I1
g59
tp141
a(I0
g66
tp142
a(I1
g72
tp143
a(I0
g66
tp144
a(I1
g72
tp145
a(I0
g66
tp146
a(I1
g59
tp147
a(I0
g66
tp148
a(I1
g61
tp149
a(I0
g66
tp150
a(I1
g63
tp151
a(I0
g66
tp152
a(I1
g72
tp153
a(I0
g66
tp154
a(I1
g59
tp155
a(I0
g66
tp156
a(I1
g59
tp157
a(I0
g66
tp158
a(I1
g59
tp159
a(I0
g66
tp160
a(I1
g59
tp161
a(I0
g63
tp162
a(I1
g59
tp163
a(I0
g59
tp164
a(I1
g59
tp165
a(I0
g66
tp166
a(I1
g59
tp167
as.