(dp1
S'layout'
p2
(ilayout
Layout
p3
(dp4
S'capsules'
p5
(lp6
sS'numGhosts'
p7
I1
sS'food'
p8
(igame
Grid
p9
(dp10
S'CELLS_PER_INT'
p11
I30
sS'width'
p12
I7
sS'data'
p13
(lp14
(lp15
I00
aI00
aI00
aI00
aI00
aI00
aI00
aa(lp16
I00
aI01
aI00
aI00
aI00
aI00
aI00
aa(lp17
I00
aI00
aI00
aI00
aI00
aI00
aI00
aa(lp18
I00
aI00
aI00
aI01
aI00
aI00
aI00
aa(lp19
I00
aI00
aI00
aI00
aI00
aI00
aI00
aa(lp20
I00
aI00
aI00
aI00
aI00
aI00
aI00
aa(lp21
I00
aI00
aI00
aI00
aI00
aI00
aI00
aasS'height'
p22
I7
sbsS'agentPositions'
p23
(lp24
(I01
(I2
I5
tp25
tp26
a(I00
(I3
I1
ttp27
asg22
I7
sg12
I7
sS'walls'
p28
(igame
Grid
p29
(dp30
g11
I30
sg12
I7
sg13
(lp31
(lp32
I01
aI01
aI01
aI01
aI01
aI01
aI01
aa(lp33
I01
aI00
aI00
aI00
aI00
aI00
aI01
aa(lp34
I01
aI00
aI01
aI01
aI01
aI00
aI01
aa(lp35
I01
aI00
aI01
aI00
aI01
aI00
aI01
aa(lp36
I01
aI00
aI01
aI00
aI01
aI00
aI01
aa(lp37
I01
aI00
aI00
aI00
aI00
aI00
aI01
aa(lp38
I01
aI01
aI01
aI01
aI01
aI01
aI01
aasg22
I7
sbsS'totalFood'
p39
I2
sS'layoutText'
p40
(lp41
S'%%%%%%%'
p42
aS'% P   %'
p43
aS'% %%% %'
p44
aS'% %.  %'
p45
aS'% %%% %'
p46
aS'%. G  %'
p47
aS'%%%%%%%'
p48
asbsS'actions'
p49
(lp50
(I0
S'West'
p51
tp52
a(I0
S'East'
p53
tp54
a(I0
g53
tp55
a(I0
g51
tp56
a(I0
g51
tp57
a(I0
S'South'
p58
tp59
a(I0
S'Stop'
p60
tp61
a(I0
g58
tp62
a(I0
g58
tp63
a(I0
g58
tp64
a(I0
g53
tp65
a(I0
g60
tp66
a(I0
g60
tp67
a(I0
g51
tp68
a(I0
g53
tp69
a(I0
g60
tp70
a(I0
g60
tp71
a(I0
g53
tp72
a(I0
g60
tp73
a(I0
g51
tp74
a(I0
g60
tp75
a(I0
g60
tp76
a(I0
g60
tp77
a(I0
g60
tp78
a(I0
g51
tp79
a(I0
g53
tp80
a(I0
g60
tp81
a(I0
g60
tp82
a(I0
g60
tp83
a(I0
g60
tp84
a(I0
g60
tp85
a(I0
g60
tp86
a(I0
g51
tp87
a(I0
g53
tp88
a(I0
g53
tp89
a(I0
g60
tp90
a(I0
g53
tp91
a(I0
g51
tp92
a(I0
g51
tp93
a(I0
g60
tp94
a(I0
g60
tp95
a(I0
g60
tp96
a(I0
g60
tp97
a(I0
g60
tp98
a(I0
g60
tp99
a(I0
g60
tp100
a(I0
g60
tp101
a(I0
g60
tp102
a(I0
g60
tp103
a(I0
g60
tp104
a(I0
g60
tp105
a(I0
g60
tp106
a(I0
g53
tp107
a(I0
g53
tp108
a(I0
g51
tp109
a(I0
g51
tp110
a(I0
g60
tp111
a(I0
g60
tp112
a(I0
g51
tp113
a(I0
S'North'
p114
tp115
a(I0
g60
tp116
a(I0
g60
tp117
a(I0
g60
tp118
a(I0
g60
tp119
a(I0
g60
tp120
a(I0
g60
tp121
a(I0
g58
tp122
a(I0
g53
tp123
a(I0
g51
tp124
a(I0
g53
tp125
a(I0
g51
tp126
a(I0
g60
tp127
a(I0
g60
tp128
a(I0
g60
tp129
a(I0
g60
tp130
a(I0
g60
tp131
a(I0
g60
tp132
a(I0
g60
tp133
a(I0
g60
tp134
a(I0
g60
tp135
a(I0
g60
tp136
a(I0
g60
tp137
a(I0
g60
tp138
a(I0
g60
tp139
a(I0
g60
tp140
a(I0
g60
tp141
a(I0
g60
tp142
a(I0
g114
tp143
a(I0
g60
tp144
a(I0
g60
tp145
a(I0
g58
tp146
a(I0
g114
tp147
a(I0
g60
tp148
a(I0
g60
tp149
a(I0
g60
tp150
a(I0
g60
tp151
a(I0
g60
tp152
a(I0
g60
tp153
a(I0
g60
tp154
a(I0
g60
tp155
a(I0
g60
tp156
a(I0
g60
tp157
a(I0
g60
tp158
a(I0
g60
tp159
a(I0
g60
tp160
a(I0
g114
tp161
a(I0
g114
tp162
a(I0
g114
tp163
a(I0
g58
tp164
a(I0
g60
tp165
a(I0
g114
tp166
a(I0
g53
tp167
a(I0
g53
tp168
a(I0
g53
tp169
a(I0
g51
tp170
a(I0
g51
tp171
a(I0
g53
tp172
a(I0
g51
tp173
a(I0
g53
tp174
a(I0
g53
tp175
a(I0
g51
tp176
a(I0
g51
tp177
a(I0
g51
tp178
a(I0
g58
tp179
a(I0
g114
tp180
a(I0
g53
tp181
a(I0
g53
tp182
a(I0
g51
tp183
a(I0
g51
tp184
a(I0
g60
tp185
a(I0
g58
tp186
a(I0
g114
tp187
a(I0
g53
tp188
a(I0
g53
tp189
a(I0
g51
tp190
a(I0
g53
tp191
a(I0
g51
tp192
a(I0
g51
tp193
a(I0
g58
tp194
a(I0
g114
tp195
a(I0
g53
tp196
a(I0
g53
tp197
a(I0
g51
tp198
a(I0
g51
tp199
a(I0
g53
tp200
a(I0
g53
tp201
a(I0
g51
tp202
a(I0
g51
tp203
a(I0
g53
tp204
a(I0
g53
tp205
a(I0
g51
tp206
a(I0
g53
tp207
a(I0
g60
tp208
a(I0
g60
tp209
a(I0
g51
tp210
a(I0
g51
tp211
a(I0
g60
tp212
a(I0
g58
tp213
a(I0
g58
tp214
a(I0
g114
tp215
a(I0
g114
tp216
a(I0
g53
tp217
a(I0
g53
tp218
a(I0
g60
tp219
a(I0
g51
tp220
a(I0
g51
tp221
a(I0
g60
tp222
a(I0
g60
tp223
a(I0
g60
tp224
a(I0
g58
tp225
a(I0
g114
tp226
a(I0
g53
tp227
a(I0
g53
tp228
a(I0
g60
tp229
a(I0
g60
tp230
a(I0
g53
tp231
a(I0
g53
tp232
a(I0
g51
tp233
a(I0
g51
tp234
a(I0
g60
tp235
a(I0
g60
tp236
a(I0
g60
tp237
a(I0
g60
tp238
a(I0
g60
tp239
a(I0
g60
tp240
a(I0
g60
tp241
a(I0
g60
tp242
a(I0
g60
tp243
a(I0
g60
tp244
a(I0
g60
tp245
a(I0
g53
tp246
a(I0
g53
tp247
a(I0
g51
tp248
a(I0
g51
tp249
a(I0
g53
tp250
a(I0
g51
tp251
a(I0
g53
tp252
a(I0
g53
tp253
a(I0
g51
tp254
a(I0
g51
tp255
a(I0
g53
tp256
a(I0
g53
tp257
a(I0
g51
tp258
a(I0
g60
tp259
a(I0
g60
tp260
a(I0
g51
tp261
a(I0
g53
tp262
a(I0
g51
tp263
a(I0
g51
tp264
a(I0
g53
tp265
a(I0
g60
tp266
a(I0
g51
tp267
a(I0
g51
tp268
a(I0
g58
tp269
a(I0
g114
tp270
a(I0
g58
tp271
a(I0
g58
tp272
a(I0
g114
tp273
a(I0
g114
tp274
a(I0
g58
tp275
a(I0
g114
tp276
a(I0
g60
tp277
a(I0
g60
tp278
a(I0
g53
tp279
a(I0
g53
tp280
a(I0
g51
tp281
a(I0
g60
tp282
a(I0
g60
tp283
a(I0
g53
tp284
a(I0
g60
tp285
a(I0
g53
tp286
a(I0
g51
tp287
a(I0
g51
tp288
a(I0
g53
tp289
a(I0
g53
tp290
a(I0
g53
tp291
a(I0
g51
tp292
a(I0
g51
tp293
a(I0
g53
tp294
a(I0
g53
tp295
a(I0
g51
tp296
a(I0
g51
tp297
a(I0
g53
tp298
a(I0
g53
tp299
a(I0
g51
tp300
a(I0
g51
tp301
a(I0
g53
tp302
a(I0
g53
tp303
a(I0
g51
tp304
a(I0
g51
tp305
a(I0
g53
tp306
a(I0
g53
tp307
a(I0
g51
tp308
a(I0
g53
tp309
a(I0
g51
tp310
a(I0
g51
tp311
a(I0
g53
tp312
a(I0
g53
tp313
a(I0
g51
tp314
a(I0
g51
tp315
a(I0
g53
tp316
a(I0
g53
tp317
a(I0
g51
tp318
a(I0
g53
tp319
a(I0
g51
tp320
a(I0
g53
tp321
a(I0
g51
tp322
a(I0
g51
tp323
a(I0
g53
tp324
a(I0
g53
tp325
a(I0
g51
tp326
a(I0
g51
tp327
a(I0
g53
tp328
a(I0
g53
tp329
a(I0
g51
tp330
a(I0
g60
tp331
a(I0
g51
tp332
a(I0
g60
tp333
a(I0
g60
tp334
a(I0
g53
tp335
a(I0
g53
tp336
a(I0
g51
tp337
a(I0
g51
tp338
a(I0
g53
tp339
a(I0
g53
tp340
a(I0
g51
tp341
a(I0
g51
tp342
a(I0
g53
tp343
a(I0
g53
tp344
a(I0
g51
tp345
a(I0
g60
tp346
a(I0
g60
tp347
a(I0
g60
tp348
a(I0
g51
tp349
a(I0
g53
tp350
a(I0
g53
tp351
a(I0
g51
tp352
a(I0
g51
tp353
a(I0
g53
tp354
a(I0
g60
tp355
a(I0
g51
tp356
a(I0
g53
tp357
a(I0
g51
tp358
a(I0
g51
tp359
a(I0
g53
tp360
a(I0
g53
tp361
a(I0
g51
tp362
a(I0
g60
tp363
a(I0
g60
tp364
a(I0
g51
tp365
a(I0
g51
tp366
a(I0
g60
tp367
a(I0
g60
tp368
a(I0
g60
tp369
a(I0
g60
tp370
a(I0
g60
tp371
a(I0
g60
tp372
a(I0
g60
tp373
a(I0
g60
tp374
a(I0
g60
tp375
a(I0
g60
tp376
a(I0
g60
tp377
a(I0
g58
tp378
a(I0
g58
tp379
a(I0
g114
tp380
a(I0
g114
tp381
a(I0
g58
tp382
a(I0
g58
tp383
a(I0
g114
tp384
a(I0
g114
tp385
a(I0
g58
tp386
a(I0
g58
tp387
a(I0
g58
tp388
a(I0
g114
tp389
a(I0
g114
tp390
a(I0
g114
tp391
a(I0
g58
tp392
a(I0
g60
tp393
a(I0
g60
tp394
a(I0
g60
tp395
a(I0
g60
tp396
a(I0
g60
tp397
a(I0
g60
tp398
a(I0
g60
tp399
a(I0
g60
tp400
a(I0
g60
tp401
a(I0
g58
tp402
a(I0
g114
tp403
a(I0
g58
tp404
a(I0
g58
tp405
a(I0
g114
tp406
a(I0
g114
tp407
a(I0
g58
tp408
a(I0
g58
tp409
a(I0
g114
tp410
a(I0
g114
tp411
a(I0
g58
tp412
a(I0
g58
tp413
a(I0
g114
tp414
a(I0
g60
tp415
a(I0
g60
tp416
a(I0
g114
tp417
a(I0
g58
tp418
a(I0
g114
tp419
a(I0
g58
tp420
a(I0
g58
tp421
a(I0
g114
tp422
a(I0
g114
tp423
a(I0
g114
tp424
a(I0
g58
tp425
a(I0
g58
tp426
a(I0
g114
tp427
a(I0
g114
tp428
a(I0
g58
tp429
a(I0
g58
tp430
a(I0
g114
tp431
a(I0
g60
tp432
a(I0
g60
tp433
a(I0
g58
tp434
a(I0
g58
tp435
a(I0
g114
tp436
a(I0
g60
tp437
a(I0
g60
tp438
a(I0
g60
tp439
a(I0
g60
tp440
a(I0
g60
tp441
a(I0
g60
tp442
a(I0
g60
tp443
a(I0
g60
tp444
a(I0
g58
tp445
a(I0
g60
tp446
a(I0
g60
tp447
a(I0
g60
tp448
a(I0
g60
tp449
a(I0
g58
tp450
a(I0
g60
tp451
a(I0
g53
tp452
a(I0
g53
tp453
a(I0
g53
tp454
a(I0
g51
tp455
a(I0
g51
tp456
a(I0
g53
tp457
a(I0
g53
tp458
a(I0
g51
tp459
a(I0
g51
tp460
a(I0
g53
tp461
a(I0
g60
tp462
a(I0
g53
tp463
a(I0
g51
tp464
a(I0
g51
tp465
a(I0
g53
tp466
a(I0
g53
tp467
a(I0
g53
tp468
a(I0
g51
tp469
a(I0
g51
tp470
a(I0
g60
tp471
a(I0
g51
tp472
a(I0
g53
tp473
a(I0
g53
tp474
a(I0
g51
tp475
a(I0
g51
tp476
a(I0
g53
tp477
a(I0
g53
tp478
a(I0
g51
tp479
a(I0
g51
tp480
a(I0
g53
tp481
a(I0
g53
tp482
a(I0
g51
tp483
a(I0
g51
tp484
a(I0
g53
tp485
a(I0
g53
tp486
a(I0
g60
tp487
a(I0
g60
tp488
a(I0
g51
tp489
a(I0
g51
tp490
a(I0
g53
tp491
a(I0
g53
tp492
a(I0
g51
tp493
a(I0
g51
tp494
a(I0
g53
tp495
a(I0
g53
tp496
a(I0
g51
tp497
a(I0
g51
tp498
a(I0
g53
tp499
a(I0
g53
tp500
a(I0
g51
tp501
a(I0
g51
tp502
a(I0
g53
tp503
a(I0
g53
tp504
a(I0
g51
tp505
a(I0
g51
tp506
a(I0
g51
tp507
a(I0
g114
tp508
a(I0
g60
tp509
a(I0
g60
tp510
a(I0
g60
tp511
a(I0
g58
tp512
a(I0
g114
tp513
a(I0
g58
tp514
a(I0
g114
tp515
a(I0
g58
tp516
a(I0
g114
tp517
a(I0
g58
tp518
a(I0
g114
tp519
a(I0
g58
tp520
a(I0
g114
tp521
a(I0
g58
tp522
a(I0
g114
tp523
a(I0
g58
tp524
a(I0
g114
tp525
a(I0
g60
tp526
a(I0
g60
tp527
a(I0
g60
tp528
a(I0
g60
tp529
a(I0
g60
tp530
a(I0
g60
tp531
a(I0
g60
tp532
a(I0
g60
tp533
a(I0
g60
tp534
a(I0
g58
tp535
a(I0
g114
tp536
a(I0
g58
tp537
a(I0
g53
tp538
a(I0
g53
tp539
a(I0
g60
tp540
a(I0
g53
tp541
a(I0
g51
tp542
a(I0
g51
tp543
a(I0
g53
tp544
a(I0
g53
tp545
a(I0
g51
tp546
a(I0
g51
tp547
a(I0
g53
tp548
a(I0
g53
tp549
a(I0
g51
tp550
a(I0
g51
tp551
a(I0
g53
tp552
a(I0
g53
tp553
a(I0
g51
tp554
a(I0
g51
tp555
a(I0
g53
tp556
a(I0
g53
tp557
a(I0
g51
tp558
a(I0
g51
tp559
a(I0
g53
tp560
a(I0
g53
tp561
a(I0
g51
tp562
a(I0
g51
tp563
a(I0
g53
tp564
a(I0
g53
tp565
a(I0
g51
tp566
a(I0
g51
tp567
a(I0
g53
tp568
a(I0
g53
tp569
a(I0
g51
tp570
a(I0
g60
tp571
a(I0
g60
tp572
a(I0
g51
tp573
a(I0
g53
tp574
a(I0
g53
tp575
a(I0
g51
tp576
a(I0
g51
tp577
a(I0
g53
tp578
a(I0
g53
tp579
a(I0
g51
tp580
a(I0
g51
tp581
a(I0
g53
tp582
a(I0
g51
tp583
a(I0
g53
tp584
a(I0
g53
tp585
a(I0
g51
tp586
a(I0
g51
tp587
a(I0
g53
tp588
a(I0
g53
tp589
a(I0
g51
tp590
a(I0
g60
tp591
a(I0
g51
tp592
a(I0
g60
tp593
a(I0
g60
tp594
a(I0
g53
tp595
a(I0
g53
tp596
a(I0
g51
tp597
a(I0
g60
tp598
a(I0
g60
tp599
a(I0
g51
tp600
a(I0
g53
tp601
a(I0
g53
tp602
a(I0
g51
tp603
a(I0
g51
tp604
a(I0
g53
tp605
a(I0
g53
tp606
a(I0
g51
tp607
a(I0
g51
tp608
a(I0
g53
tp609
a(I0
g51
tp610
a(I0
g51
tp611
a(I0
g53
tp612
a(I0
g51
tp613
a(I0
g60
tp614
a(I0
g114
tp615
a(I0
g114
tp616
a(I0
g58
tp617
a(I0
g114
tp618
a(I0
g114
tp619
a(I0
g58
tp620
a(I0
g58
tp621
a(I0
g114
tp622
a(I0
g114
tp623
a(I0
g58
tp624
a(I0
g58
tp625
a(I0
g114
tp626
a(I0
g60
tp627
a(I0
g60
tp628
a(I0
g114
tp629
a(I0
g114
tp630
a(I0
g58
tp631
a(I0
g60
tp632
a(I0
g60
tp633
a(I0
g60
tp634
a(I0
g58
tp635
a(I0
g114
tp636
a(I0
g114
tp637
a(I0
g58
tp638
a(I0
g114
tp639
a(I0
g58
tp640
a(I0
g114
tp641
a(I0
g60
tp642
a(I0
g60
tp643
a(I0
g60
tp644
a(I0
g60
tp645
a(I0
g60
tp646
a(I0
g60
tp647
a(I0
g60
tp648
a(I0
g60
tp649
a(I0
g60
tp650
a(I0
g60
tp651
a(I0
g58
tp652
a(I0
g60
tp653
a(I0
g58
tp654
a(I0
g114
tp655
a(I0
g58
tp656
a(I0
g58
tp657
a(I0
g114
tp658
a(I0
g114
tp659
a(I0
g58
tp660
a(I0
g58
tp661
a(I0
g58
tp662
a(I0
g60
tp663
a(I0
g60
tp664
a(I0
g114
tp665
a(I0
g114
tp666
a(I0
g114
tp667
a(I0
g58
tp668
a(I0
g58
tp669
a(I0
g58
tp670
a(I0
g53
tp671
a(I0
g53
tp672
a(I0
g51
tp673
a(I0
g51
tp674
a(I0
g114
tp675
a(I0
g114
tp676
a(I0
g58
tp677
a(I0
g60
tp678
a(I0
g60
tp679
a(I0
g114
tp680
a(I0
g114
tp681
a(I0
g58
tp682
a(I0
g58
tp683
a(I0
g114
tp684
a(I0
g114
tp685
a(I0
g58
tp686
a(I0
g58
tp687
a(I0
g114
tp688
a(I0
g114
tp689
a(I0
g58
tp690
a(I0
g60
tp691
a(I0
g58
tp692
a(I0
g58
tp693
a(I0
g114
tp694
a(I0
g60
tp695
a(I0
g60
tp696
a(I0
g60
tp697
a(I0
g60
tp698
a(I0
g60
tp699
a(I0
g60
tp700
a(I0
g60
tp701
a(I0
g60
tp702
a(I0
g60
tp703
a(I0
g60
tp704
a(I0
g60
tp705
a(I0
g58
tp706
a(I0
g114
tp707
a(I0
g60
tp708
a(I0
g114
tp709
a(I0
g114
tp710
a(I0
g58
tp711
a(I0
g58
tp712
a(I0
g114
tp713
a(I0
g58
tp714
a(I0
g114
tp715
a(I0
g58
tp716
a(I0
g58
tp717
a(I0
g53
tp718
a(I0
g53
tp719
a(I0
g51
tp720
a(I0
g51
tp721
a(I0
g114
tp722
a(I0
g114
tp723
a(I0
g114
tp724
a(I0
g114
tp725
a(I0
g60
tp726
a(I0
g60
tp727
a(I0
g53
tp728
a(I0
g60
tp729
a(I0
g51
tp730
a(I0
g60
tp731
a(I0
g58
tp732
a(I0
g60
tp733
a(I0
g60
tp734
a(I0
g58
tp735
a(I0
g114
tp736
a(I0
g58
tp737
a(I0
g58
tp738
a(I0
g114
tp739
a(I0
g114
tp740
a(I0
g58
tp741
a(I0
g58
tp742
a(I0
g60
tp743
a(I0
g60
tp744
a(I0
g114
tp745
a(I0
g58
tp746
a(I0
g58
tp747
a(I0
g53
tp748
a(I0
g53
tp749
a(I0
g51
tp750
a(I0
g51
tp751
a(I0
g114
tp752
a(I0
g114
tp753
a(I0
g58
tp754
a(I0
g114
tp755
a(I0
g114
tp756
a(I0
g58
tp757
a(I0
g58
tp758
a(I0
g114
tp759
a(I0
g114
tp760
a(I0
g60
tp761
a(I0
g114
tp762
a(I0
g60
tp763
a(I0
g60
tp764
a(I0
g53
tp765
a(I0
g53
tp766
a(I0
g51
tp767
a(I0
g51
tp768
a(I0
g60
tp769
a(I0
g60
tp770
a(I0
g60
tp771
a(I0
g60
tp772
a(I0
g60
tp773
a(I0
g60
tp774
a(I0
g58
tp775
a(I0
g60
tp776
a(I0
g58
tp777
a(I0
g58
tp778
a(I0
g60
tp779
a(I0
g60
tp780
a(I0
g58
tp781
a(I0
g53
tp782
a(I0
g53
tp783
a(I0
g51
tp784
a(I0
g60
tp785
a(I0
g53
tp786
a(I0
g51
tp787
a(I0
g53
tp788
a(I0
g53
tp789
a(I0
g51
tp790
a(I0
g51
tp791
a(I0
g53
tp792
a(I0
g51
tp793
a(I0
g53
tp794
a(I0
g53
tp795
a(I0
g51
tp796
a(I0
g51
tp797
a(I0
g53
tp798
a(I0
g60
tp799
a(I0
g53
tp800
a(I0
g51
tp801
a(I0
g51
tp802
a(I0
g53
tp803
a(I0
g53
tp804
a(I0
g51
tp805
a(I0
g60
tp806
a(I0
g51
tp807
a(I0
g53
tp808
a(I0
g53
tp809
a(I0
g51
tp810
a(I0
g51
tp811
a(I0
g53
tp812
a(I0
g53
tp813
a(I0
g51
tp814
a(I0
g51
tp815
a(I0
g53
tp816
a(I0
g53
tp817
a(I0
g51
tp818
a(I0
g51
tp819
a(I0
g53
tp820
a(I0
g60
tp821
a(I0
g53
tp822
a(I0
g51
tp823
a(I0
g51
tp824
a(I0
g60
tp825
a(I0
g53
tp826
a(I0
g60
tp827
a(I0
g51
tp828
a(I0
g51
tp829
a(I0
g114
tp830
a(I0
g114
tp831
a(I0
g58
tp832
a(I0
g114
tp833
a(I0
g114
tp834
a(I0
g114
tp835
a(I0
g60
tp836
a(I0
g60
tp837
a(I0
g60
tp838
a(I0
g60
tp839
a(I0
g58
tp840
a(I0
g58
tp841
a(I0
g58
tp842
a(I0
g114
tp843
a(I0
g114
tp844
a(I0
g58
tp845
a(I0
g58
tp846
a(I0
g58
tp847
a(I0
g60
tp848
a(I0
g60
tp849
a(I0
g60
tp850
a(I0
g60
tp851
a(I0
g60
tp852
a(I0
g60
tp853
a(I0
g60
tp854
a(I0
g60
tp855
a(I0
g60
tp856
a(I0
g60
tp857
a(I0
g60
tp858
a(I0
g60
tp859
a(I0
g60
tp860
a(I0
g60
tp861
a(I0
g60
tp862
a(I0
g53
tp863
a(I0
g60
tp864
a(I0
g60
tp865
a(I0
g60
tp866
a(I0
g53
tp867
a(I0
g51
tp868
a(I0
g51
tp869
a(I0
g114
tp870
a(I0
g114
tp871
a(I0
g58
tp872
a(I0
g60
tp873
a(I0
g60
tp874
a(I0
g60
tp875
a(I0
g114
tp876
a(I0
g114
tp877
a(I0
g114
tp878
a(I0
g58
tp879
a(I0
g58
tp880
a(I0
g114
tp881
a(I0
g114
tp882
a(I0
g58
tp883
a(I0
g58
tp884
a(I0
g114
tp885
a(I0
g58
tp886
a(I0
g114
tp887
a(I0
g114
tp888
a(I0
g58
tp889
a(I0
g58
tp890
a(I0
g114
tp891
a(I0
g58
tp892
a(I0
g58
tp893
a(I0
g114
tp894
a(I0
g114
tp895
a(I0
g58
tp896
a(I0
g58
tp897
a(I0
g114
tp898
a(I0
g114
tp899
a(I0
g58
tp900
a(I0
g58
tp901
a(I0
g114
tp902
a(I0
g114
tp903
a(I0
g58
tp904
a(I0
g58
tp905
a(I0
g114
tp906
a(I0
g114
tp907
a(I0
g58
tp908
a(I0
g60
tp909
a(I0
g58
tp910
a(I0
g58
tp911
a(I0
g53
tp912
a(I0
g60
tp913
a(I0
g60
tp914
a(I0
g53
tp915
a(I0
g51
tp916
a(I0
g53
tp917
a(I0
g53
tp918
a(I0
g51
tp919
a(I0
g51
tp920
a(I0
g53
tp921
a(I0
g53
tp922
a(I0
g51
tp923
a(I0
g51
tp924
a(I0
g60
tp925
a(I0
g60
tp926
a(I0
g53
tp927
a(I0
g53
tp928
a(I0
g51
tp929
a(I0
g51
tp930
a(I0
g53
tp931
a(I0
g53
tp932
a(I0
g51
tp933
a(I0
g53
tp934
a(I0
g51
tp935
a(I0
g60
tp936
a(I0
g51
tp937
a(I0
g53
tp938
a(I0
g53
tp939
a(I0
g51
tp940
a(I0
g51
tp941
a(I0
g51
tp942
a(I0
g114
tp943
a(I0
g58
tp944
a(I0
g114
tp945
a(I0
g58
tp946
a(I0
g114
tp947
a(I0
g60
tp948
a(I0
g58
tp949
a(I0
g114
tp950
a(I0
g58
tp951
a(I0
g114
tp952
a(I0
g58
tp953
a(I0
g114
tp954
a(I0
g58
tp955
a(I0
g114
tp956
a(I0
g58
tp957
a(I0
g114
tp958
a(I0
g114
tp959
a(I0
g58
tp960
a(I0
g60
tp961
a(I0
g60
tp962
a(I0
g60
tp963
a(I0
g58
tp964
a(I0
g114
tp965
a(I0
g58
tp966
a(I0
g114
tp967
a(I0
g58
tp968
a(I0
g53
tp969
a(I0
g51
tp970
a(I0
g53
tp971
a(I0
g60
tp972
a(I0
g51
tp973
a(I0
g53
tp974
a(I0
g51
tp975
a(I0
g53
tp976
a(I0
g51
tp977
a(I0
g53
tp978
a(I0
g51
tp979
a(I0
g53
tp980
a(I0
g53
tp981
a(I0
g53
tp982
a(I0
g51
tp983
a(I0
g51
tp984
a(I0
g60
tp985
a(I0
g53
tp986
a(I0
g60
tp987
a(I0
g60
tp988
a(I0
g51
tp989
a(I0
g51
tp990
a(I0
g53
tp991
a(I0
g51
tp992
a(I0
g53
tp993
a(I0
g51
tp994
a(I0
g53
tp995
a(I0
g53
tp996
a(I0
g51
tp997
a(I0
g51
tp998
a(I0
g60
tp999
a(I0
g60
tp1000
a(I0
g60
tp1001
a(I0
g114
tp1002
a(I0
g58
tp1003
a(I0
g114
tp1004
a(I0
g58
tp1005
a(I0
g114
tp1006
a(I0
g58
tp1007
a(I0
g114
tp1008
a(I0
g58
tp1009
a(I0
g114
tp1010
a(I0
g58
tp1011
a(I0
g114
tp1012
a(I0
g58
tp1013
a(I0
g114
tp1014
a(I0
g114
tp1015
a(I0
g114
tp1016
a(I0
g114
tp1017
a(I0
g53
tp1018
a(I0
g53
tp1019
a(I0
g51
tp1020
a(I0
g53
tp1021
a(I0
g53
tp1022
a(I0
g51
tp1023
a(I0
g60
tp1024
a(I0
g53
tp1025
a(I0
g53
tp1026
a(I0
g51
tp1027
a(I0
g51
tp1028
a(I0
g53
tp1029
a(I0
g53
tp1030
a(I0
g51
tp1031
a(I0
g51
tp1032
a(I0
g53
tp1033
a(I0
g53
tp1034
a(I0
g51
tp1035
a(I0
g60
tp1036
a(I0
g51
tp1037
a(I0
g53
tp1038
a(I0
g60
tp1039
a(I0
g60
tp1040
a(I0
g51
tp1041
a(I0
g53
tp1042
a(I0
g60
tp1043
a(I0
g60
tp1044
a(I0
g60
tp1045
a(I0
g60
tp1046
a(I0
g53
tp1047
a(I0
g51
tp1048
a(I0
g51
tp1049
a(I0
g53
tp1050
a(I0
g60
tp1051
a(I0
g60
tp1052
a(I0
g60
tp1053
a(I0
g60
tp1054
a(I0
g60
tp1055
a(I0
g60
tp1056
a(I0
g60
tp1057
a(I0
g60
tp1058
a(I0
g60
tp1059
a(I0
g60
tp1060
a(I0
g60
tp1061
a(I0
g60
tp1062
a(I0
g51
tp1063
a(I0
g60
tp1064
a(I0
g60
tp1065
a(I0
g60
tp1066
a(I0
g60
tp1067
a(I0
g60
tp1068
a(I0
g60
tp1069
a(I0
g60
tp1070
a(I0
g60
tp1071
a(I0
g60
tp1072
a(I0
g60
tp1073
a(I0
g60
tp1074
a(I0
g60
tp1075
a(I0
g60
tp1076
a(I0
g60
tp1077
a(I0
g51
tp1078
a(I0
g53
tp1079
a(I0
g51
tp1080
a(I0
g51
tp1081
a(I0
g58
tp1082
a(I0
g60
tp1083
a(I0
g60
tp1084
a(I0
g114
tp1085
a(I0
g53
tp1086
a(I0
g60
tp1087
a(I0
g51
tp1088
a(I0
g53
tp1089
a(I0
g53
tp1090
a(I0
g51
tp1091
a(I0
g51
tp1092
a(I0
g58
tp1093
a(I0
g114
tp1094
a(I0
g53
tp1095
a(I0
g53
tp1096
a(I0
g51
tp1097
a(I0
g53
tp1098
a(I0
g53
tp1099
a(I0
g51
tp1100
a(I0
g60
tp1101
a(I0
g60
tp1102
a(I0
g60
tp1103
a(I0
g51
tp1104
a(I0
g60
tp1105
a(I0
g51
tp1106
a(I0
g53
tp1107
a(I0
g60
tp1108
a(I0
g60
tp1109
a(I0
g53
tp1110
a(I0
g51
tp1111
a(I0
g53
tp1112
a(I0
g53
tp1113
a(I0
g60
tp1114
a(I0
g60
tp1115
a(I0
g51
tp1116
a(I0
g60
tp1117
a(I0
g60
tp1118
a(I0
g60
tp1119
a(I0
g60
tp1120
a(I0
g60
tp1121
a(I0
g51
tp1122
a(I0
g53
tp1123
a(I0
g51
tp1124
a(I0
g51
tp1125
a(I0
g58
tp1126
a(I0
g114
tp1127
a(I0
g53
tp1128
a(I0
g53
tp1129
a(I0
g51
tp1130
a(I0
g51
tp1131
a(I0
g58
tp1132
a(I0
g114
tp1133
a(I0
g53
tp1134
a(I0
g53
tp1135
a(I0
g51
tp1136
a(I0
g51
tp1137
a(I0
g58
tp1138
a(I0
g114
tp1139
a(I0
g53
tp1140
a(I0
g53
tp1141
a(I0
g51
tp1142
a(I0
g53
tp1143
a(I0
g53
tp1144
a(I0
g51
tp1145
a(I0
g60
tp1146
a(I0
g60
tp1147
a(I0
g60
tp1148
a(I0
g51
tp1149
a(I0
g51
tp1150
a(I0
g58
tp1151
a(I0
g58
tp1152
a(I0
g60
tp1153
a(I0
g60
tp1154
a(I0
g114
tp1155
a(I0
g58
tp1156
a(I0
g58
tp1157
a(I0
g114
tp1158
a(I0
g114
tp1159
a(I0
g58
tp1160
a(I0
g58
tp1161
a(I0
g114
tp1162
a(I0
g58
tp1163
a(I0
g58
tp1164
a(I0
g53
tp1165
a(I0
g53
tp1166
a(I0
g51
tp1167
a(I0
g51
tp1168
a(I0
g114
tp1169
a(I0
g114
tp1170
a(I0
g114
tp1171
a(I0
g58
tp1172
a(I0
g58
tp1173
a(I0
g114
tp1174
a(I0
g114
tp1175
a(I0
g58
tp1176
a(I0
g58
tp1177
a(I0
g114
tp1178
a(I0
g58
tp1179
a(I0
g58
tp1180
a(I0
g53
tp1181
a(I0
g60
tp1182
a(I0
g60
tp1183
a(I0
g60
tp1184
a(I0
g60
tp1185
a(I0
g51
tp1186
a(I0
g60
tp1187
a(I0
g53
tp1188
a(I0
g60
tp1189
a(I0
g60
tp1190
a(I0
g53
tp1191
a(I0
g51
tp1192
a(I0
g51
tp1193
a(I0
g114
tp1194
a(I0
g114
tp1195
a(I0
g58
tp1196
a(I0
g58
tp1197
a(I0
g53
tp1198
a(I0
g60
tp1199
a(I0
g60
tp1200
a(I0
g60
tp1201
a(I0
g60
tp1202
a(I0
g53
tp1203
a(I0
g51
tp1204
a(I0
g51
tp1205
a(I0
g114
tp1206
a(I0
g58
tp1207
a(I0
g60
tp1208
a(I0
g53
tp1209
a(I0
g60
tp1210
a(I0
g60
tp1211
a(I0
g60
tp1212
a(I0
g53
tp1213
a(I0
g51
tp1214
a(I0
g51
tp1215
a(I0
g114
tp1216
a(I0
g60
tp1217
a(I0
g60
tp1218
a(I0
g60
tp1219
a(I0
g60
tp1220
a(I0
g60
tp1221
a(I0
g60
tp1222
a(I0
g60
tp1223
a(I0
g60
tp1224
a(I0
g60
tp1225
a(I0
g60
tp1226
a(I0
g60
tp1227
a(I0
g60
tp1228
a(I0
g60
tp1229
a(I0
g60
tp1230
a(I0
g60
tp1231
a(I0
g60
tp1232
a(I0
g60
tp1233
a(I0
g60
tp1234
a(I0
g60
tp1235
a(I0
g60
tp1236
a(I0
g60
tp1237
a(I0
g60
tp1238
a(I0
g60
tp1239
a(I0
g60
tp1240
a(I0
g60
tp1241
a(I0
g60
tp1242
a(I0
g60
tp1243
a(I0
g60
tp1244
a(I0
g60
tp1245
a(I0
g60
tp1246
a(I0
g60
tp1247
a(I0
g60
tp1248
a(I0
g60
tp1249
a(I0
g60
tp1250
a(I0
g60
tp1251
a(I0
g60
tp1252
a(I0
g60
tp1253
a(I0
g60
tp1254
a(I0
g60
tp1255
a(I0
g60
tp1256
a(I0
g60
tp1257
a(I0
g60
tp1258
a(I0
g60
tp1259
a(I0
g60
tp1260
a(I0
g60
tp1261
a(I0
g60
tp1262
a(I0
g60
tp1263
a(I0
g60
tp1264
as.