(dp1
S'layout'
p2
(ilayout
Layout
p3
(dp4
S'capsules'
p5
(lp6
sS'numGhosts'
p7
I1
sS'food'
p8
(igame
Grid
p9
(dp10
S'CELLS_PER_INT'
p11
I30
sS'width'
p12
I7
sS'data'
p13
(lp14
(lp15
I00
aI00
aI00
aI00
aI00
aI00
aa(lp16
I00
aI01
aI00
aI00
aI01
aI00
aa(lp17
I00
aI00
aI00
aI00
aI00
aI00
aa(lp18
I00
aI00
aI01
aI00
aI00
aI00
aa(lp19
I00
aI00
aI00
aI00
aI00
aI00
aa(lp20
I00
aI01
aI00
aI00
aI01
aI00
aa(lp21
I00
aI00
aI00
aI00
aI00
aI00
aasS'height'
p22
I6
sbsS'agentPositions'
p23
(lp24
(I01
(I3
I4
tp25
tp26
a(I00
(I3
I1
ttp27
asg22
I6
sg12
I7
sS'walls'
p28
(igame
Grid
p29
(dp30
g11
I30
sg12
I7
sg13
(lp31
(lp32
I01
aI01
aI01
aI01
aI01
aI01
aa(lp33
I01
aI00
aI00
aI00
aI00
aI01
aa(lp34
I01
aI00
aI01
aI01
aI00
aI01
aa(lp35
I01
aI00
aI00
aI01
aI00
aI01
aa(lp36
I01
aI00
aI01
aI01
aI00
aI01
aa(lp37
I01
aI00
aI00
aI00
aI00
aI01
aa(lp38
I01
aI01
aI01
aI01
aI01
aI01
aasg22
I6
sbsS'totalFood'
p39
I5
sS'layoutText'
p40
(lp41
S'%%%%%%%'
p42
aS'%. P .%'
p43
aS'% %%% %'
p44
aS'% %.% %'
p45
aS'%. G .%'
p46
aS'%%%%%%%'
p47
asbsS'actions'
p48
(lp49
(I0
S'West'
p50
tp51
a(I0
S'Stop'
p52
tp53
a(I0
g50
tp54
a(I0
g52
tp55
a(I0
g52
tp56
a(I0
g52
tp57
a(I0
g52
tp58
a(I0
g52
tp59
a(I0
g52
tp60
a(I0
g52
tp61
a(I0
g52
tp62
a(I0
g52
tp63
a(I0
g52
tp64
a(I0
g52
tp65
a(I0
g52
tp66
a(I0
g52
tp67
a(I0
g52
tp68
a(I0
g52
tp69
a(I0
g52
tp70
a(I0
S'South'
p71
tp72
a(I0
g71
tp73
a(I0
g52
tp74
a(I0
g52
tp75
a(I0
g52
tp76
a(I0
g52
tp77
a(I0
g52
tp78
a(I0
g52
tp79
a(I0
g52
tp80
a(I0
g52
tp81
a(I0
g52
tp82
a(I0
g52
tp83
a(I0
g52
tp84
a(I0
g52
tp85
a(I0
g52
tp86
a(I0
g52
tp87
a(I0
g52
tp88
a(I0
g71
tp89
a(I0
g52
tp90
a(I0
g52
tp91
a(I0
g52
tp92
a(I0
g52
tp93
a(I0
g52
tp94
a(I0
g52
tp95
a(I0
g52
tp96
a(I0
g52
tp97
a(I0
g52
tp98
a(I0
g52
tp99
a(I0
g52
tp100
a(I0
g52
tp101
a(I0
g52
tp102
a(I0
g52
tp103
a(I0
g52
tp104
a(I0
g52
tp105
a(I0
S'East'
p106
tp107
a(I0
g106
tp108
a(I0
g106
tp109
a(I0
g106
tp110
a(I0
g50
tp111
a(I0
g50
tp112
a(I0
g50
tp113
a(I0
g50
tp114
a(I0
g52
tp115
a(I0
g52
tp116
a(I0
g52
tp117
a(I0
g52
tp118
a(I0
g52
tp119
a(I0
g52
tp120
a(I0
g106
tp121
a(I0
g106
tp122
a(I0
g106
tp123
a(I0
g106
tp124
a(I0
g50
tp125
a(I0
g50
tp126
a(I0
g50
tp127
a(I0
g50
tp128
a(I0
g52
tp129
a(I0
g52
tp130
a(I0
g106
tp131
a(I0
g106
tp132
a(I0
g106
tp133
a(I0
g106
tp134
a(I0
g50
tp135
a(I0
g50
tp136
a(I0
g50
tp137
a(I0
g106
tp138
a(I0
g106
tp139
a(I0
g106
tp140
a(I0
g52
tp141
a(I0
g52
tp142
a(I0
g52
tp143
a(I0
g52
tp144
a(I0
g50
tp145
a(I0
g50
tp146
a(I0
S'North'
p147
tp148
a(I0
g52
tp149
a(I0
g52
tp150
a(I0
g52
tp151
a(I0
g52
tp152
a(I0
g52
tp153
a(I0
g71
tp154
a(I0
g106
tp155
a(I0
g106
tp156
a(I0
g52
tp157
a(I0
g50
tp158
a(I0
g50
tp159
a(I0
g50
tp160
a(I0
g50
tp161
a(I0
g52
tp162
a(I0
g52
tp163
a(I0
g52
tp164
a(I0
g147
tp165
a(I0
g147
tp166
a(I0
g147
tp167
a(I0
g52
tp168
a(I0
g106
tp169
a(I0
g106
tp170
a(I0
g106
tp171
a(I0
g106
tp172
as.