(dp1
S'layout'
p2
(ilayout
Layout
p3
(dp4
S'capsules'
p5
(lp6
sS'numGhosts'
p7
I1
sS'food'
p8
(igame
Grid
p9
(dp10
S'CELLS_PER_INT'
p11
I30
sS'width'
p12
I7
sS'data'
p13
(lp14
(lp15
I00
aI00
aI00
aI00
aI00
aI00
aI00
aa(lp16
I00
aI01
aI00
aI00
aI00
aI00
aI00
aa(lp17
I00
aI00
aI00
aI00
aI00
aI00
aI00
aa(lp18
I00
aI00
aI00
aI01
aI00
aI00
aI00
aa(lp19
I00
aI00
aI00
aI00
aI00
aI00
aI00
aa(lp20
I00
aI00
aI00
aI00
aI00
aI00
aI00
aa(lp21
I00
aI00
aI00
aI00
aI00
aI00
aI00
aasS'height'
p22
I7
sbsS'agentPositions'
p23
(lp24
(I01
(I2
I5
tp25
tp26
a(I00
(I3
I1
ttp27
asg22
I7
sg12
I7
sS'walls'
p28
(igame
Grid
p29
(dp30
g11
I30
sg12
I7
sg13
(lp31
(lp32
I01
aI01
aI01
aI01
aI01
aI01
aI01
aa(lp33
I01
aI00
aI00
aI00
aI00
aI00
aI01
aa(lp34
I01
aI00
aI01
aI01
aI01
aI00
aI01
aa(lp35
I01
aI00
aI01
aI00
aI01
aI00
aI01
aa(lp36
I01
aI00
aI01
aI00
aI01
aI00
aI01
aa(lp37
I01
aI00
aI00
aI00
aI00
aI00
aI01
aa(lp38
I01
aI01
aI01
aI01
aI01
aI01
aI01
aasg22
I7
sbsS'totalFood'
p39
I2
sS'layoutText'
p40
(lp41
S'%%%%%%%'
p42
aS'% P   %'
p43
aS'% %%% %'
p44
aS'% %.  %'
p45
aS'% %%% %'
p46
aS'%. G  %'
p47
aS'%%%%%%%'
p48
asbsS'actions'
p49
(lp50
(I0
S'East'
p51
tp52
a(I0
g51
tp53
a(I0
S'Stop'
p54
tp55
a(I0
S'West'
p56
tp57
a(I0
g54
tp58
a(I0
g54
tp59
a(I0
g51
tp60
a(I0
g56
tp61
a(I0
g54
tp62
a(I0
g54
tp63
a(I0
g56
tp64
a(I0
g54
tp65
a(I0
g54
tp66
a(I0
g54
tp67
a(I0
g51
tp68
a(I0
g51
tp69
a(I0
g54
tp70
a(I0
g51
tp71
a(I0
g56
tp72
a(I0
g54
tp73
a(I0
g54
tp74
a(I0
g56
tp75
a(I0
g51
tp76
a(I0
g51
tp77
a(I0
g56
tp78
a(I0
g54
tp79
a(I0
g54
tp80
a(I0
g54
tp81
a(I0
g56
tp82
a(I0
g56
tp83
a(I0
g56
tp84
a(I0
g54
tp85
a(I0
S'South'
p86
tp87
a(I0
g54
tp88
a(I0
g86
tp89
a(I0
g86
tp90
a(I0
g86
tp91
a(I0
g51
tp92
a(I0
g51
tp93
a(I0
g56
tp94
a(I0
g56
tp95
a(I0
S'North'
p96
tp97
a(I0
g96
tp98
a(I0
g96
tp99
a(I0
g96
tp100
a(I0
g51
tp101
a(I0
g51
tp102
a(I0
g56
tp103
a(I0
g56
tp104
a(I0
g86
tp105
a(I0
g54
tp106
a(I0
g54
tp107
a(I0
g96
tp108
a(I0
g86
tp109
a(I0
g86
tp110
a(I0
g54
tp111
a(I0
g54
tp112
a(I0
g54
tp113
a(I0
g54
tp114
a(I0
g96
tp115
a(I0
g86
tp116
a(I0
g96
tp117
a(I0
g96
tp118
a(I0
g51
tp119
a(I0
g51
tp120
a(I0
g56
tp121
a(I0
g56
tp122
a(I0
g86
tp123
a(I0
g96
tp124
a(I0
g51
tp125
a(I0
g54
tp126
a(I0
g51
tp127
a(I0
g56
tp128
a(I0
g56
tp129
a(I0
g54
tp130
a(I0
g86
tp131
a(I0
g96
tp132
a(I0
g51
tp133
a(I0
g51
tp134
a(I0
g56
tp135
a(I0
g56
tp136
a(I0
g54
tp137
a(I0
g86
tp138
a(I0
g96
tp139
a(I0
g54
tp140
a(I0
g86
tp141
a(I0
g86
tp142
a(I0
g54
tp143
a(I0
g96
tp144
a(I0
g96
tp145
a(I0
g86
tp146
a(I0
g96
tp147
a(I0
g86
tp148
a(I0
g86
tp149
a(I0
g96
tp150
a(I0
g86
tp151
a(I0
g96
tp152
a(I0
g96
tp153
a(I0
g86
tp154
a(I0
g86
tp155
a(I0
g54
tp156
a(I0
g96
tp157
a(I0
g86
tp158
a(I0
g96
tp159
a(I0
g96
tp160
a(I0
g86
tp161
a(I0
g96
tp162
a(I0
g86
tp163
a(I0
g86
tp164
a(I0
g96
tp165
a(I0
g96
tp166
a(I0
g86
tp167
a(I0
g86
tp168
a(I0
g96
tp169
a(I0
g86
tp170
a(I0
g86
tp171
a(I0
g96
tp172
a(I0
g54
tp173
a(I0
g54
tp174
a(I0
g96
tp175
a(I0
g86
tp176
a(I0
g86
tp177
a(I0
g96
tp178
a(I0
g96
tp179
a(I0
g86
tp180
a(I0
g86
tp181
a(I0
g54
tp182
a(I0
g96
tp183
a(I0
g86
tp184
a(I0
g96
tp185
a(I0
g86
tp186
a(I0
g96
tp187
a(I0
g96
tp188
a(I0
g86
tp189
a(I0
g86
tp190
a(I0
g54
tp191
a(I0
g96
tp192
a(I0
g96
tp193
a(I0
g86
tp194
a(I0
g86
tp195
a(I0
g96
tp196
a(I0
g96
tp197
a(I0
g54
tp198
a(I0
g54
tp199
a(I0
g54
tp200
a(I0
g86
tp201
a(I0
g86
tp202
a(I0
g96
tp203
a(I0
g96
tp204
a(I0
g86
tp205
a(I0
g86
tp206
a(I0
g96
tp207
a(I0
g96
tp208
a(I0
g86
tp209
a(I0
g86
tp210
a(I0
g96
tp211
a(I0
g96
tp212
a(I0
g86
tp213
a(I0
g86
tp214
a(I0
g96
tp215
a(I0
g96
tp216
a(I0
g54
tp217
a(I0
g54
tp218
a(I0
g86
tp219
a(I0
g86
tp220
a(I0
g96
tp221
a(I0
g96
tp222
a(I0
g54
tp223
a(I0
g54
tp224
a(I0
g86
tp225
a(I0
g54
tp226
a(I0
g86
tp227
a(I0
g96
tp228
a(I0
g96
tp229
a(I0
g86
tp230
a(I0
g86
tp231
a(I0
g96
tp232
a(I0
g96
tp233
a(I0
g54
tp234
a(I0
g54
tp235
a(I0
g86
tp236
a(I0
g86
tp237
a(I0
g96
tp238
a(I0
g86
tp239
a(I0
g96
tp240
a(I0
g96
tp241
a(I0
g86
tp242
a(I0
g86
tp243
a(I0
g86
tp244
a(I0
g51
tp245
a(I0
g54
tp246
a(I0
g54
tp247
a(I0
g54
tp248
a(I0
g51
tp249
a(I0
g56
tp250
a(I0
g56
tp251
a(I0
g96
tp252
a(I0
g96
tp253
a(I0
g86
tp254
a(I0
g86
tp255
a(I0
g51
tp256
a(I0
g51
tp257
a(I0
g56
tp258
a(I0
g54
tp259
a(I0
g56
tp260
a(I0
g96
tp261
a(I0
g96
tp262
a(I0
g86
tp263
a(I0
g96
tp264
a(I0
g96
tp265
a(I0
g86
tp266
a(I0
g86
tp267
a(I0
g96
tp268
a(I0
g86
tp269
a(I0
g86
tp270
a(I0
g54
tp271
a(I0
g54
tp272
a(I0
g51
tp273
a(I0
g51
tp274
a(I0
g56
tp275
a(I0
g56
tp276
a(I0
g96
tp277
a(I0
g96
tp278
a(I0
g86
tp279
a(I0
g86
tp280
a(I0
g54
tp281
a(I0
g54
tp282
a(I0
g54
tp283
a(I0
g51
tp284
a(I0
g54
tp285
a(I0
g56
tp286
a(I0
g96
tp287
a(I0
g96
tp288
a(I0
g86
tp289
a(I0
g86
tp290
a(I0
g96
tp291
a(I0
g86
tp292
a(I0
g51
tp293
a(I0
g51
tp294
a(I0
g51
tp295
a(I0
g56
tp296
a(I0
g56
tp297
a(I0
g54
tp298
a(I0
g56
tp299
a(I0
g96
tp300
a(I0
g96
tp301
a(I0
g86
tp302
a(I0
g96
tp303
a(I0
g86
tp304
a(I0
g86
tp305
a(I0
g51
tp306
a(I0
g51
tp307
a(I0
g56
tp308
a(I0
g56
tp309
a(I0
g96
tp310
a(I0
g96
tp311
a(I0
g86
tp312
a(I0
g86
tp313
a(I0
g54
tp314
a(I0
g96
tp315
a(I0
g86
tp316
a(I0
g51
tp317
a(I0
g51
tp318
a(I0
g56
tp319
a(I0
g56
tp320
a(I0
g96
tp321
a(I0
g96
tp322
a(I0
g86
tp323
a(I0
g86
tp324
a(I0
g54
tp325
a(I0
g54
tp326
a(I0
g51
tp327
a(I0
g54
tp328
a(I0
g51
tp329
a(I0
g54
tp330
a(I0
g54
tp331
a(I0
g54
tp332
a(I0
g54
tp333
a(I0
g54
tp334
a(I0
g54
tp335
a(I0
g56
tp336
a(I0
g56
tp337
a(I0
g96
tp338
a(I0
g96
tp339
a(I0
g54
tp340
a(I0
g86
tp341
a(I0
g86
tp342
a(I0
g96
tp343
a(I0
g86
tp344
a(I0
g96
tp345
a(I0
g86
tp346
a(I0
g96
tp347
a(I0
g86
tp348
a(I0
g96
tp349
a(I0
g96
tp350
a(I0
g86
tp351
a(I0
g86
tp352
a(I0
g51
tp353
a(I0
g51
tp354
a(I0
g56
tp355
a(I0
g56
tp356
a(I0
g54
tp357
a(I0
g96
tp358
a(I0
g96
tp359
a(I0
g86
tp360
a(I0
g86
tp361
a(I0
g51
tp362
a(I0
g51
tp363
a(I0
g56
tp364
a(I0
g56
tp365
a(I0
g51
tp366
a(I0
g51
tp367
a(I0
g56
tp368
a(I0
g56
tp369
a(I0
g96
tp370
a(I0
g96
tp371
a(I0
g86
tp372
a(I0
g86
tp373
a(I0
g51
tp374
a(I0
g51
tp375
a(I0
g56
tp376
a(I0
g56
tp377
a(I0
g96
tp378
a(I0
g86
tp379
a(I0
g51
tp380
a(I0
g51
tp381
a(I0
g56
tp382
a(I0
g56
tp383
a(I0
g96
tp384
a(I0
g96
tp385
a(I0
g96
tp386
a(I0
g54
tp387
a(I0
g54
tp388
a(I0
g54
tp389
a(I0
g54
tp390
a(I0
g54
tp391
a(I0
g54
tp392
a(I0
g54
tp393
a(I0
g86
tp394
a(I0
g54
tp395
a(I0
g54
tp396
a(I0
g96
tp397
a(I0
g54
tp398
a(I0
g54
tp399
a(I0
g54
tp400
a(I0
g54
tp401
a(I0
g96
tp402
a(I0
g86
tp403
a(I0
g54
tp404
a(I0
g54
tp405
a(I0
g54
tp406
a(I0
g54
tp407
a(I0
g54
tp408
a(I0
g54
tp409
a(I0
g54
tp410
a(I0
g54
tp411
a(I0
g96
tp412
a(I0
g54
tp413
a(I0
g51
tp414
a(I0
g51
tp415
a(I0
g51
tp416
a(I0
g56
tp417
a(I0
g56
tp418
a(I0
g51
tp419
a(I0
g51
tp420
a(I0
g56
tp421
a(I0
g54
tp422
a(I0
g56
tp423
a(I0
g51
tp424
a(I0
g51
tp425
a(I0
g56
tp426
a(I0
g56
tp427
a(I0
g51
tp428
a(I0
g51
tp429
a(I0
g56
tp430
a(I0
g56
tp431
a(I0
g51
tp432
a(I0
g51
tp433
a(I0
g56
tp434
a(I0
g56
tp435
a(I0
g51
tp436
a(I0
g51
tp437
a(I0
g54
tp438
a(I0
g54
tp439
a(I0
g56
tp440
a(I0
g56
tp441
a(I0
g54
tp442
a(I0
g51
tp443
a(I0
g51
tp444
a(I0
g56
tp445
a(I0
g56
tp446
a(I0
g51
tp447
a(I0
g51
tp448
a(I0
g56
tp449
a(I0
g56
tp450
a(I0
g51
tp451
a(I0
g51
tp452
a(I0
g56
tp453
a(I0
g56
tp454
a(I0
g51
tp455
a(I0
g51
tp456
a(I0
g56
tp457
a(I0
g56
tp458
a(I0
g54
tp459
a(I0
g56
tp460
a(I0
g51
tp461
a(I0
g56
tp462
a(I0
g51
tp463
a(I0
g56
tp464
a(I0
g51
tp465
a(I0
g56
tp466
a(I0
g51
tp467
a(I0
g51
tp468
a(I0
g54
tp469
a(I0
g51
tp470
a(I0
g56
tp471
a(I0
g56
tp472
a(I0
g51
tp473
a(I0
g51
tp474
a(I0
g56
tp475
a(I0
g56
tp476
a(I0
g51
tp477
a(I0
g51
tp478
a(I0
g56
tp479
a(I0
g56
tp480
a(I0
g51
tp481
a(I0
g51
tp482
a(I0
g56
tp483
a(I0
g56
tp484
a(I0
g51
tp485
a(I0
g51
tp486
a(I0
g56
tp487
a(I0
g56
tp488
a(I0
g51
tp489
a(I0
g51
tp490
a(I0
g56
tp491
a(I0
g56
tp492
a(I0
g56
tp493
a(I0
g86
tp494
a(I0
g96
tp495
a(I0
g51
tp496
a(I0
g54
tp497
a(I0
g56
tp498
a(I0
g51
tp499
a(I0
g56
tp500
a(I0
g51
tp501
a(I0
g51
tp502
a(I0
g51
tp503
a(I0
g56
tp504
a(I0
g56
tp505
a(I0
g54
tp506
a(I0
g51
tp507
a(I0
g51
tp508
a(I0
g56
tp509
a(I0
g56
tp510
a(I0
g51
tp511
a(I0
g51
tp512
a(I0
g56
tp513
a(I0
g56
tp514
a(I0
g51
tp515
a(I0
g51
tp516
a(I0
g56
tp517
a(I0
g56
tp518
a(I0
g51
tp519
a(I0
g54
tp520
a(I0
g51
tp521
a(I0
g56
tp522
a(I0
g56
tp523
a(I0
g51
tp524
a(I0
g51
tp525
a(I0
g56
tp526
a(I0
g56
tp527
a(I0
g56
tp528
a(I0
g86
tp529
a(I0
g96
tp530
a(I0
g51
tp531
a(I0
g51
tp532
a(I0
g56
tp533
a(I0
g51
tp534
a(I0
g56
tp535
a(I0
g51
tp536
a(I0
g56
tp537
a(I0
g51
tp538
a(I0
g51
tp539
a(I0
g56
tp540
a(I0
g56
tp541
a(I0
g51
tp542
a(I0
g51
tp543
a(I0
g56
tp544
a(I0
g56
tp545
a(I0
g51
tp546
a(I0
g51
tp547
a(I0
g56
tp548
a(I0
g56
tp549
a(I0
g51
tp550
a(I0
g51
tp551
a(I0
g56
tp552
a(I0
g56
tp553
a(I0
g51
tp554
a(I0
g51
tp555
a(I0
g56
tp556
a(I0
g56
tp557
a(I0
g51
tp558
a(I0
g51
tp559
a(I0
g56
tp560
a(I0
g56
tp561
a(I0
g51
tp562
a(I0
g51
tp563
a(I0
g56
tp564
a(I0
g56
tp565
a(I0
g51
tp566
a(I0
g51
tp567
a(I0
g56
tp568
a(I0
g56
tp569
a(I0
g51
tp570
a(I0
g51
tp571
a(I0
g56
tp572
a(I0
g56
tp573
a(I0
g51
tp574
a(I0
g51
tp575
a(I0
g56
tp576
a(I0
g56
tp577
a(I0
g51
tp578
a(I0
g56
tp579
a(I0
g56
tp580
a(I0
g86
tp581
a(I0
g86
tp582
a(I0
g96
tp583
a(I0
g96
tp584
a(I0
g51
tp585
a(I0
g51
tp586
a(I0
g51
tp587
a(I0
g54
tp588
a(I0
g54
tp589
a(I0
g54
tp590
a(I0
g54
tp591
a(I0
g54
tp592
a(I0
g54
tp593
a(I0
g54
tp594
a(I0
g51
tp595
a(I0
g56
tp596
a(I0
g56
tp597
a(I0
g54
tp598
a(I0
g54
tp599
a(I0
g56
tp600
a(I0
g56
tp601
a(I0
g86
tp602
a(I0
g86
tp603
a(I0
g54
tp604
a(I0
g54
tp605
a(I0
g86
tp606
a(I0
g96
tp607
a(I0
g86
tp608
a(I0
g86
tp609
a(I0
g51
tp610
a(I0
g51
tp611
a(I0
g56
tp612
a(I0
g56
tp613
a(I0
g96
tp614
a(I0
g96
tp615
a(I0
g86
tp616
a(I0
g86
tp617
a(I0
g51
tp618
a(I0
g51
tp619
a(I0
g56
tp620
a(I0
g56
tp621
a(I0
g51
tp622
a(I0
g51
tp623
a(I0
g56
tp624
a(I0
g51
tp625
a(I0
g54
tp626
a(I0
g56
tp627
a(I0
g56
tp628
a(I0
g96
tp629
a(I0
g86
tp630
a(I0
g51
tp631
a(I0
g54
tp632
a(I0
g54
tp633
a(I0
g54
tp634
a(I0
g54
tp635
a(I0
g51
tp636
a(I0
g56
tp637
a(I0
g56
tp638
a(I0
g96
tp639
a(I0
g96
tp640
a(I0
g96
tp641
a(I0
g86
tp642
a(I0
g86
tp643
a(I0
g96
tp644
a(I0
g96
tp645
a(I0
g96
tp646
a(I0
g54
tp647
a(I0
g51
tp648
a(I0
g51
tp649
a(I0
g56
tp650
a(I0
g56
tp651
a(I0
g86
tp652
a(I0
g54
tp653
a(I0
g54
tp654
a(I0
g54
tp655
a(I0
g96
tp656
a(I0
g51
tp657
a(I0
g54
tp658
a(I0
g51
tp659
a(I0
g51
tp660
a(I0
g56
tp661
a(I0
g56
tp662
a(I0
g56
tp663
a(I0
g86
tp664
a(I0
g96
tp665
a(I0
g51
tp666
a(I0
g51
tp667
a(I0
g56
tp668
a(I0
g54
tp669
a(I0
g54
tp670
a(I0
g54
tp671
a(I0
g54
tp672
a(I0
g56
tp673
a(I0
g86
tp674
a(I0
g96
tp675
a(I0
g54
tp676
a(I0
g51
tp677
a(I0
g51
tp678
a(I0
g56
tp679
a(I0
g56
tp680
a(I0
g86
tp681
a(I0
g54
tp682
a(I0
g96
tp683
a(I0
g51
tp684
a(I0
g51
tp685
a(I0
g56
tp686
a(I0
g56
tp687
a(I0
g86
tp688
a(I0
g96
tp689
a(I0
g51
tp690
a(I0
g51
tp691
a(I0
g56
tp692
a(I0
g56
tp693
a(I0
g86
tp694
a(I0
g96
tp695
a(I0
g51
tp696
a(I0
g51
tp697
a(I0
g56
tp698
a(I0
g56
tp699
a(I0
g86
tp700
a(I0
g96
tp701
a(I0
g86
tp702
a(I0
g96
tp703
a(I0
g51
tp704
a(I0
g51
tp705
a(I0
g56
tp706
a(I0
g56
tp707
a(I0
g51
tp708
a(I0
g51
tp709
a(I0
g56
tp710
a(I0
g56
tp711
a(I0
g86
tp712
a(I0
g96
tp713
a(I0
g51
tp714
a(I0
g51
tp715
a(I0
g51
tp716
a(I0
g56
tp717
a(I0
g51
tp718
a(I0
g54
tp719
a(I0
g54
tp720
a(I0
g54
tp721
a(I0
g54
tp722
a(I0
g54
tp723
a(I0
g54
tp724
a(I0
g54
tp725
a(I0
g54
tp726
a(I0
g54
tp727
a(I0
g54
tp728
a(I0
g54
tp729
a(I0
g54
tp730
a(I0
g54
tp731
a(I0
g54
tp732
a(I0
g54
tp733
a(I0
g54
tp734
a(I0
g54
tp735
a(I0
g56
tp736
a(I0
g56
tp737
a(I0
g56
tp738
a(I0
g86
tp739
a(I0
g86
tp740
a(I0
g96
tp741
a(I0
g54
tp742
a(I0
g96
tp743
a(I0
g51
tp744
a(I0
g54
tp745
a(I0
g54
tp746
a(I0
g51
tp747
a(I0
g56
tp748
a(I0
g56
tp749
a(I0
g86
tp750
a(I0
g54
tp751
a(I0
g86
tp752
a(I0
g96
tp753
a(I0
g96
tp754
a(I0
g86
tp755
a(I0
g86
tp756
a(I0
g96
tp757
a(I0
g96
tp758
a(I0
g51
tp759
a(I0
g51
tp760
a(I0
g56
tp761
a(I0
g56
tp762
a(I0
g86
tp763
a(I0
g96
tp764
a(I0
g51
tp765
a(I0
g51
tp766
a(I0
g56
tp767
a(I0
g54
tp768
a(I0
g54
tp769
a(I0
g54
tp770
a(I0
g54
tp771
a(I0
g56
tp772
a(I0
g54
tp773
a(I0
g86
tp774
a(I0
g96
tp775
a(I0
g51
tp776
a(I0
g51
tp777
a(I0
g56
tp778
a(I0
g56
tp779
a(I0
g86
tp780
a(I0
g96
tp781
a(I0
g51
tp782
a(I0
g51
tp783
a(I0
g56
tp784
a(I0
g56
tp785
a(I0
g86
tp786
a(I0
g96
tp787
a(I0
g51
tp788
a(I0
g51
tp789
a(I0
g56
tp790
a(I0
g56
tp791
a(I0
g51
tp792
a(I0
g51
tp793
a(I0
g56
tp794
a(I0
g56
tp795
a(I0
g86
tp796
a(I0
g54
tp797
a(I0
g96
tp798
a(I0
g51
tp799
a(I0
g51
tp800
a(I0
g56
tp801
a(I0
g54
tp802
a(I0
g54
tp803
a(I0
g51
tp804
a(I0
g54
tp805
a(I0
g56
tp806
a(I0
g54
tp807
a(I0
g54
tp808
a(I0
g54
tp809
a(I0
g54
tp810
a(I0
g56
tp811
a(I0
g54
tp812
a(I0
g86
tp813
a(I0
g96
tp814
a(I0
g51
tp815
a(I0
g51
tp816
a(I0
g56
tp817
a(I0
g56
tp818
a(I0
g51
tp819
a(I0
g51
tp820
a(I0
g56
tp821
a(I0
g54
tp822
a(I0
g54
tp823
a(I0
g56
tp824
a(I0
g51
tp825
a(I0
g51
tp826
a(I0
g51
tp827
a(I0
g54
tp828
a(I0
g54
tp829
a(I0
g54
tp830
a(I0
g54
tp831
a(I0
g54
tp832
a(I0
g54
tp833
a(I0
g54
tp834
a(I0
g51
tp835
a(I0
g54
tp836
a(I0
g56
tp837
a(I0
g56
tp838
a(I0
g51
tp839
a(I0
g54
tp840
a(I0
g54
tp841
a(I0
g54
tp842
a(I0
g56
tp843
a(I0
g56
tp844
a(I0
g56
tp845
a(I0
g86
tp846
a(I0
g96
tp847
a(I0
g51
tp848
a(I0
g51
tp849
a(I0
g56
tp850
a(I0
g56
tp851
a(I0
g51
tp852
a(I0
g54
tp853
a(I0
g51
tp854
a(I0
g56
tp855
a(I0
g56
tp856
a(I0
g86
tp857
a(I0
g96
tp858
a(I0
g51
tp859
a(I0
g51
tp860
a(I0
g56
tp861
a(I0
g56
tp862
a(I0
g51
tp863
a(I0
g51
tp864
a(I0
g56
tp865
a(I0
g56
tp866
a(I0
g51
tp867
a(I0
g51
tp868
a(I0
g56
tp869
a(I0
g56
tp870
a(I0
g86
tp871
a(I0
g54
tp872
a(I0
g96
tp873
a(I0
g51
tp874
a(I0
g51
tp875
a(I0
g56
tp876
a(I0
g56
tp877
a(I0
g86
tp878
a(I0
g96
tp879
a(I0
g86
tp880
a(I0
g86
tp881
a(I0
g96
tp882
a(I0
g96
tp883
a(I0
g86
tp884
a(I0
g96
tp885
a(I0
g51
tp886
a(I0
g54
tp887
a(I0
g54
tp888
a(I0
g54
tp889
a(I0
g51
tp890
a(I0
g56
tp891
a(I0
g54
tp892
a(I0
g54
tp893
a(I0
g56
tp894
a(I0
g86
tp895
a(I0
g86
tp896
a(I0
g96
tp897
a(I0
g54
tp898
a(I0
g54
tp899
a(I0
g96
tp900
a(I0
g51
tp901
a(I0
g51
tp902
a(I0
g56
tp903
a(I0
g56
tp904
a(I0
g86
tp905
a(I0
g96
tp906
a(I0
g51
tp907
a(I0
g51
tp908
a(I0
g56
tp909
a(I0
g56
tp910
a(I0
g86
tp911
a(I0
g86
tp912
a(I0
g96
tp913
a(I0
g54
tp914
a(I0
g54
tp915
a(I0
g54
tp916
a(I0
g54
tp917
a(I0
g54
tp918
a(I0
g96
tp919
a(I0
g86
tp920
a(I0
g96
tp921
a(I0
g51
tp922
a(I0
g51
tp923
a(I0
g51
tp924
a(I0
g56
tp925
a(I0
g54
tp926
a(I0
g54
tp927
a(I0
g54
tp928
a(I0
g54
tp929
a(I0
g54
tp930
a(I0
g54
tp931
a(I0
g54
tp932
a(I0
g54
tp933
a(I0
g54
tp934
a(I0
g56
tp935
a(I0
g51
tp936
a(I0
g54
tp937
a(I0
g54
tp938
a(I0
g54
tp939
a(I0
g54
tp940
a(I0
g54
tp941
a(I0
g54
tp942
a(I0
g56
tp943
a(I0
g54
tp944
a(I0
g56
tp945
a(I0
g86
tp946
a(I0
g86
tp947
a(I0
g96
tp948
a(I0
g96
tp949
a(I0
g86
tp950
a(I0
g96
tp951
a(I0
g51
tp952
a(I0
g56
tp953
a(I0
g54
tp954
a(I0
g86
tp955
a(I0
g96
tp956
a(I0
g51
tp957
as.