(dp1
S'layout'
p2
(ilayout
Layout
p3
(dp4
S'capsules'
p5
(lp6
sS'numGhosts'
p7
I1
sS'food'
p8
(igame
Grid
p9
(dp10
S'CELLS_PER_INT'
p11
I30
sS'width'
p12
I7
sS'data'
p13
(lp14
(lp15
I00
aI00
aI00
aI00
aI00
aI00
aI00
aa(lp16
I00
aI01
aI00
aI00
aI00
aI00
aI00
aa(lp17
I00
aI00
aI00
aI00
aI00
aI00
aI00
aa(lp18
I00
aI00
aI00
aI01
aI00
aI00
aI00
aa(lp19
I00
aI00
aI00
aI00
aI00
aI00
aI00
aa(lp20
I00
aI00
aI00
aI00
aI00
aI00
aI00
aa(lp21
I00
aI00
aI00
aI00
aI00
aI00
aI00
aasS'height'
p22
I7
sbsS'agentPositions'
p23
(lp24
(I01
(I2
I5
tp25
tp26
a(I00
(I3
I1
ttp27
asg22
I7
sg12
I7
sS'walls'
p28
(igame
Grid
p29
(dp30
g11
I30
sg12
I7
sg13
(lp31
(lp32
I01
aI01
aI01
aI01
aI01
aI01
aI01
aa(lp33
I01
aI00
aI00
aI00
aI00
aI00
aI01
aa(lp34
I01
aI00
aI01
aI01
aI01
aI00
aI01
aa(lp35
I01
aI00
aI01
aI00
aI01
aI00
aI01
aa(lp36
I01
aI00
aI01
aI00
aI01
aI00
aI01
aa(lp37
I01
aI00
aI00
aI00
aI00
aI00
aI01
aa(lp38
I01
aI01
aI01
aI01
aI01
aI01
aI01
aasg22
I7
sbsS'totalFood'
p39
I2
sS'layoutText'
p40
(lp41
S'%%%%%%%'
p42
aS'% P   %'
p43
aS'% %%% %'
p44
aS'% %.  %'
p45
aS'% %%% %'
p46
aS'%. G  %'
p47
aS'%%%%%%%'
p48
asbsS'actions'
p49
(lp50
(I0
S'Stop'
p51
tp52
a(I0
g51
tp53
a(I0
g51
tp54
a(I0
g51
tp55
a(I0
g51
tp56
a(I0
g51
tp57
a(I0
S'West'
p58
tp59
a(I0
g51
tp60
a(I0
S'East'
p61
tp62
a(I0
g51
tp63
a(I0
g61
tp64
a(I0
g51
tp65
a(I0
g58
tp66
a(I0
g61
tp67
a(I0
g61
tp68
a(I0
g51
tp69
a(I0
g51
tp70
a(I0
g51
tp71
a(I0
g51
tp72
a(I0
g51
tp73
a(I0
g58
tp74
a(I0
g51
tp75
a(I0
g51
tp76
a(I0
g51
tp77
a(I0
g58
tp78
a(I0
g58
tp79
a(I0
g61
tp80
a(I0
g61
tp81
a(I0
g58
tp82
a(I0
g51
tp83
a(I0
g61
tp84
a(I0
g58
tp85
a(I0
g58
tp86
a(I0
g51
tp87
a(I0
S'South'
p88
tp89
a(I0
g88
tp90
a(I0
g88
tp91
a(I0
g88
tp92
a(I0
g61
tp93
a(I0
g61
tp94
a(I0
g58
tp95
a(I0
g58
tp96
a(I0
S'North'
p97
tp98
a(I0
g51
tp99
a(I0
g51
tp100
a(I0
g88
tp101
a(I0
g61
tp102
a(I0
g61
tp103
a(I0
g58
tp104
a(I0
g58
tp105
a(I0
g97
tp106
a(I0
g97
tp107
a(I0
g88
tp108
a(I0
g88
tp109
a(I0
g61
tp110
a(I0
g61
tp111
a(I0
g58
tp112
a(I0
g58
tp113
a(I0
g97
tp114
a(I0
g97
tp115
a(I0
g88
tp116
a(I0
g88
tp117
a(I0
g61
tp118
a(I0
g61
tp119
a(I0
g58
tp120
a(I0
g51
tp121
a(I0
g51
tp122
a(I0
g58
tp123
a(I0
g51
tp124
a(I0
g97
tp125
a(I0
g97
tp126
a(I0
g51
tp127
a(I0
g51
tp128
a(I0
g51
tp129
a(I0
g51
tp130
a(I0
g51
tp131
a(I0
g51
tp132
a(I0
g51
tp133
a(I0
g51
tp134
a(I0
g51
tp135
a(I0
g51
tp136
a(I0
g51
tp137
a(I0
g51
tp138
a(I0
g51
tp139
a(I0
g51
tp140
a(I0
g51
tp141
a(I0
g51
tp142
a(I0
g51
tp143
a(I0
g51
tp144
a(I0
g51
tp145
a(I0
g51
tp146
a(I0
g51
tp147
a(I0
g51
tp148
a(I0
g51
tp149
a(I0
g51
tp150
a(I0
g51
tp151
a(I0
g51
tp152
a(I0
g88
tp153
a(I0
g97
tp154
a(I0
g51
tp155
a(I0
g51
tp156
a(I0
g51
tp157
a(I0
g51
tp158
a(I0
g88
tp159
a(I0
g97
tp160
a(I0
g97
tp161
a(I0
g88
tp162
a(I0
g51
tp163
a(I0
g51
tp164
a(I0
g51
tp165
a(I0
g88
tp166
a(I0
g88
tp167
a(I0
g97
tp168
a(I0
g97
tp169
a(I0
g97
tp170
a(I0
g51
tp171
a(I0
g97
tp172
a(I0
g51
tp173
a(I0
g61
tp174
a(I0
g51
tp175
a(I0
g61
tp176
a(I0
g61
tp177
a(I0
g58
tp178
a(I0
g58
tp179
a(I0
g51
tp180
a(I0
g61
tp181
a(I0
g61
tp182
a(I0
g58
tp183
a(I0
g58
tp184
a(I0
g61
tp185
a(I0
g61
tp186
a(I0
g58
tp187
a(I0
g58
tp188
a(I0
g61
tp189
a(I0
g61
tp190
a(I0
g58
tp191
a(I0
g58
tp192
a(I0
g58
tp193
a(I0
g88
tp194
a(I0
g51
tp195
a(I0
g51
tp196
a(I0
g51
tp197
a(I0
g51
tp198
a(I0
g97
tp199
a(I0
g51
tp200
a(I0
g51
tp201
a(I0
g51
tp202
a(I0
g51
tp203
a(I0
g51
tp204
a(I0
g61
tp205
a(I0
g51
tp206
a(I0
g51
tp207
a(I0
g51
tp208
a(I0
g51
tp209
a(I0
g61
tp210
a(I0
g58
tp211
a(I0
g51
tp212
a(I0
g61
tp213
a(I0
g61
tp214
a(I0
g58
tp215
a(I0
g58
tp216
a(I0
g61
tp217
a(I0
g61
tp218
a(I0
g58
tp219
a(I0
g58
tp220
a(I0
g61
tp221
a(I0
g61
tp222
a(I0
g58
tp223
a(I0
g58
tp224
a(I0
g61
tp225
a(I0
g61
tp226
a(I0
g58
tp227
a(I0
g58
tp228
a(I0
g61
tp229
a(I0
g61
tp230
a(I0
g58
tp231
a(I0
g58
tp232
a(I0
g61
tp233
a(I0
g61
tp234
a(I0
g58
tp235
a(I0
g58
tp236
a(I0
g51
tp237
a(I0
g61
tp238
a(I0
g61
tp239
a(I0
g58
tp240
a(I0
g58
tp241
a(I0
g61
tp242
a(I0
g58
tp243
a(I0
g58
tp244
a(I0
g88
tp245
a(I0
g97
tp246
a(I0
g88
tp247
a(I0
g97
tp248
a(I0
g61
tp249
a(I0
g61
tp250
a(I0
g58
tp251
a(I0
g58
tp252
a(I0
g88
tp253
a(I0
g97
tp254
a(I0
g61
tp255
a(I0
g61
tp256
a(I0
g58
tp257
a(I0
g58
tp258
a(I0
g88
tp259
a(I0
g88
tp260
a(I0
g51
tp261
a(I0
g51
tp262
a(I0
g51
tp263
a(I0
g88
tp264
a(I0
g97
tp265
a(I0
g97
tp266
a(I0
g51
tp267
a(I0
g51
tp268
a(I0
g51
tp269
a(I0
g51
tp270
a(I0
g51
tp271
a(I0
g51
tp272
a(I0
g51
tp273
a(I0
g88
tp274
a(I0
g51
tp275
a(I0
g51
tp276
a(I0
g51
tp277
a(I0
g88
tp278
a(I0
g97
tp279
a(I0
g97
tp280
a(I0
g97
tp281
a(I0
g61
tp282
a(I0
g61
tp283
a(I0
g51
tp284
a(I0
g58
tp285
a(I0
g51
tp286
a(I0
g58
tp287
a(I0
g88
tp288
a(I0
g51
tp289
a(I0
g97
tp290
a(I0
g61
tp291
a(I0
g61
tp292
a(I0
g58
tp293
a(I0
g51
tp294
a(I0
g51
tp295
a(I0
g61
tp296
a(I0
g51
tp297
a(I0
g58
tp298
a(I0
g58
tp299
a(I0
g88
tp300
a(I0
g88
tp301
a(I0
g97
tp302
a(I0
g97
tp303
a(I0
g61
tp304
a(I0
g61
tp305
a(I0
g58
tp306
a(I0
g58
tp307
a(I0
g88
tp308
a(I0
g97
tp309
a(I0
g61
tp310
a(I0
g61
tp311
a(I0
g58
tp312
a(I0
g51
tp313
a(I0
g61
tp314
a(I0
g58
tp315
a(I0
g51
tp316
a(I0
g61
tp317
a(I0
g58
tp318
a(I0
g51
tp319
a(I0
g61
tp320
a(I0
g58
tp321
a(I0
g51
tp322
a(I0
g58
tp323
a(I0
g88
tp324
a(I0
g97
tp325
a(I0
g61
tp326
a(I0
g58
tp327
a(I0
g88
tp328
a(I0
g97
tp329
a(I0
g61
tp330
a(I0
g61
tp331
a(I0
g61
tp332
a(I0
g51
tp333
a(I0
g51
tp334
a(I0
g51
tp335
a(I0
g51
tp336
a(I0
g51
tp337
a(I0
g51
tp338
a(I0
g51
tp339
a(I0
g51
tp340
a(I0
g58
tp341
a(I0
g51
tp342
a(I0
g51
tp343
a(I0
g51
tp344
a(I0
g51
tp345
a(I0
g58
tp346
a(I0
g61
tp347
a(I0
g61
tp348
a(I0
g58
tp349
a(I0
g51
tp350
a(I0
g51
tp351
a(I0
g51
tp352
a(I0
g58
tp353
a(I0
g51
tp354
a(I0
g61
tp355
a(I0
g58
tp356
a(I0
g58
tp357
a(I0
g51
tp358
a(I0
g88
tp359
a(I0
g51
tp360
a(I0
g51
tp361
a(I0
g88
tp362
a(I0
g97
tp363
a(I0
g88
tp364
a(I0
g97
tp365
a(I0
g97
tp366
a(I0
g61
tp367
a(I0
g51
tp368
a(I0
g51
tp369
a(I0
g51
tp370
a(I0
g61
tp371
a(I0
g61
tp372
a(I0
g51
tp373
a(I0
g51
tp374
a(I0
g51
tp375
a(I0
g58
tp376
a(I0
g58
tp377
a(I0
g58
tp378
a(I0
g88
tp379
a(I0
g51
tp380
a(I0
g51
tp381
a(I0
g97
tp382
a(I0
g61
tp383
a(I0
g51
tp384
a(I0
g51
tp385
a(I0
g51
tp386
a(I0
g51
tp387
a(I0
g61
tp388
a(I0
g58
tp389
a(I0
g58
tp390
a(I0
g88
tp391
a(I0
g51
tp392
a(I0
g97
tp393
a(I0
g61
tp394
a(I0
g51
tp395
a(I0
g61
tp396
a(I0
g58
tp397
a(I0
g51
tp398
a(I0
g58
tp399
a(I0
g88
tp400
a(I0
g97
tp401
a(I0
g61
tp402
a(I0
g51
tp403
a(I0
g51
tp404
a(I0
g61
tp405
a(I0
g58
tp406
a(I0
g58
tp407
a(I0
g88
tp408
a(I0
g97
tp409
a(I0
g61
tp410
a(I0
g61
tp411
a(I0
g58
tp412
a(I0
g61
tp413
a(I0
g51
tp414
a(I0
g58
tp415
a(I0
g51
tp416
a(I0
g61
tp417
a(I0
g61
tp418
a(I0
g58
tp419
a(I0
g51
tp420
a(I0
g51
tp421
a(I0
g51
tp422
a(I0
g51
tp423
a(I0
g51
tp424
a(I0
g51
tp425
a(I0
g58
tp426
a(I0
g58
tp427
a(I0
g88
tp428
a(I0
g88
tp429
a(I0
g51
tp430
a(I0
g51
tp431
a(I0
g97
tp432
a(I0
g88
tp433
a(I0
g51
tp434
a(I0
g51
tp435
a(I0
g51
tp436
a(I0
g51
tp437
a(I0
g51
tp438
a(I0
g51
tp439
a(I0
g51
tp440
a(I0
g51
tp441
a(I0
g51
tp442
a(I0
g51
tp443
a(I0
g51
tp444
a(I0
g51
tp445
a(I0
g51
tp446
a(I0
g51
tp447
a(I0
g97
tp448
a(I0
g97
tp449
a(I0
g88
tp450
a(I0
g88
tp451
a(I0
g51
tp452
a(I0
g51
tp453
a(I0
g51
tp454
a(I0
g51
tp455
a(I0
g51
tp456
a(I0
g51
tp457
a(I0
g51
tp458
a(I0
g51
tp459
a(I0
g51
tp460
a(I0
g88
tp461
a(I0
g88
tp462
a(I0
g97
tp463
a(I0
g97
tp464
a(I0
g88
tp465
a(I0
g88
tp466
a(I0
g97
tp467
a(I0
g88
tp468
a(I0
g97
tp469
a(I0
g88
tp470
a(I0
g97
tp471
a(I0
g88
tp472
a(I0
g97
tp473
a(I0
g88
tp474
a(I0
g97
tp475
a(I0
g88
tp476
a(I0
g97
tp477
a(I0
g88
tp478
a(I0
g51
tp479
a(I0
g51
tp480
a(I0
g51
tp481
a(I0
g61
tp482
a(I0
g58
tp483
a(I0
g51
tp484
a(I0
g51
tp485
a(I0
g51
tp486
a(I0
g51
tp487
a(I0
g51
tp488
a(I0
g97
tp489
a(I0
g88
tp490
a(I0
g51
tp491
a(I0
g61
tp492
a(I0
g61
tp493
a(I0
g58
tp494
a(I0
g58
tp495
a(I0
g51
tp496
a(I0
g61
tp497
a(I0
g51
tp498
a(I0
g51
tp499
a(I0
g58
tp500
a(I0
g61
tp501
a(I0
g58
tp502
a(I0
g61
tp503
a(I0
g58
tp504
a(I0
g61
tp505
a(I0
g58
tp506
a(I0
g61
tp507
a(I0
g58
tp508
a(I0
g61
tp509
a(I0
g58
tp510
a(I0
g61
tp511
a(I0
g58
tp512
a(I0
g61
tp513
a(I0
g58
tp514
a(I0
g61
tp515
a(I0
g58
tp516
a(I0
g61
tp517
a(I0
g58
tp518
a(I0
g61
tp519
a(I0
g58
tp520
a(I0
g61
tp521
a(I0
g58
tp522
a(I0
g61
tp523
a(I0
g61
tp524
a(I0
g51
tp525
a(I0
g51
tp526
a(I0
g58
tp527
a(I0
g58
tp528
a(I0
g51
tp529
a(I0
g51
tp530
a(I0
g61
tp531
a(I0
g58
tp532
a(I0
g97
tp533
a(I0
g88
tp534
a(I0
g97
tp535
a(I0
g88
tp536
a(I0
g97
tp537
a(I0
g88
tp538
a(I0
g97
tp539
a(I0
g88
tp540
a(I0
g97
tp541
a(I0
g88
tp542
a(I0
g61
tp543
a(I0
g51
tp544
a(I0
g51
tp545
a(I0
g51
tp546
a(I0
g58
tp547
a(I0
g97
tp548
a(I0
g51
tp549
a(I0
g51
tp550
a(I0
g97
tp551
a(I0
g88
tp552
a(I0
g97
tp553
a(I0
g97
tp554
a(I0
g88
tp555
a(I0
g97
tp556
a(I0
g51
tp557
a(I0
g97
tp558
a(I0
g88
tp559
a(I0
g88
tp560
a(I0
g97
tp561
a(I0
g51
tp562
a(I0
g51
tp563
a(I0
g97
tp564
a(I0
g61
tp565
a(I0
g61
tp566
a(I0
g58
tp567
a(I0
g58
tp568
as.