(dp1
S'layout'
p2
(ilayout
Layout
p3
(dp4
S'capsules'
p5
(lp6
sS'numGhosts'
p7
I1
sS'food'
p8
(igame
Grid
p9
(dp10
S'CELLS_PER_INT'
p11
I30
sS'width'
p12
I7
sS'data'
p13
(lp14
(lp15
I00
aI00
aI00
aI00
aI00
aI00
aI00
aa(lp16
I00
aI01
aI00
aI00
aI00
aI00
aI00
aa(lp17
I00
aI00
aI00
aI00
aI00
aI00
aI00
aa(lp18
I00
aI00
aI00
aI01
aI00
aI00
aI00
aa(lp19
I00
aI00
aI00
aI00
aI00
aI00
aI00
aa(lp20
I00
aI00
aI00
aI00
aI00
aI00
aI00
aa(lp21
I00
aI00
aI00
aI00
aI00
aI00
aI00
aasS'height'
p22
I7
sbsS'agentPositions'
p23
(lp24
(I01
(I2
I5
tp25
tp26
a(I00
(I3
I1
ttp27
asg22
I7
sg12
I7
sS'walls'
p28
(igame
Grid
p29
(dp30
g11
I30
sg12
I7
sg13
(lp31
(lp32
I01
aI01
aI01
aI01
aI01
aI01
aI01
aa(lp33
I01
aI00
aI00
aI00
aI00
aI00
aI01
aa(lp34
I01
aI00
aI01
aI01
aI01
aI00
aI01
aa(lp35
I01
aI00
aI01
aI00
aI01
aI00
aI01
aa(lp36
I01
aI00
aI01
aI00
aI01
aI00
aI01
aa(lp37
I01
aI00
aI00
aI00
aI00
aI00
aI01
aa(lp38
I01
aI01
aI01
aI01
aI01
aI01
aI01
aasg22
I7
sbsS'totalFood'
p39
I2
sS'layoutText'
p40
(lp41
S'%%%%%%%'
p42
aS'% P   %'
p43
aS'% %%% %'
p44
aS'% %.  %'
p45
aS'% %%% %'
p46
aS'%. G  %'
p47
aS'%%%%%%%'
p48
asbsS'actions'
p49
(lp50
(I0
S'Stop'
p51
tp52
a(I0
S'West'
p53
tp54
a(I0
S'South'
p55
tp56
a(I0
S'North'
p57
tp58
a(I0
g51
tp59
a(I0
S'East'
p60
tp61
a(I0
g51
tp62
a(I0
g60
tp63
a(I0
g51
tp64
a(I0
g51
tp65
a(I0
g53
tp66
a(I0
g51
tp67
a(I0
g51
tp68
a(I0
g53
tp69
a(I0
g60
tp70
a(I0
g53
tp71
a(I0
g51
tp72
a(I0
g55
tp73
a(I0
g55
tp74
a(I0
g55
tp75
a(I0
g55
tp76
a(I0
g60
tp77
a(I0
g51
tp78
a(I0
g53
tp79
a(I0
g51
tp80
a(I0
g51
tp81
a(I0
g51
tp82
a(I0
g51
tp83
a(I0
g51
tp84
a(I0
g57
tp85
a(I0
g57
tp86
a(I0
g57
tp87
a(I0
g57
tp88
a(I0
g55
tp89
a(I0
g55
tp90
a(I0
g55
tp91
a(I0
g57
tp92
a(I0
g55
tp93
a(I0
g57
tp94
a(I0
g55
tp95
a(I0
g57
tp96
a(I0
g57
tp97
a(I0
g55
tp98
a(I0
g55
tp99
a(I0
g57
tp100
a(I0
g55
tp101
a(I0
g57
tp102
a(I0
g55
tp103
a(I0
g55
tp104
a(I0
g60
tp105
a(I0
g51
tp106
a(I0
g60
tp107
a(I0
g53
tp108
a(I0
g53
tp109
a(I0
g57
tp110
a(I0
g51
tp111
a(I0
g57
tp112
a(I0
g55
tp113
a(I0
g55
tp114
a(I0
g60
tp115
a(I0
g60
tp116
a(I0
g53
tp117
a(I0
g53
tp118
a(I0
g57
tp119
a(I0
g57
tp120
a(I0
g51
tp121
a(I0
g51
tp122
a(I0
g51
tp123
a(I0
g51
tp124
a(I0
g51
tp125
a(I0
g51
tp126
a(I0
g55
tp127
a(I0
g55
tp128
a(I0
g60
tp129
a(I0
g60
tp130
a(I0
g53
tp131
a(I0
g53
tp132
a(I0
g60
tp133
a(I0
g60
tp134
a(I0
g53
tp135
a(I0
g53
tp136
a(I0
g51
tp137
a(I0
g51
tp138
a(I0
g51
tp139
a(I0
g51
tp140
a(I0
g51
tp141
a(I0
g51
tp142
a(I0
g57
tp143
a(I0
g57
tp144
a(I0
g55
tp145
a(I0
g57
tp146
a(I0
g55
tp147
a(I0
g55
tp148
a(I0
g51
tp149
a(I0
g51
tp150
a(I0
g57
tp151
a(I0
g51
tp152
a(I0
g51
tp153
a(I0
g51
tp154
a(I0
g51
tp155
a(I0
g55
tp156
a(I0
g57
tp157
a(I0
g55
tp158
a(I0
g60
tp159
a(I0
g60
tp160
a(I0
g53
tp161
a(I0
g53
tp162
a(I0
g51
tp163
a(I0
g60
tp164
a(I0
g53
tp165
a(I0
g51
tp166
a(I0
g60
tp167
a(I0
g53
tp168
a(I0
g60
tp169
a(I0
g53
tp170
a(I0
g60
tp171
a(I0
g53
tp172
a(I0
g51
tp173
a(I0
g51
tp174
a(I0
g57
tp175
a(I0
g57
tp176
a(I0
g51
tp177
a(I0
g51
tp178
a(I0
g51
tp179
a(I0
g51
tp180
a(I0
g51
tp181
a(I0
g51
tp182
a(I0
g57
tp183
a(I0
g51
tp184
a(I0
g51
tp185
a(I0
g51
tp186
a(I0
g51
tp187
a(I0
g55
tp188
a(I0
g55
tp189
a(I0
g55
tp190
a(I0
g57
tp191
a(I0
g55
tp192
a(I0
g57
tp193
a(I0
g55
tp194
a(I0
g57
tp195
a(I0
g55
tp196
a(I0
g57
tp197
a(I0
g55
tp198
a(I0
g57
tp199
a(I0
g55
tp200
a(I0
g57
tp201
a(I0
g55
tp202
a(I0
g57
tp203
a(I0
g51
tp204
a(I0
g51
tp205
a(I0
g51
tp206
a(I0
g51
tp207
a(I0
g55
tp208
a(I0
g57
tp209
a(I0
g55
tp210
a(I0
g57
tp211
a(I0
g55
tp212
a(I0
g51
tp213
a(I0
g51
tp214
a(I0
g51
tp215
a(I0
g57
tp216
a(I0
g51
tp217
a(I0
g55
tp218
a(I0
g57
tp219
a(I0
g55
tp220
a(I0
g57
tp221
a(I0
g55
tp222
a(I0
g57
tp223
a(I0
g55
tp224
a(I0
g57
tp225
a(I0
g55
tp226
a(I0
g57
tp227
a(I0
g51
tp228
a(I0
g51
tp229
a(I0
g51
tp230
a(I0
g51
tp231
a(I0
g51
tp232
a(I0
g55
tp233
a(I0
g51
tp234
a(I0
g57
tp235
a(I0
g51
tp236
a(I0
g51
tp237
a(I0
g51
tp238
a(I0
g51
tp239
a(I0
g51
tp240
a(I0
g55
tp241
a(I0
g51
tp242
a(I0
g51
tp243
a(I0
g57
tp244
a(I0
g51
tp245
a(I0
g51
tp246
a(I0
g51
tp247
a(I0
g51
tp248
a(I0
g51
tp249
a(I0
g55
tp250
a(I0
g51
tp251
a(I0
g57
tp252
a(I0
g55
tp253
a(I0
g60
tp254
a(I0
g53
tp255
a(I0
g51
tp256
a(I0
g60
tp257
a(I0
g53
tp258
a(I0
g51
tp259
a(I0
g60
tp260
a(I0
g53
tp261
a(I0
g60
tp262
a(I0
g53
tp263
a(I0
g60
tp264
a(I0
g53
tp265
a(I0
g60
tp266
a(I0
g53
tp267
a(I0
g60
tp268
a(I0
g53
tp269
a(I0
g60
tp270
a(I0
g53
tp271
a(I0
g60
tp272
a(I0
g53
tp273
a(I0
g60
tp274
a(I0
g53
tp275
a(I0
g51
tp276
a(I0
g60
tp277
a(I0
g53
tp278
a(I0
g60
tp279
a(I0
g60
tp280
a(I0
g51
tp281
a(I0
g51
tp282
a(I0
g51
tp283
a(I0
g51
tp284
a(I0
g51
tp285
a(I0
g51
tp286
a(I0
g51
tp287
a(I0
g51
tp288
a(I0
g51
tp289
a(I0
g51
tp290
a(I0
g51
tp291
a(I0
g51
tp292
a(I0
g51
tp293
a(I0
g51
tp294
a(I0
g51
tp295
a(I0
g51
tp296
a(I0
g51
tp297
a(I0
g51
tp298
a(I0
g60
tp299
a(I0
g53
tp300
a(I0
g53
tp301
a(I0
g60
tp302
a(I0
g60
tp303
a(I0
g53
tp304
a(I0
g53
tp305
a(I0
g60
tp306
a(I0
g51
tp307
a(I0
g60
tp308
a(I0
g53
tp309
a(I0
g53
tp310
a(I0
g51
tp311
a(I0
g51
tp312
a(I0
g53
tp313
a(I0
g60
tp314
a(I0
g60
tp315
a(I0
g51
tp316
a(I0
g60
tp317
a(I0
g53
tp318
a(I0
g53
tp319
a(I0
g60
tp320
a(I0
g51
tp321
a(I0
g60
tp322
a(I0
g60
tp323
a(I0
g53
tp324
a(I0
g53
tp325
a(I0
g53
tp326
a(I0
g51
tp327
a(I0
g53
tp328
a(I0
g51
tp329
a(I0
g60
tp330
a(I0
g53
tp331
a(I0
g60
tp332
a(I0
g53
tp333
a(I0
g60
tp334
a(I0
g53
tp335
a(I0
g60
tp336
a(I0
g53
tp337
a(I0
g60
tp338
a(I0
g53
tp339
a(I0
g60
tp340
a(I0
g53
tp341
a(I0
g60
tp342
a(I0
g53
tp343
a(I0
g60
tp344
a(I0
g53
tp345
a(I0
g60
tp346
a(I0
g53
tp347
a(I0
g60
tp348
a(I0
g53
tp349
a(I0
g60
tp350
a(I0
g53
tp351
a(I0
g60
tp352
a(I0
g60
tp353
a(I0
g51
tp354
a(I0
g51
tp355
a(I0
g53
tp356
a(I0
g53
tp357
a(I0
g51
tp358
a(I0
g51
tp359
a(I0
g51
tp360
a(I0
g51
tp361
a(I0
g51
tp362
a(I0
g51
tp363
a(I0
g51
tp364
a(I0
g51
tp365
a(I0
g57
tp366
a(I0
g51
tp367
a(I0
g51
tp368
a(I0
g51
tp369
a(I0
g51
tp370
a(I0
g55
tp371
a(I0
g57
tp372
a(I0
g57
tp373
a(I0
g51
tp374
a(I0
g51
tp375
a(I0
g51
tp376
a(I0
g51
tp377
a(I0
g55
tp378
a(I0
g55
tp379
a(I0
g51
tp380
a(I0
g60
tp381
a(I0
g60
tp382
a(I0
g53
tp383
a(I0
g53
tp384
a(I0
g51
tp385
a(I0
g51
tp386
a(I0
g51
tp387
a(I0
g51
tp388
a(I0
g51
tp389
a(I0
g51
tp390
a(I0
g51
tp391
a(I0
g51
tp392
a(I0
g60
tp393
a(I0
g51
tp394
a(I0
g53
tp395
a(I0
g51
tp396
a(I0
g51
tp397
a(I0
g51
tp398
a(I0
g51
tp399
a(I0
g51
tp400
a(I0
g51
tp401
a(I0
g51
tp402
a(I0
g51
tp403
a(I0
g51
tp404
a(I0
g60
tp405
a(I0
g53
tp406
a(I0
g51
tp407
a(I0
g51
tp408
a(I0
g51
tp409
a(I0
g60
tp410
a(I0
g53
tp411
a(I0
g51
tp412
a(I0
g57
tp413
a(I0
g55
tp414
a(I0
g51
tp415
a(I0
g60
tp416
a(I0
g51
tp417
a(I0
g53
tp418
a(I0
g51
tp419
a(I0
g51
tp420
a(I0
g51
tp421
a(I0
g51
tp422
a(I0
g51
tp423
a(I0
g51
tp424
a(I0
g51
tp425
a(I0
g51
tp426
a(I0
g51
tp427
a(I0
g51
tp428
a(I0
g51
tp429
a(I0
g51
tp430
a(I0
g51
tp431
a(I0
g51
tp432
a(I0
g51
tp433
a(I0
g51
tp434
a(I0
g51
tp435
a(I0
g51
tp436
a(I0
g51
tp437
a(I0
g57
tp438
a(I0
g55
tp439
a(I0
g57
tp440
a(I0
g55
tp441
a(I0
g57
tp442
a(I0
g55
tp443
a(I0
g57
tp444
a(I0
g57
tp445
a(I0
g55
tp446
a(I0
g55
tp447
a(I0
g57
tp448
a(I0
g55
tp449
a(I0
g57
tp450
a(I0
g55
tp451
a(I0
g57
tp452
a(I0
g55
tp453
a(I0
g57
tp454
a(I0
g55
tp455
a(I0
g57
tp456
a(I0
g55
tp457
a(I0
g57
tp458
a(I0
g55
tp459
a(I0
g57
tp460
a(I0
g55
tp461
a(I0
g57
tp462
a(I0
g55
tp463
a(I0
g57
tp464
a(I0
g55
tp465
a(I0
g57
tp466
a(I0
g55
tp467
a(I0
g60
tp468
a(I0
g60
tp469
a(I0
g51
tp470
a(I0
g51
tp471
a(I0
g53
tp472
a(I0
g53
tp473
a(I0
g51
tp474
a(I0
g57
tp475
a(I0
g57
tp476
a(I0
g55
tp477
a(I0
g55
tp478
a(I0
g60
tp479
a(I0
g60
tp480
a(I0
g53
tp481
a(I0
g53
tp482
a(I0
g57
tp483
a(I0
g55
tp484
a(I0
g51
tp485
a(I0
g51
tp486
a(I0
g57
tp487
a(I0
g55
tp488
a(I0
g51
tp489
a(I0
g51
tp490
a(I0
g57
tp491
a(I0
g51
tp492
a(I0
g51
tp493
a(I0
g51
tp494
a(I0
g55
tp495
a(I0
g60
tp496
a(I0
g51
tp497
a(I0
g53
tp498
a(I0
g60
tp499
a(I0
g60
tp500
a(I0
g53
tp501
a(I0
g53
tp502
a(I0
g51
tp503
a(I0
g60
tp504
a(I0
g53
tp505
a(I0
g60
tp506
a(I0
g53
tp507
a(I0
g60
tp508
a(I0
g53
tp509
a(I0
g60
tp510
a(I0
g53
tp511
a(I0
g60
tp512
a(I0
g53
tp513
a(I0
g60
tp514
a(I0
g53
tp515
a(I0
g60
tp516
a(I0
g53
tp517
a(I0
g60
tp518
a(I0
g53
tp519
a(I0
g51
tp520
a(I0
g51
tp521
a(I0
g51
tp522
a(I0
g51
tp523
a(I0
g51
tp524
a(I0
g51
tp525
a(I0
g51
tp526
a(I0
g51
tp527
a(I0
g51
tp528
a(I0
g57
tp529
a(I0
g57
tp530
a(I0
g55
tp531
a(I0
g51
tp532
a(I0
g51
tp533
a(I0
g51
tp534
a(I0
g51
tp535
a(I0
g51
tp536
a(I0
g51
tp537
a(I0
g55
tp538
as.