(dp1
S'layout'
p2
(ilayout
Layout
p3
(dp4
S'capsules'
p5
(lp6
sS'numGhosts'
p7
I1
sS'food'
p8
(igame
Grid
p9
(dp10
S'CELLS_PER_INT'
p11
I30
sS'width'
p12
I7
sS'data'
p13
(lp14
(lp15
I00
aI00
aI00
aI00
aI00
aI00
aI00
aa(lp16
I00
aI01
aI00
aI00
aI00
aI00
aI00
aa(lp17
I00
aI00
aI00
aI00
aI00
aI00
aI00
aa(lp18
I00
aI00
aI00
aI01
aI00
aI00
aI00
aa(lp19
I00
aI00
aI00
aI00
aI00
aI00
aI00
aa(lp20
I00
aI00
aI00
aI00
aI00
aI00
aI00
aa(lp21
I00
aI00
aI00
aI00
aI00
aI00
aI00
aasS'height'
p22
I7
sbsS'agentPositions'
p23
(lp24
(I01
(I2
I5
tp25
tp26
a(I00
(I3
I1
ttp27
asg22
I7
sg12
I7
sS'walls'
p28
(igame
Grid
p29
(dp30
g11
I30
sg12
I7
sg13
(lp31
(lp32
I01
aI01
aI01
aI01
aI01
aI01
aI01
aa(lp33
I01
aI00
aI00
aI00
aI00
aI00
aI01
aa(lp34
I01
aI00
aI01
aI01
aI01
aI00
aI01
aa(lp35
I01
aI00
aI01
aI00
aI01
aI00
aI01
aa(lp36
I01
aI00
aI01
aI00
aI01
aI00
aI01
aa(lp37
I01
aI00
aI00
aI00
aI00
aI00
aI01
aa(lp38
I01
aI01
aI01
aI01
aI01
aI01
aI01
aasg22
I7
sbsS'totalFood'
p39
I2
sS'layoutText'
p40
(lp41
S'%%%%%%%'
p42
aS'% P   %'
p43
aS'% %%% %'
p44
aS'% %.  %'
p45
aS'% %%% %'
p46
aS'%. G  %'
p47
aS'%%%%%%%'
p48
asbsS'actions'
p49
(lp50
(I0
S'East'
p51
tp52
a(I0
g51
tp53
a(I0
g51
tp54
a(I0
S'Stop'
p55
tp56
a(I0
g55
tp57
a(I0
g55
tp58
a(I0
S'South'
p59
tp60
a(I0
g59
tp61
a(I0
S'West'
p62
tp63
a(I0
g62
tp64
a(I0
g51
tp65
a(I0
g62
tp66
a(I0
g51
tp67
a(I0
g62
tp68
a(I0
g55
tp69
a(I0
g55
tp70
a(I0
g55
tp71
a(I0
g51
tp72
a(I0
g62
tp73
a(I0
g51
tp74
a(I0
g55
tp75
a(I0
g51
tp76
a(I0
g62
tp77
a(I0
g62
tp78
a(I0
g51
tp79
a(I0
g51
tp80
a(I0
g62
tp81
a(I0
g62
tp82
a(I0
g51
tp83
a(I0
g51
tp84
a(I0
g62
tp85
a(I0
g62
tp86
a(I0
g51
tp87
a(I0
g51
tp88
a(I0
g62
tp89
a(I0
g62
tp90
a(I0
g51
tp91
a(I0
g62
tp92
a(I0
g55
tp93
a(I0
g55
tp94
a(I0
g51
tp95
a(I0
g51
tp96
a(I0
g62
tp97
a(I0
g62
tp98
a(I0
g51
tp99
a(I0
g51
tp100
a(I0
g62
tp101
a(I0
g62
tp102
a(I0
g51
tp103
a(I0
g51
tp104
a(I0
g62
tp105
a(I0
g62
tp106
a(I0
g51
tp107
a(I0
g62
tp108
a(I0
g51
tp109
a(I0
g51
tp110
a(I0
g62
tp111
a(I0
g62
tp112
a(I0
g51
tp113
a(I0
g62
tp114
a(I0
g51
tp115
a(I0
g51
tp116
a(I0
g55
tp117
a(I0
g55
tp118
a(I0
g62
tp119
a(I0
g62
tp120
a(I0
g51
tp121
a(I0
g51
tp122
a(I0
g55
tp123
a(I0
g55
tp124
a(I0
g55
tp125
a(I0
g55
tp126
a(I0
g55
tp127
a(I0
g55
tp128
a(I0
g55
tp129
a(I0
g55
tp130
a(I0
g55
tp131
a(I0
g55
tp132
a(I0
g55
tp133
a(I0
g55
tp134
a(I0
g55
tp135
a(I0
g55
tp136
a(I0
g62
tp137
a(I0
g62
tp138
a(I0
g51
tp139
a(I0
g51
tp140
a(I0
g62
tp141
a(I0
g62
tp142
a(I0
g51
tp143
a(I0
g51
tp144
a(I0
g62
tp145
a(I0
g62
tp146
a(I0
g51
tp147
a(I0
g51
tp148
a(I0
g62
tp149
a(I0
g62
tp150
a(I0
g51
tp151
a(I0
g51
tp152
a(I0
g62
tp153
a(I0
g62
tp154
a(I0
g51
tp155
a(I0
g51
tp156
a(I0
g62
tp157
a(I0
g62
tp158
a(I0
g51
tp159
a(I0
g55
tp160
a(I0
g62
tp161
a(I0
g51
tp162
a(I0
g55
tp163
a(I0
g51
tp164
a(I0
g62
tp165
a(I0
g62
tp166
a(I0
g51
tp167
a(I0
g51
tp168
a(I0
g62
tp169
a(I0
g62
tp170
a(I0
g51
tp171
a(I0
g51
tp172
a(I0
g62
tp173
a(I0
g62
tp174
a(I0
g51
tp175
a(I0
g51
tp176
a(I0
g62
tp177
a(I0
g62
tp178
a(I0
g51
tp179
a(I0
g51
tp180
a(I0
g62
tp181
a(I0
g62
tp182
a(I0
g51
tp183
a(I0
g51
tp184
a(I0
g55
tp185
a(I0
g55
tp186
a(I0
g62
tp187
a(I0
g62
tp188
a(I0
g51
tp189
a(I0
g55
tp190
a(I0
g51
tp191
a(I0
g62
tp192
a(I0
g62
tp193
a(I0
g51
tp194
a(I0
g62
tp195
a(I0
g51
tp196
a(I0
g62
tp197
a(I0
g51
tp198
a(I0
g62
tp199
a(I0
g55
tp200
a(I0
g51
tp201
a(I0
g62
tp202
a(I0
g55
tp203
a(I0
g51
tp204
a(I0
g62
tp205
a(I0
g51
tp206
a(I0
g51
tp207
a(I0
g62
tp208
a(I0
g62
tp209
a(I0
g51
tp210
a(I0
g55
tp211
a(I0
g62
tp212
a(I0
g51
tp213
a(I0
g62
tp214
a(I0
g51
tp215
a(I0
g62
tp216
a(I0
g51
tp217
a(I0
g62
tp218
a(I0
g55
tp219
a(I0
g51
tp220
a(I0
g51
tp221
a(I0
g62
tp222
a(I0
g62
tp223
a(I0
g51
tp224
a(I0
g51
tp225
a(I0
g62
tp226
a(I0
g62
tp227
a(I0
g51
tp228
a(I0
g51
tp229
a(I0
g62
tp230
a(I0
g62
tp231
a(I0
g51
tp232
a(I0
g51
tp233
a(I0
g62
tp234
a(I0
g62
tp235
a(I0
g51
tp236
a(I0
g51
tp237
a(I0
g62
tp238
a(I0
g62
tp239
a(I0
g51
tp240
a(I0
g51
tp241
a(I0
g62
tp242
a(I0
g62
tp243
a(I0
g51
tp244
a(I0
g51
tp245
a(I0
g62
tp246
a(I0
g62
tp247
a(I0
g51
tp248
a(I0
g55
tp249
a(I0
g51
tp250
a(I0
g55
tp251
a(I0
g55
tp252
a(I0
g55
tp253
a(I0
g62
tp254
a(I0
g62
tp255
a(I0
g51
tp256
a(I0
g51
tp257
a(I0
g62
tp258
a(I0
g62
tp259
a(I0
g55
tp260
a(I0
g55
tp261
a(I0
g51
tp262
a(I0
g51
tp263
a(I0
g62
tp264
a(I0
g62
tp265
a(I0
g51
tp266
a(I0
g62
tp267
a(I0
g51
tp268
a(I0
g51
tp269
a(I0
g62
tp270
a(I0
g62
tp271
a(I0
g51
tp272
a(I0
g51
tp273
a(I0
g62
tp274
a(I0
g62
tp275
a(I0
g51
tp276
a(I0
g51
tp277
a(I0
g62
tp278
a(I0
g62
tp279
a(I0
g51
tp280
a(I0
g51
tp281
a(I0
g62
tp282
a(I0
g62
tp283
a(I0
g55
tp284
a(I0
g51
tp285
a(I0
g62
tp286
a(I0
g51
tp287
a(I0
g51
tp288
a(I0
g62
tp289
a(I0
g62
tp290
a(I0
g51
tp291
a(I0
g51
tp292
a(I0
g62
tp293
a(I0
g62
tp294
a(I0
g55
tp295
a(I0
g51
tp296
a(I0
g51
tp297
a(I0
g62
tp298
a(I0
g62
tp299
a(I0
g51
tp300
a(I0
g62
tp301
a(I0
g51
tp302
a(I0
g62
tp303
a(I0
g51
tp304
a(I0
g55
tp305
a(I0
g62
tp306
a(I0
g51
tp307
a(I0
g51
tp308
a(I0
g62
tp309
a(I0
g62
tp310
a(I0
g51
tp311
a(I0
g55
tp312
a(I0
g55
tp313
a(I0
g51
tp314
a(I0
S'North'
p315
tp316
a(I0
g55
tp317
a(I0
g55
tp318
a(I0
g55
tp319
a(I0
g55
tp320
a(I0
g55
tp321
a(I0
g55
tp322
a(I0
g55
tp323
a(I0
g59
tp324
a(I0
g62
tp325
a(I0
g51
tp326
a(I0
g55
tp327
a(I0
g55
tp328
a(I0
g55
tp329
a(I0
g55
tp330
a(I0
g62
tp331
a(I0
g62
tp332
a(I0
g51
tp333
a(I0
g62
tp334
a(I0
g51
tp335
a(I0
g62
tp336
a(I0
g51
tp337
a(I0
g62
tp338
a(I0
g51
tp339
a(I0
g62
tp340
a(I0
g51
tp341
a(I0
g55
tp342
a(I0
g55
tp343
a(I0
g51
tp344
a(I0
g55
tp345
a(I0
g55
tp346
a(I0
g62
tp347
a(I0
g62
tp348
a(I0
g55
tp349
a(I0
g51
tp350
a(I0
g51
tp351
a(I0
g62
tp352
a(I0
g62
tp353
a(I0
g51
tp354
a(I0
g51
tp355
a(I0
g62
tp356
a(I0
g62
tp357
a(I0
g51
tp358
a(I0
g62
tp359
a(I0
g51
tp360
a(I0
g51
tp361
a(I0
g62
tp362
a(I0
g62
tp363
a(I0
g51
tp364
a(I0
g51
tp365
a(I0
g55
tp366
a(I0
g55
tp367
a(I0
g55
tp368
a(I0
g62
tp369
a(I0
g62
tp370
a(I0
g51
tp371
a(I0
g51
tp372
a(I0
g62
tp373
a(I0
g62
tp374
a(I0
g55
tp375
a(I0
g55
tp376
a(I0
g51
tp377
a(I0
g51
tp378
a(I0
g62
tp379
a(I0
g62
tp380
a(I0
g51
tp381
a(I0
g62
tp382
a(I0
g51
tp383
a(I0
g51
tp384
a(I0
g62
tp385
a(I0
g62
tp386
a(I0
g51
tp387
a(I0
g51
tp388
a(I0
g62
tp389
a(I0
g62
tp390
a(I0
g51
tp391
a(I0
g51
tp392
a(I0
g55
tp393
a(I0
g55
tp394
a(I0
g62
tp395
a(I0
g62
tp396
a(I0
g51
tp397
a(I0
g51
tp398
a(I0
g62
tp399
a(I0
g62
tp400
a(I0
g51
tp401
a(I0
g51
tp402
a(I0
g62
tp403
a(I0
g62
tp404
a(I0
g55
tp405
a(I0
g51
tp406
a(I0
g51
tp407
a(I0
g62
tp408
a(I0
g62
tp409
a(I0
g51
tp410
a(I0
g51
tp411
a(I0
g62
tp412
a(I0
g51
tp413
a(I0
g55
tp414
a(I0
g62
tp415
a(I0
g55
tp416
a(I0
g62
tp417
a(I0
g55
tp418
a(I0
g55
tp419
a(I0
g51
tp420
a(I0
g51
tp421
a(I0
g62
tp422
a(I0
g62
tp423
a(I0
g51
tp424
a(I0
g51
tp425
a(I0
g62
tp426
a(I0
g62
tp427
a(I0
g51
tp428
a(I0
g51
tp429
a(I0
g62
tp430
a(I0
g62
tp431
a(I0
g51
tp432
a(I0
g51
tp433
a(I0
g62
tp434
a(I0
g62
tp435
a(I0
g51
tp436
a(I0
g55
tp437
a(I0
g55
tp438
a(I0
g51
tp439
a(I0
g62
tp440
a(I0
g62
tp441
a(I0
g51
tp442
a(I0
g51
tp443
a(I0
g62
tp444
a(I0
g62
tp445
a(I0
g51
tp446
a(I0
g51
tp447
a(I0
g62
tp448
a(I0
g62
tp449
a(I0
g51
tp450
a(I0
g51
tp451
a(I0
g62
tp452
a(I0
g62
tp453
a(I0
g51
tp454
a(I0
g51
tp455
a(I0
g62
tp456
a(I0
g62
tp457
a(I0
g51
tp458
a(I0
g51
tp459
a(I0
g62
tp460
a(I0
g62
tp461
a(I0
g51
tp462
a(I0
g62
tp463
a(I0
g55
tp464
a(I0
g55
tp465
a(I0
g51
tp466
a(I0
g55
tp467
a(I0
g55
tp468
a(I0
g55
tp469
a(I0
g55
tp470
a(I0
g55
tp471
a(I0
g55
tp472
a(I0
g55
tp473
a(I0
g55
tp474
a(I0
g55
tp475
a(I0
g55
tp476
a(I0
g55
tp477
a(I0
g55
tp478
a(I0
g55
tp479
a(I0
g55
tp480
a(I0
g55
tp481
a(I0
g55
tp482
a(I0
g55
tp483
a(I0
g55
tp484
a(I0
g55
tp485
a(I0
g62
tp486
a(I0
g55
tp487
a(I0
g55
tp488
a(I0
g51
tp489
a(I0
g55
tp490
a(I0
g55
tp491
a(I0
g55
tp492
a(I0
g55
tp493
a(I0
g55
tp494
a(I0
g55
tp495
a(I0
g55
tp496
a(I0
g55
tp497
a(I0
g55
tp498
a(I0
g55
tp499
a(I0
g55
tp500
a(I0
g55
tp501
a(I0
g55
tp502
a(I0
g55
tp503
a(I0
g55
tp504
a(I0
g55
tp505
a(I0
g55
tp506
a(I0
g55
tp507
a(I0
g55
tp508
a(I0
g55
tp509
a(I0
g55
tp510
a(I0
g55
tp511
a(I0
g55
tp512
a(I0
g55
tp513
a(I0
g55
tp514
a(I0
g55
tp515
a(I0
g55
tp516
a(I0
g55
tp517
a(I0
g62
tp518
a(I0
g55
tp519
a(I0
g55
tp520
a(I0
g55
tp521
a(I0
g55
tp522
a(I0
g55
tp523
a(I0
g51
tp524
a(I0
g55
tp525
a(I0
g55
tp526
a(I0
g55
tp527
a(I0
g62
tp528
a(I0
g51
tp529
a(I0
g55
tp530
a(I0
g55
tp531
a(I0
g51
tp532
a(I0
g62
tp533
a(I0
g62
tp534
a(I0
g55
tp535
a(I0
g55
tp536
a(I0
g51
tp537
a(I0
g55
tp538
a(I0
g62
tp539
a(I0
g51
tp540
a(I0
g55
tp541
a(I0
g55
tp542
a(I0
g55
tp543
a(I0
g55
tp544
a(I0
g55
tp545
a(I0
g62
tp546
a(I0
g55
tp547
a(I0
g55
tp548
a(I0
g55
tp549
a(I0
g55
tp550
a(I0
g55
tp551
a(I0
g55
tp552
a(I0
g55
tp553
a(I0
g51
tp554
a(I0
g51
tp555
a(I0
g62
tp556
a(I0
g62
tp557
a(I0
g55
tp558
a(I0
g55
tp559
a(I0
g55
tp560
a(I0
g55
tp561
a(I0
g55
tp562
a(I0
g55
tp563
a(I0
g51
tp564
a(I0
g55
tp565
a(I0
g55
tp566
a(I0
g55
tp567
a(I0
g55
tp568
a(I0
g55
tp569
a(I0
g55
tp570
a(I0
g55
tp571
a(I0
g55
tp572
a(I0
g55
tp573
a(I0
g62
tp574
a(I0
g51
tp575
a(I0
g62
tp576
a(I0
g55
tp577
a(I0
g55
tp578
as.