(dp1
S'layout'
p2
(ilayout
Layout
p3
(dp4
S'capsules'
p5
(lp6
sS'numGhosts'
p7
I1
sS'food'
p8
(igame
Grid
p9
(dp10
S'CELLS_PER_INT'
p11
I30
sS'width'
p12
I7
sS'data'
p13
(lp14
(lp15
I00
aI00
aI00
aI00
aI00
aI00
aI00
aa(lp16
I00
aI01
aI00
aI00
aI00
aI00
aI00
aa(lp17
I00
aI00
aI00
aI00
aI00
aI00
aI00
aa(lp18
I00
aI00
aI00
aI01
aI00
aI00
aI00
aa(lp19
I00
aI00
aI00
aI00
aI00
aI00
aI00
aa(lp20
I00
aI00
aI00
aI00
aI00
aI00
aI00
aa(lp21
I00
aI00
aI00
aI00
aI00
aI00
aI00
aasS'height'
p22
I7
sbsS'agentPositions'
p23
(lp24
(I01
(I2
I5
tp25
tp26
a(I00
(I3
I1
ttp27
asg22
I7
sg12
I7
sS'walls'
p28
(igame
Grid
p29
(dp30
g11
I30
sg12
I7
sg13
(lp31
(lp32
I01
aI01
aI01
aI01
aI01
aI01
aI01
aa(lp33
I01
aI00
aI00
aI00
aI00
aI00
aI01
aa(lp34
I01
aI00
aI01
aI01
aI01
aI00
aI01
aa(lp35
I01
aI00
aI01
aI00
aI01
aI00
aI01
aa(lp36
I01
aI00
aI01
aI00
aI01
aI00
aI01
aa(lp37
I01
aI00
aI00
aI00
aI00
aI00
aI01
aa(lp38
I01
aI01
aI01
aI01
aI01
aI01
aI01
aasg22
I7
sbsS'totalFood'
p39
I2
sS'layoutText'
p40
(lp41
S'%%%%%%%'
p42
aS'% P   %'
p43
aS'% %%% %'
p44
aS'% %.  %'
p45
aS'% %%% %'
p46
aS'%. G  %'
p47
aS'%%%%%%%'
p48
asbsS'actions'
p49
(lp50
(I0
S'West'
p51
tp52
a(I0
S'South'
p53
tp54
a(I0
g53
tp55
a(I0
g53
tp56
a(I0
g53
tp57
a(I0
S'East'
p58
tp59
a(I0
g51
tp60
a(I0
S'Stop'
p61
tp62
a(I0
g58
tp63
a(I0
g58
tp64
a(I0
g51
tp65
a(I0
g51
tp66
a(I0
g58
tp67
a(I0
g58
tp68
a(I0
g58
tp69
a(I0
g51
tp70
a(I0
g51
tp71
a(I0
g58
tp72
a(I0
g51
tp73
a(I0
g58
tp74
a(I0
g51
tp75
a(I0
g51
tp76
a(I0
S'North'
p77
tp78
a(I0
g77
tp79
a(I0
g77
tp80
a(I0
g77
tp81
a(I0
g58
tp82
a(I0
g51
tp83
a(I0
g53
tp84
a(I0
g61
tp85
a(I0
g61
tp86
a(I0
g61
tp87
a(I0
g61
tp88
a(I0
g61
tp89
a(I0
g61
tp90
a(I0
g61
tp91
a(I0
g61
tp92
a(I0
g61
tp93
a(I0
g61
tp94
a(I0
g77
tp95
a(I0
g58
tp96
a(I0
g51
tp97
a(I0
g58
tp98
a(I0
g61
tp99
a(I0
g58
tp100
a(I0
g61
tp101
a(I0
g58
tp102
a(I0
g51
tp103
a(I0
g51
tp104
a(I0
g61
tp105
a(I0
g58
tp106
a(I0
g51
tp107
a(I0
g61
tp108
a(I0
g51
tp109
a(I0
g53
tp110
a(I0
g77
tp111
a(I0
g53
tp112
a(I0
g53
tp113
a(I0
g61
tp114
a(I0
g61
tp115
a(I0
g61
tp116
a(I0
g61
tp117
a(I0
g61
tp118
a(I0
g77
tp119
a(I0
g61
tp120
a(I0
g53
tp121
a(I0
g61
tp122
a(I0
g61
tp123
a(I0
g61
tp124
a(I0
g61
tp125
a(I0
g61
tp126
a(I0
g61
tp127
a(I0
g61
tp128
a(I0
g77
tp129
a(I0
g77
tp130
a(I0
g61
tp131
a(I0
g53
tp132
a(I0
g53
tp133
a(I0
g77
tp134
a(I0
g77
tp135
a(I0
g58
tp136
a(I0
g58
tp137
a(I0
g51
tp138
a(I0
g61
tp139
a(I0
g51
tp140
a(I0
g61
tp141
a(I0
g61
tp142
a(I0
g53
tp143
a(I0
g77
tp144
a(I0
g53
tp145
a(I0
g53
tp146
a(I0
g77
tp147
a(I0
g53
tp148
a(I0
g53
tp149
a(I0
g77
tp150
a(I0
g77
tp151
a(I0
g77
tp152
a(I0
g53
tp153
a(I0
g53
tp154
a(I0
g53
tp155
a(I0
g77
tp156
a(I0
g77
tp157
a(I0
g61
tp158
a(I0
g61
tp159
a(I0
g53
tp160
a(I0
g77
tp161
a(I0
g77
tp162
a(I0
g61
tp163
a(I0
g61
tp164
a(I0
g61
tp165
a(I0
g61
tp166
a(I0
g53
tp167
a(I0
g61
tp168
a(I0
g61
tp169
a(I0
g53
tp170
a(I0
g53
tp171
a(I0
g77
tp172
a(I0
g77
tp173
a(I0
g53
tp174
a(I0
g53
tp175
a(I0
g77
tp176
a(I0
g77
tp177
a(I0
g53
tp178
a(I0
g53
tp179
a(I0
g77
tp180
a(I0
g77
tp181
a(I0
g53
tp182
a(I0
g77
tp183
a(I0
g53
tp184
a(I0
g53
tp185
a(I0
g53
tp186
a(I0
g58
tp187
a(I0
g61
tp188
a(I0
g58
tp189
a(I0
g51
tp190
a(I0
g51
tp191
a(I0
g77
tp192
a(I0
g77
tp193
a(I0
g61
tp194
a(I0
g61
tp195
a(I0
g53
tp196
a(I0
g77
tp197
a(I0
g77
tp198
a(I0
g53
tp199
a(I0
g77
tp200
a(I0
g53
tp201
a(I0
g53
tp202
a(I0
g53
tp203
a(I0
g58
tp204
a(I0
g61
tp205
a(I0
g61
tp206
a(I0
g51
tp207
a(I0
g58
tp208
a(I0
g51
tp209
a(I0
g58
tp210
a(I0
g61
tp211
a(I0
g61
tp212
a(I0
g58
tp213
a(I0
g51
tp214
a(I0
g51
tp215
a(I0
g77
tp216
a(I0
g77
tp217
a(I0
g77
tp218
a(I0
g61
tp219
a(I0
g61
tp220
a(I0
g53
tp221
a(I0
g53
tp222
a(I0
g77
tp223
a(I0
g77
tp224
a(I0
g53
tp225
a(I0
g53
tp226
a(I0
g77
tp227
a(I0
g77
tp228
a(I0
g61
tp229
a(I0
g61
tp230
a(I0
g53
tp231
a(I0
g61
tp232
a(I0
g61
tp233
a(I0
g61
tp234
a(I0
g61
tp235
a(I0
g61
tp236
a(I0
g61
tp237
a(I0
g61
tp238
a(I0
g53
tp239
a(I0
g53
tp240
a(I0
g61
tp241
a(I0
g58
tp242
a(I0
g58
tp243
a(I0
g51
tp244
a(I0
g51
tp245
a(I0
g61
tp246
a(I0
g77
tp247
a(I0
g77
tp248
a(I0
g53
tp249
a(I0
g61
tp250
a(I0
g77
tp251
a(I0
g61
tp252
a(I0
g61
tp253
a(I0
g53
tp254
a(I0
g77
tp255
a(I0
g77
tp256
a(I0
g53
tp257
a(I0
g53
tp258
a(I0
g77
tp259
a(I0
g77
tp260
a(I0
g53
tp261
a(I0
g53
tp262
a(I0
g77
tp263
a(I0
g53
tp264
a(I0
g53
tp265
a(I0
g58
tp266
a(I0
g58
tp267
a(I0
g51
tp268
a(I0
g51
tp269
a(I0
g77
tp270
a(I0
g77
tp271
a(I0
g53
tp272
a(I0
g53
tp273
a(I0
g58
tp274
a(I0
g58
tp275
a(I0
g58
tp276
a(I0
g51
tp277
a(I0
g61
tp278
a(I0
g61
tp279
a(I0
g51
tp280
a(I0
g51
tp281
a(I0
g77
tp282
a(I0
g77
tp283
a(I0
g53
tp284
a(I0
g53
tp285
a(I0
g58
tp286
a(I0
g58
tp287
a(I0
g61
tp288
a(I0
g61
tp289
a(I0
g51
tp290
a(I0
g51
tp291
a(I0
g77
tp292
a(I0
g77
tp293
a(I0
g77
tp294
a(I0
g53
tp295
a(I0
g53
tp296
a(I0
g77
tp297
a(I0
g77
tp298
a(I0
g53
tp299
a(I0
g53
tp300
a(I0
g53
tp301
a(I0
g58
tp302
a(I0
g61
tp303
a(I0
g61
tp304
a(I0
g61
tp305
a(I0
g61
tp306
a(I0
g61
tp307
a(I0
g61
tp308
a(I0
g58
tp309
a(I0
g51
tp310
a(I0
g51
tp311
a(I0
g77
tp312
a(I0
g77
tp313
a(I0
g77
tp314
a(I0
g77
tp315
a(I0
g53
tp316
a(I0
g53
tp317
a(I0
g53
tp318
a(I0
g53
tp319
a(I0
g58
tp320
a(I0
g61
tp321
a(I0
g58
tp322
a(I0
g51
tp323
a(I0
g51
tp324
a(I0
g58
tp325
a(I0
g51
tp326
a(I0
g61
tp327
a(I0
g77
tp328
a(I0
g77
tp329
a(I0
g53
tp330
a(I0
g53
tp331
a(I0
g58
tp332
as.