(dp1
S'layout'
p2
(ilayout
Layout
p3
(dp4
S'capsules'
p5
(lp6
sS'numGhosts'
p7
I1
sS'food'
p8
(igame
Grid
p9
(dp10
S'CELLS_PER_INT'
p11
I30
sS'width'
p12
I7
sS'data'
p13
(lp14
(lp15
I00
aI00
aI00
aI00
aI00
aI00
aI00
aa(lp16
I00
aI01
aI00
aI00
aI00
aI00
aI00
aa(lp17
I00
aI00
aI00
aI00
aI00
aI00
aI00
aa(lp18
I00
aI00
aI00
aI01
aI00
aI00
aI00
aa(lp19
I00
aI00
aI00
aI00
aI00
aI00
aI00
aa(lp20
I00
aI00
aI00
aI00
aI00
aI00
aI00
aa(lp21
I00
aI00
aI00
aI00
aI00
aI00
aI00
aasS'height'
p22
I7
sbsS'agentPositions'
p23
(lp24
(I01
(I2
I5
tp25
tp26
a(I00
(I3
I1
ttp27
asg22
I7
sg12
I7
sS'walls'
p28
(igame
Grid
p29
(dp30
g11
I30
sg12
I7
sg13
(lp31
(lp32
I01
aI01
aI01
aI01
aI01
aI01
aI01
aa(lp33
I01
aI00
aI00
aI00
aI00
aI00
aI01
aa(lp34
I01
aI00
aI01
aI01
aI01
aI00
aI01
aa(lp35
I01
aI00
aI01
aI00
aI01
aI00
aI01
aa(lp36
I01
aI00
aI01
aI00
aI01
aI00
aI01
aa(lp37
I01
aI00
aI00
aI00
aI00
aI00
aI01
aa(lp38
I01
aI01
aI01
aI01
aI01
aI01
aI01
aasg22
I7
sbsS'totalFood'
p39
I2
sS'layoutText'
p40
(lp41
S'%%%%%%%'
p42
aS'% P   %'
p43
aS'% %%% %'
p44
aS'% %.  %'
p45
aS'% %%% %'
p46
aS'%. G  %'
p47
aS'%%%%%%%'
p48
asbsS'actions'
p49
(lp50
(I0
S'East'
p51
tp52
a(I0
g51
tp53
a(I0
S'Stop'
p54
tp55
a(I0
g54
tp56
a(I0
S'West'
p57
tp58
a(I0
g57
tp59
a(I0
g57
tp60
a(I0
g54
tp61
a(I0
g51
tp62
a(I0
g57
tp63
a(I0
S'South'
p64
tp65
a(I0
S'North'
p66
tp67
a(I0
g51
tp68
a(I0
g51
tp69
a(I0
g54
tp70
a(I0
g57
tp71
a(I0
g51
tp72
a(I0
g54
tp73
a(I0
g57
tp74
a(I0
g54
tp75
a(I0
g54
tp76
a(I0
g54
tp77
a(I0
g54
tp78
a(I0
g54
tp79
a(I0
g57
tp80
a(I0
g64
tp81
a(I0
g64
tp82
a(I0
g64
tp83
a(I0
g54
tp84
a(I0
g54
tp85
a(I0
g64
tp86
a(I0
g51
tp87
a(I0
g54
tp88
a(I0
g54
tp89
a(I0
g51
tp90
a(I0
g57
tp91
a(I0
g57
tp92
a(I0
g66
tp93
a(I0
g54
tp94
a(I0
g54
tp95
a(I0
g54
tp96
a(I0
g54
tp97
a(I0
g66
tp98
a(I0
g66
tp99
a(I0
g54
tp100
a(I0
g54
tp101
a(I0
g54
tp102
a(I0
g54
tp103
a(I0
g66
tp104
a(I0
g54
tp105
a(I0
g51
tp106
a(I0
g57
tp107
a(I0
g54
tp108
a(I0
g54
tp109
a(I0
g54
tp110
a(I0
g54
tp111
a(I0
g51
tp112
a(I0
g57
tp113
a(I0
g51
tp114
a(I0
g51
tp115
a(I0
g57
tp116
a(I0
g57
tp117
a(I0
g51
tp118
a(I0
g51
tp119
a(I0
g57
tp120
a(I0
g57
tp121
a(I0
g64
tp122
a(I0
g54
tp123
a(I0
g54
tp124
a(I0
g66
tp125
a(I0
g51
tp126
a(I0
g51
tp127
a(I0
g57
tp128
a(I0
g57
tp129
a(I0
g64
tp130
a(I0
g66
tp131
a(I0
g51
tp132
a(I0
g51
tp133
a(I0
g57
tp134
a(I0
g57
tp135
a(I0
g64
tp136
a(I0
g66
tp137
a(I0
g51
tp138
a(I0
g51
tp139
a(I0
g57
tp140
a(I0
g57
tp141
a(I0
g64
tp142
a(I0
g66
tp143
a(I0
g51
tp144
a(I0
g54
tp145
a(I0
g51
tp146
a(I0
g57
tp147
a(I0
g57
tp148
a(I0
g64
tp149
a(I0
g66
tp150
a(I0
g51
tp151
a(I0
g51
tp152
a(I0
g57
tp153
a(I0
g57
tp154
a(I0
g51
tp155
a(I0
g54
tp156
a(I0
g57
tp157
a(I0
g54
tp158
a(I0
g64
tp159
a(I0
g54
tp160
a(I0
g64
tp161
a(I0
g66
tp162
a(I0
g66
tp163
a(I0
g64
tp164
a(I0
g64
tp165
a(I0
g66
tp166
a(I0
g66
tp167
a(I0
g64
tp168
a(I0
g64
tp169
a(I0
g64
tp170
a(I0
g54
tp171
a(I0
g54
tp172
a(I0
g54
tp173
a(I0
g54
tp174
a(I0
g54
tp175
a(I0
g54
tp176
a(I0
g54
tp177
a(I0
g54
tp178
a(I0
g54
tp179
a(I0
g54
tp180
a(I0
g54
tp181
a(I0
g54
tp182
a(I0
g54
tp183
a(I0
g54
tp184
a(I0
g54
tp185
a(I0
g54
tp186
a(I0
g54
tp187
a(I0
g54
tp188
a(I0
g54
tp189
a(I0
g54
tp190
a(I0
g54
tp191
a(I0
g54
tp192
a(I0
g54
tp193
a(I0
g54
tp194
a(I0
g54
tp195
a(I0
g54
tp196
a(I0
g54
tp197
a(I0
g54
tp198
a(I0
g54
tp199
a(I0
g54
tp200
a(I0
g54
tp201
a(I0
g54
tp202
a(I0
g54
tp203
a(I0
g54
tp204
a(I0
g54
tp205
a(I0
g54
tp206
a(I0
g54
tp207
a(I0
g54
tp208
a(I0
g54
tp209
a(I0
g66
tp210
a(I0
g66
tp211
a(I0
g64
tp212
a(I0
g64
tp213
a(I0
g66
tp214
a(I0
g66
tp215
a(I0
g64
tp216
a(I0
g66
tp217
a(I0
g66
tp218
a(I0
g64
tp219
a(I0
g64
tp220
a(I0
g66
tp221
a(I0
g64
tp222
a(I0
g64
tp223
a(I0
g66
tp224
a(I0
g66
tp225
a(I0
g66
tp226
a(I0
g64
tp227
a(I0
g54
tp228
a(I0
g54
tp229
a(I0
g54
tp230
a(I0
g54
tp231
a(I0
g54
tp232
a(I0
g54
tp233
a(I0
g54
tp234
a(I0
g54
tp235
a(I0
g64
tp236
a(I0
g66
tp237
a(I0
g66
tp238
a(I0
g64
tp239
a(I0
g64
tp240
a(I0
g54
tp241
a(I0
g54
tp242
a(I0
g54
tp243
a(I0
g54
tp244
a(I0
g66
tp245
a(I0
g66
tp246
a(I0
g64
tp247
a(I0
g64
tp248
a(I0
g66
tp249
a(I0
g66
tp250
a(I0
g64
tp251
a(I0
g66
tp252
a(I0
g54
tp253
a(I0
g64
tp254
a(I0
g54
tp255
a(I0
g54
tp256
a(I0
g54
tp257
a(I0
g54
tp258
a(I0
g64
tp259
a(I0
g66
tp260
a(I0
g66
tp261
a(I0
g64
tp262
a(I0
g66
tp263
a(I0
g64
tp264
a(I0
g64
tp265
a(I0
g66
tp266
a(I0
g66
tp267
a(I0
g64
tp268
a(I0
g64
tp269
a(I0
g66
tp270
a(I0
g64
tp271
a(I0
g66
tp272
a(I0
g64
tp273
a(I0
g66
tp274
a(I0
g66
tp275
a(I0
g54
tp276
a(I0
g64
tp277
a(I0
g64
tp278
a(I0
g66
tp279
a(I0
g66
tp280
a(I0
g51
tp281
a(I0
g51
tp282
a(I0
g57
tp283
a(I0
g54
tp284
a(I0
g54
tp285
a(I0
g54
tp286
a(I0
g57
tp287
a(I0
g64
tp288
a(I0
g66
tp289
a(I0
g51
tp290
a(I0
g54
tp291
a(I0
g54
tp292
a(I0
g51
tp293
a(I0
g57
tp294
a(I0
g54
tp295
a(I0
g51
tp296
a(I0
g54
tp297
a(I0
g57
tp298
a(I0
g57
tp299
a(I0
g64
tp300
a(I0
g66
tp301
a(I0
g54
tp302
a(I0
g51
tp303
a(I0
g57
tp304
a(I0
g51
tp305
a(I0
g54
tp306
a(I0
g57
tp307
a(I0
g51
tp308
a(I0
g57
tp309
a(I0
g64
tp310
a(I0
g64
tp311
a(I0
g54
tp312
a(I0
g54
tp313
a(I0
g54
tp314
a(I0
g54
tp315
a(I0
g54
tp316
a(I0
g54
tp317
a(I0
g54
tp318
a(I0
g54
tp319
a(I0
g54
tp320
a(I0
g54
tp321
a(I0
g54
tp322
a(I0
g54
tp323
as.